
tube-client:     file format elf32-littlearm


Disassembly of section .text:

00008000 <_start>:
    8000:	e59ff018 	ldr	pc, [pc, #24]	; 8020 <_reset_h>
    8004:	e59ff018 	ldr	pc, [pc, #24]	; 8024 <_undefined_instruction_vector_h>
    8008:	e59ff018 	ldr	pc, [pc, #24]	; 8028 <_software_interrupt_vector_h>
    800c:	e59ff018 	ldr	pc, [pc, #24]	; 802c <_prefetch_abort_vector_h>
    8010:	e59ff018 	ldr	pc, [pc, #24]	; 8030 <_data_abort_vector_h>
    8014:	e59ff018 	ldr	pc, [pc, #24]	; 8034 <_unused_handler_h>
    8018:	e59ff018 	ldr	pc, [pc, #24]	; 8038 <_interrupt_vector_h>
    801c:	e59ff018 	ldr	pc, [pc, #24]	; 803c <_fast_interrupt_vector_h>

00008020 <_reset_h>:
    8020:	00008040 	.word	0x00008040

00008024 <_undefined_instruction_vector_h>:
    8024:	000087e8 	.word	0x000087e8

00008028 <_software_interrupt_vector_h>:
    8028:	000087fc 	.word	0x000087fc

0000802c <_prefetch_abort_vector_h>:
    802c:	00008810 	.word	0x00008810

00008030 <_data_abort_vector_h>:
    8030:	00008824 	.word	0x00008824

00008034 <_unused_handler_h>:
    8034:	00008040 	.word	0x00008040

00008038 <_interrupt_vector_h>:
    8038:	00008838 	.word	0x00008838

0000803c <_fast_interrupt_vector_h>:
    803c:	000088f4 	.word	0x000088f4

00008040 <_reset_>:
    8040:	e3a00902 	mov	r0, #32768	; 0x8000
    8044:	e3a01000 	mov	r1, #0
    8048:	e8b003fc 	ldm	r0!, {r2, r3, r4, r5, r6, r7, r8, r9}
    804c:	e8a103fc 	stmia	r1!, {r2, r3, r4, r5, r6, r7, r8, r9}
    8050:	e8b003fc 	ldm	r0!, {r2, r3, r4, r5, r6, r7, r8, r9}
    8054:	e8a103fc 	stmia	r1!, {r2, r3, r4, r5, r6, r7, r8, r9}
    8058:	e3a000d2 	mov	r0, #210	; 0xd2
    805c:	e121f000 	msr	CPSR_c, r0
    8060:	e3a0da07 	mov	sp, #28672	; 0x7000
    8064:	e3a000d3 	mov	r0, #211	; 0xd3
    8068:	e121f000 	msr	CPSR_c, r0
    806c:	e3a0d902 	mov	sp, #32768	; 0x8000
    8070:	ee111f50 	mrc	15, 0, r1, cr1, cr0, {2}
    8074:	e381160f 	orr	r1, r1, #15728640	; 0xf00000
    8078:	ee011f50 	mcr	15, 0, r1, cr1, cr0, {2}
    807c:	e3a01000 	mov	r1, #0
    8080:	ee071f95 	mcr	15, 0, r1, cr7, cr5, {4}
    8084:	e3a00101 	mov	r0, #1073741824	; 0x40000000
    8088:	eee80a10 	vmsr	fpexc, r0
    808c:	eb00009b 	bl	8300 <_cstartup>

00008090 <_inf_loop>:
    8090:	eafffffe 	b	8090 <_inf_loop>

00008094 <_get_stack_pointer>:
    8094:	e58dd000 	str	sp, [sp]
    8098:	e59d0000 	ldr	r0, [sp]
    809c:	e1a0f00e 	mov	pc, lr

000080a0 <_enable_interrupts>:
    80a0:	e10f0000 	mrs	r0, CPSR
    80a4:	e3c00080 	bic	r0, r0, #128	; 0x80
    80a8:	e121f000 	msr	CPSR_c, r0
    80ac:	e1a0f00e 	mov	pc, lr

000080b0 <_disable_interrupts>:
    80b0:	e10f0000 	mrs	r0, CPSR
    80b4:	e3800080 	orr	r0, r0, #128	; 0x80
    80b8:	e121f000 	msr	CPSR_c, r0
    80bc:	e1a0f00e 	mov	pc, lr

000080c0 <kernel_main>:
    80c0:	e52de004 	push	{lr}		; (str lr, [sp, #-4]!)
    80c4:	e24ddf41 	sub	sp, sp, #260	; 0x104
    80c8:	eb000149 	bl	85f4 <RPI_GetGpio>
    80cc:	e5903004 	ldr	r3, [r0, #4]
    80d0:	e3833012 	orr	r3, r3, #18
    80d4:	e5803004 	str	r3, [r0, #4]
    80d8:	eb000145 	bl	85f4 <RPI_GetGpio>
    80dc:	e5903058 	ldr	r3, [r0, #88]	; 0x58
    80e0:	e3833502 	orr	r3, r3, #8388608	; 0x800000
    80e4:	e5803058 	str	r3, [r0, #88]	; 0x58
    80e8:	eb000141 	bl	85f4 <RPI_GetGpio>
    80ec:	e3a03502 	mov	r3, #8388608	; 0x800000
    80f0:	e5803040 	str	r3, [r0, #64]	; 0x40
    80f4:	eb00013e 	bl	85f4 <RPI_GetGpio>
    80f8:	e5903058 	ldr	r3, [r0, #88]	; 0x58
    80fc:	e3833401 	orr	r3, r3, #16777216	; 0x1000000
    8100:	e5803058 	str	r3, [r0, #88]	; 0x58
    8104:	eb00013a 	bl	85f4 <RPI_GetGpio>
    8108:	e3a03401 	mov	r3, #16777216	; 0x1000000
    810c:	e5803040 	str	r3, [r0, #64]	; 0x40
    8110:	eb000137 	bl	85f4 <RPI_GetGpio>
    8114:	e590304c 	ldr	r3, [r0, #76]	; 0x4c
    8118:	e3833402 	orr	r3, r3, #33554432	; 0x2000000
    811c:	e580304c 	str	r3, [r0, #76]	; 0x4c
    8120:	eb000133 	bl	85f4 <RPI_GetGpio>
    8124:	e3a03402 	mov	r3, #33554432	; 0x2000000
    8128:	e5803040 	str	r3, [r0, #64]	; 0x40
    812c:	eb0001a5 	bl	87c8 <RPI_GetIrqController>
    8130:	e3a03802 	mov	r3, #131072	; 0x20000
    8134:	e5803014 	str	r3, [r0, #20]
    8138:	eb0000db 	bl	84ac <RPI_GetArmTimer>
    813c:	e3a03b01 	mov	r3, #1024	; 0x400
    8140:	e5803000 	str	r3, [r0]
    8144:	eb0000d8 	bl	84ac <RPI_GetArmTimer>
    8148:	e3a030aa 	mov	r3, #170	; 0xaa
    814c:	e5803008 	str	r3, [r0, #8]
    8150:	ebffffd2 	bl	80a0 <_enable_interrupts>
    8154:	e3a00ce1 	mov	r0, #57600	; 0xe100
    8158:	e3a01008 	mov	r1, #8
    815c:	eb0000d9 	bl	84c8 <RPI_AuxMiniUartInit>
    8160:	eb000200 	bl	8968 <spi_begin>
    8164:	e59f0164 	ldr	r0, [pc, #356]	; 82d0 <kernel_main+0x210>
    8168:	eb00040b 	bl	919c <puts>
    816c:	e59f0160 	ldr	r0, [pc, #352]	; 82d4 <kernel_main+0x214>
    8170:	eb000409 	bl	919c <puts>
    8174:	e59f015c 	ldr	r0, [pc, #348]	; 82d8 <kernel_main+0x218>
    8178:	eb000407 	bl	919c <puts>
    817c:	e3a00001 	mov	r0, #1
    8180:	e59f3154 	ldr	r3, [pc, #340]	; 82dc <kernel_main+0x21c>
    8184:	e5931000 	ldr	r1, [r3]
    8188:	eb000287 	bl	8bac <sendString>
    818c:	e3a00001 	mov	r0, #1
    8190:	e3a01000 	mov	r1, #0
    8194:	eb00025c 	bl	8b0c <sendByte>
    8198:	e59f0140 	ldr	r0, [pc, #320]	; 82e0 <kernel_main+0x220>
    819c:	eb0003fe 	bl	919c <puts>
    81a0:	e3a00002 	mov	r0, #2
    81a4:	eb00026c 	bl	8b5c <receiveByte>
    81a8:	e59f0134 	ldr	r0, [pc, #308]	; 82e4 <kernel_main+0x224>
    81ac:	eb0003fa 	bl	919c <puts>
    81b0:	e59f0130 	ldr	r0, [pc, #304]	; 82e8 <kernel_main+0x228>
    81b4:	eb00044a 	bl	92e4 <setjmp>
    81b8:	e3a00001 	mov	r0, #1
    81bc:	e59f1128 	ldr	r1, [pc, #296]	; 82ec <kernel_main+0x22c>
    81c0:	eb000279 	bl	8bac <sendString>
    81c4:	e3a00002 	mov	r0, #2
    81c8:	e3a0100a 	mov	r1, #10
    81cc:	eb00024e 	bl	8b0c <sendByte>
    81d0:	e3a00002 	mov	r0, #2
    81d4:	e3a0107f 	mov	r1, #127	; 0x7f
    81d8:	eb00024b 	bl	8b0c <sendByte>
    81dc:	e3a00002 	mov	r0, #2
    81e0:	e3a01020 	mov	r1, #32
    81e4:	eb000248 	bl	8b0c <sendByte>
    81e8:	e3a00002 	mov	r0, #2
    81ec:	e3a0107f 	mov	r1, #127	; 0x7f
    81f0:	eb000245 	bl	8b0c <sendByte>
    81f4:	e3a00002 	mov	r0, #2
    81f8:	e3a01007 	mov	r1, #7
    81fc:	eb000242 	bl	8b0c <sendByte>
    8200:	e3a00002 	mov	r0, #2
    8204:	e3a01000 	mov	r1, #0
    8208:	eb00023f 	bl	8b0c <sendByte>
    820c:	e3a00002 	mov	r0, #2
    8210:	eb000251 	bl	8b5c <receiveByte>
    8214:	e3100080 	tst	r0, #128	; 0x80
    8218:	0a000014 	beq	8270 <kernel_main+0x1b0>
    821c:	e3a00001 	mov	r0, #1
    8220:	e59f10c8 	ldr	r1, [pc, #200]	; 82f0 <kernel_main+0x230>
    8224:	eb000260 	bl	8bac <sendString>
    8228:	e59f20c4 	ldr	r2, [pc, #196]	; 82f4 <kernel_main+0x234>
    822c:	e5d23000 	ldrb	r3, [r2]
    8230:	e31300ff 	tst	r3, #255	; 0xff
    8234:	0affffdd 	beq	81b0 <kernel_main+0xf0>
    8238:	e59f00b8 	ldr	r0, [pc, #184]	; 82f8 <kernel_main+0x238>
    823c:	eb0003d6 	bl	919c <puts>
    8240:	e3a00002 	mov	r0, #2
    8244:	e3a01004 	mov	r1, #4
    8248:	eb00022f 	bl	8b0c <sendByte>
    824c:	e3a00002 	mov	r0, #2
    8250:	e3a01000 	mov	r1, #0
    8254:	eb00022c 	bl	8b0c <sendByte>
    8258:	e3a00002 	mov	r0, #2
    825c:	e3a0107e 	mov	r1, #126	; 0x7e
    8260:	eb000229 	bl	8b0c <sendByte>
    8264:	e3a00002 	mov	r0, #2
    8268:	eb00023b 	bl	8b5c <receiveByte>
    826c:	eaffffcf 	b	81b0 <kernel_main+0xf0>
    8270:	e3a00002 	mov	r0, #2
    8274:	e3a0100d 	mov	r1, #13
    8278:	e1a0200d 	mov	r2, sp
    827c:	eb000258 	bl	8be4 <receiveString>
    8280:	e1a0000d 	mov	r0, sp
    8284:	e59f1070 	ldr	r1, [pc, #112]	; 82fc <kernel_main+0x23c>
    8288:	eb000420 	bl	9310 <strcasecmp>
    828c:	e3500000 	cmp	r0, #0
    8290:	0a00000b 	beq	82c4 <kernel_main+0x204>
    8294:	e3a00002 	mov	r0, #2
    8298:	e1a01000 	mov	r1, r0
    829c:	eb00021a 	bl	8b0c <sendByte>
    82a0:	e3a00002 	mov	r0, #2
    82a4:	e1a0100d 	mov	r1, sp
    82a8:	eb00023f 	bl	8bac <sendString>
    82ac:	e3a00002 	mov	r0, #2
    82b0:	e3a0100d 	mov	r1, #13
    82b4:	eb000214 	bl	8b0c <sendByte>
    82b8:	e3a00002 	mov	r0, #2
    82bc:	eb000226 	bl	8b5c <receiveByte>
    82c0:	eaffffba 	b	81b0 <kernel_main+0xf0>
    82c4:	eb0001e1 	bl	8a50 <spi_end>
    82c8:	e28ddf41 	add	sp, sp, #260	; 0x104
    82cc:	e49df004 	pop	{pc}		; (ldr pc, [sp], #4)
    82d0:	00012560 	.word	0x00012560
    82d4:	00012580 	.word	0x00012580
    82d8:	000125ac 	.word	0x000125ac
    82dc:	000129f8 	.word	0x000129f8
    82e0:	000125bc 	.word	0x000125bc
    82e4:	000125dc 	.word	0x000125dc
    82e8:	00013318 	.word	0x00013318
    82ec:	000125f0 	.word	0x000125f0
    82f0:	000125f8 	.word	0x000125f8
    82f4:	00013475 	.word	0x00013475
    82f8:	00012604 	.word	0x00012604
    82fc:	0001261c 	.word	0x0001261c

00008300 <_cstartup>:
    8300:	e92d4008 	push	{r3, lr}
    8304:	e59f3038 	ldr	r3, [pc, #56]	; 8344 <_cstartup+0x44>
    8308:	e59fc038 	ldr	ip, [pc, #56]	; 8348 <_cstartup+0x48>
    830c:	e15c0003 	cmp	ip, r3
    8310:	2a000009 	bcs	833c <_cstartup+0x3c>
    8314:	e24c3004 	sub	r3, ip, #4
    8318:	e59fe02c 	ldr	lr, [pc, #44]	; 834c <_cstartup+0x4c>
    831c:	e063e00e 	rsb	lr, r3, lr
    8320:	e3cee003 	bic	lr, lr, #3
    8324:	e283c004 	add	ip, r3, #4
    8328:	e08ee00c 	add	lr, lr, ip
    832c:	e3a0c000 	mov	ip, #0
    8330:	e5a3c004 	str	ip, [r3, #4]!
    8334:	e153000e 	cmp	r3, lr
    8338:	1afffffc 	bne	8330 <_cstartup+0x30>
    833c:	ebffff5f 	bl	80c0 <kernel_main>
    8340:	eafffffe 	b	8340 <_cstartup+0x40>
    8344:	0001347c 	.word	0x0001347c
    8348:	000132c4 	.word	0x000132c4
    834c:	00013477 	.word	0x00013477

00008350 <_exit>:
    8350:	eafffffe 	b	8350 <_exit>

00008354 <_close>:
    8354:	e3e00000 	mvn	r0, #0
    8358:	e12fff1e 	bx	lr

0000835c <execve>:
    835c:	e3a0200c 	mov	r2, #12
    8360:	e59f3008 	ldr	r3, [pc, #8]	; 8370 <execve+0x14>
    8364:	e5832000 	str	r2, [r3]
    8368:	e3e00000 	mvn	r0, #0
    836c:	e12fff1e 	bx	lr
    8370:	00013478 	.word	0x00013478

00008374 <fork>:
    8374:	e3a0200b 	mov	r2, #11
    8378:	e59f3008 	ldr	r3, [pc, #8]	; 8388 <fork+0x14>
    837c:	e5832000 	str	r2, [r3]
    8380:	e3e00000 	mvn	r0, #0
    8384:	e12fff1e 	bx	lr
    8388:	00013478 	.word	0x00013478

0000838c <_fstat>:
    838c:	e3a03a02 	mov	r3, #8192	; 0x2000
    8390:	e5813004 	str	r3, [r1, #4]
    8394:	e3a00000 	mov	r0, #0
    8398:	e12fff1e 	bx	lr

0000839c <getpid>:
    839c:	e3a00001 	mov	r0, #1
    83a0:	e12fff1e 	bx	lr

000083a4 <_isatty>:
    83a4:	e3a00001 	mov	r0, #1
    83a8:	e12fff1e 	bx	lr

000083ac <kill>:
    83ac:	e3a02016 	mov	r2, #22
    83b0:	e59f3008 	ldr	r3, [pc, #8]	; 83c0 <kill+0x14>
    83b4:	e5832000 	str	r2, [r3]
    83b8:	e3e00000 	mvn	r0, #0
    83bc:	e12fff1e 	bx	lr
    83c0:	00013478 	.word	0x00013478

000083c4 <link>:
    83c4:	e3a0201f 	mov	r2, #31
    83c8:	e59f3008 	ldr	r3, [pc, #8]	; 83d8 <link+0x14>
    83cc:	e5832000 	str	r2, [r3]
    83d0:	e3e00000 	mvn	r0, #0
    83d4:	e12fff1e 	bx	lr
    83d8:	00013478 	.word	0x00013478

000083dc <_lseek>:
    83dc:	e3a00000 	mov	r0, #0
    83e0:	e12fff1e 	bx	lr

000083e4 <open>:
    83e4:	e3e00000 	mvn	r0, #0
    83e8:	e12fff1e 	bx	lr

000083ec <_read>:
    83ec:	e3a00000 	mov	r0, #0
    83f0:	e12fff1e 	bx	lr

000083f4 <_sbrk>:
    83f4:	e59f3028 	ldr	r3, [pc, #40]	; 8424 <_sbrk+0x30>
    83f8:	e5933000 	ldr	r3, [r3]
    83fc:	e3530000 	cmp	r3, #0
    8400:	059f2020 	ldreq	r2, [pc, #32]	; 8428 <_sbrk+0x34>
    8404:	059f3018 	ldreq	r3, [pc, #24]	; 8424 <_sbrk+0x30>
    8408:	05832000 	streq	r2, [r3]
    840c:	e59f2010 	ldr	r2, [pc, #16]	; 8424 <_sbrk+0x30>
    8410:	e5923000 	ldr	r3, [r2]
    8414:	e0830000 	add	r0, r3, r0
    8418:	e5820000 	str	r0, [r2]
    841c:	e1a00003 	mov	r0, r3
    8420:	e12fff1e 	bx	lr
    8424:	000132c4 	.word	0x000132c4
    8428:	0001347c 	.word	0x0001347c

0000842c <stat>:
    842c:	e3a03a02 	mov	r3, #8192	; 0x2000
    8430:	e5813004 	str	r3, [r1, #4]
    8434:	e3a00000 	mov	r0, #0
    8438:	e12fff1e 	bx	lr

0000843c <times>:
    843c:	e3e00000 	mvn	r0, #0
    8440:	e12fff1e 	bx	lr

00008444 <unlink>:
    8444:	e3a02002 	mov	r2, #2
    8448:	e59f3008 	ldr	r3, [pc, #8]	; 8458 <unlink+0x14>
    844c:	e5832000 	str	r2, [r3]
    8450:	e3e00000 	mvn	r0, #0
    8454:	e12fff1e 	bx	lr
    8458:	00013478 	.word	0x00013478

0000845c <wait>:
    845c:	e3a0200a 	mov	r2, #10
    8460:	e59f3008 	ldr	r3, [pc, #8]	; 8470 <wait+0x14>
    8464:	e5832000 	str	r2, [r3]
    8468:	e3e00000 	mvn	r0, #0
    846c:	e12fff1e 	bx	lr
    8470:	00013478 	.word	0x00013478

00008474 <outbyte>:
    8474:	e92d4008 	push	{r3, lr}
    8478:	eb000055 	bl	85d4 <RPI_AuxMiniUartWrite>
    847c:	e8bd8008 	pop	{r3, pc}

00008480 <_write>:
    8480:	e92d4070 	push	{r4, r5, r6, lr}
    8484:	e1a04001 	mov	r4, r1
    8488:	e2526000 	subs	r6, r2, #0
    848c:	da000004 	ble	84a4 <_write+0x24>
    8490:	e0815006 	add	r5, r1, r6
    8494:	e4d40001 	ldrb	r0, [r4], #1
    8498:	eb00004d 	bl	85d4 <RPI_AuxMiniUartWrite>
    849c:	e1540005 	cmp	r4, r5
    84a0:	1afffffb 	bne	8494 <_write+0x14>
    84a4:	e1a00006 	mov	r0, r6
    84a8:	e8bd8070 	pop	{r4, r5, r6, pc}

000084ac <RPI_GetArmTimer>:
    84ac:	e59f0000 	ldr	r0, [pc]	; 84b4 <RPI_GetArmTimer+0x8>
    84b0:	e12fff1e 	bx	lr
    84b4:	2000b400 	.word	0x2000b400

000084b8 <RPI_ArmTimerInit>:
    84b8:	e12fff1e 	bx	lr

000084bc <RPI_GetAux>:
    84bc:	e59f0000 	ldr	r0, [pc]	; 84c4 <RPI_GetAux+0x8>
    84c0:	e12fff1e 	bx	lr
    84c4:	20215000 	.word	0x20215000

000084c8 <RPI_AuxMiniUartInit>:
    84c8:	e92d4030 	push	{r4, r5, lr}
    84cc:	e24dd00c 	sub	sp, sp, #12
    84d0:	e1a0c000 	mov	ip, r0
    84d4:	e59f30f0 	ldr	r3, [pc, #240]	; 85cc <RPI_AuxMiniUartInit+0x104>
    84d8:	e3a02001 	mov	r2, #1
    84dc:	e5832004 	str	r2, [r3, #4]
    84e0:	e3a02000 	mov	r2, #0
    84e4:	e5832044 	str	r2, [r3, #68]	; 0x44
    84e8:	e5832060 	str	r2, [r3, #96]	; 0x60
    84ec:	e3510008 	cmp	r1, #8
    84f0:	03a02003 	moveq	r2, #3
    84f4:	13a02000 	movne	r2, #0
    84f8:	159f30cc 	ldrne	r3, [pc, #204]	; 85cc <RPI_AuxMiniUartInit+0x104>
    84fc:	e583204c 	str	r2, [r3, #76]	; 0x4c
    8500:	e59f50c4 	ldr	r5, [pc, #196]	; 85cc <RPI_AuxMiniUartInit+0x104>
    8504:	e3a04000 	mov	r4, #0
    8508:	e5854050 	str	r4, [r5, #80]	; 0x50
    850c:	e5854044 	str	r4, [r5, #68]	; 0x44
    8510:	e3a030c6 	mov	r3, #198	; 0xc6
    8514:	e5853048 	str	r3, [r5, #72]	; 0x48
    8518:	e59f00b0 	ldr	r0, [pc, #176]	; 85d0 <RPI_AuxMiniUartInit+0x108>
    851c:	e1a0118c 	lsl	r1, ip, #3
    8520:	eb000288 	bl	8f48 <__aeabi_idiv>
    8524:	e2400001 	sub	r0, r0, #1
    8528:	e5850068 	str	r0, [r5, #104]	; 0x68
    852c:	e3a0000e 	mov	r0, #14
    8530:	e3a01002 	mov	r1, #2
    8534:	eb000031 	bl	8600 <RPI_SetGpioPinFunction>
    8538:	e3a0000f 	mov	r0, #15
    853c:	e3a01002 	mov	r1, #2
    8540:	eb00002e 	bl	8600 <RPI_SetGpioPinFunction>
    8544:	eb00002a 	bl	85f4 <RPI_GetGpio>
    8548:	e5804094 	str	r4, [r0, #148]	; 0x94
    854c:	e58d4004 	str	r4, [sp, #4]
    8550:	e59d3004 	ldr	r3, [sp, #4]
    8554:	e3530095 	cmp	r3, #149	; 0x95
    8558:	ca000005 	bgt	8574 <RPI_AuxMiniUartInit+0xac>
    855c:	e59d3004 	ldr	r3, [sp, #4]
    8560:	e2833001 	add	r3, r3, #1
    8564:	e58d3004 	str	r3, [sp, #4]
    8568:	e59d3004 	ldr	r3, [sp, #4]
    856c:	e3530095 	cmp	r3, #149	; 0x95
    8570:	dafffff9 	ble	855c <RPI_AuxMiniUartInit+0x94>
    8574:	eb00001e 	bl	85f4 <RPI_GetGpio>
    8578:	e3a03901 	mov	r3, #16384	; 0x4000
    857c:	e5803098 	str	r3, [r0, #152]	; 0x98
    8580:	e3a03000 	mov	r3, #0
    8584:	e58d3004 	str	r3, [sp, #4]
    8588:	e59d3004 	ldr	r3, [sp, #4]
    858c:	e3530095 	cmp	r3, #149	; 0x95
    8590:	ca000005 	bgt	85ac <RPI_AuxMiniUartInit+0xe4>
    8594:	e59d3004 	ldr	r3, [sp, #4]
    8598:	e2833001 	add	r3, r3, #1
    859c:	e58d3004 	str	r3, [sp, #4]
    85a0:	e59d3004 	ldr	r3, [sp, #4]
    85a4:	e3530095 	cmp	r3, #149	; 0x95
    85a8:	dafffff9 	ble	8594 <RPI_AuxMiniUartInit+0xcc>
    85ac:	eb000010 	bl	85f4 <RPI_GetGpio>
    85b0:	e3a03000 	mov	r3, #0
    85b4:	e5803098 	str	r3, [r0, #152]	; 0x98
    85b8:	e3a02002 	mov	r2, #2
    85bc:	e59f3008 	ldr	r3, [pc, #8]	; 85cc <RPI_AuxMiniUartInit+0x104>
    85c0:	e5832060 	str	r2, [r3, #96]	; 0x60
    85c4:	e28dd00c 	add	sp, sp, #12
    85c8:	e8bd8030 	pop	{r4, r5, pc}
    85cc:	20215000 	.word	0x20215000
    85d0:	0ee6b280 	.word	0x0ee6b280

000085d4 <RPI_AuxMiniUartWrite>:
    85d4:	e59f2014 	ldr	r2, [pc, #20]	; 85f0 <RPI_AuxMiniUartWrite+0x1c>
    85d8:	e5923054 	ldr	r3, [r2, #84]	; 0x54
    85dc:	e3130020 	tst	r3, #32
    85e0:	0afffffc 	beq	85d8 <RPI_AuxMiniUartWrite+0x4>
    85e4:	e59f3004 	ldr	r3, [pc, #4]	; 85f0 <RPI_AuxMiniUartWrite+0x1c>
    85e8:	e5830040 	str	r0, [r3, #64]	; 0x40
    85ec:	e12fff1e 	bx	lr
    85f0:	20215000 	.word	0x20215000

000085f4 <RPI_GetGpio>:
    85f4:	e59f0000 	ldr	r0, [pc]	; 85fc <RPI_GetGpio+0x8>
    85f8:	e12fff1e 	bx	lr
    85fc:	20200000 	.word	0x20200000

00008600 <RPI_SetGpioPinFunction>:
    8600:	e24dd008 	sub	sp, sp, #8
    8604:	e59f3054 	ldr	r3, [pc, #84]	; 8660 <RPI_SetGpioPinFunction+0x60>
    8608:	e0832093 	umull	r2, r3, r3, r0
    860c:	e1a031a3 	lsr	r3, r3, #3
    8610:	e1a02103 	lsl	r2, r3, #2
    8614:	e2822202 	add	r2, r2, #536870912	; 0x20000000
    8618:	e2822602 	add	r2, r2, #2097152	; 0x200000
    861c:	e592c000 	ldr	ip, [r2]
    8620:	e58dc004 	str	ip, [sp, #4]
    8624:	e0833103 	add	r3, r3, r3, lsl #2
    8628:	e0403083 	sub	r3, r0, r3, lsl #1
    862c:	e6ef3073 	uxtb	r3, r3
    8630:	e0833083 	add	r3, r3, r3, lsl #1
    8634:	e59d0004 	ldr	r0, [sp, #4]
    8638:	e3a0c007 	mov	ip, #7
    863c:	e1c0031c 	bic	r0, r0, ip, lsl r3
    8640:	e58d0004 	str	r0, [sp, #4]
    8644:	e59d0004 	ldr	r0, [sp, #4]
    8648:	e1801311 	orr	r1, r0, r1, lsl r3
    864c:	e58d1004 	str	r1, [sp, #4]
    8650:	e59d3004 	ldr	r3, [sp, #4]
    8654:	e5823000 	str	r3, [r2]
    8658:	e28dd008 	add	sp, sp, #8
    865c:	e12fff1e 	bx	lr
    8660:	cccccccd 	.word	0xcccccccd

00008664 <RPI_SetGpioOutput>:
    8664:	e92d4008 	push	{r3, lr}
    8668:	e3a01001 	mov	r1, #1
    866c:	ebffffe3 	bl	8600 <RPI_SetGpioPinFunction>
    8670:	e8bd8008 	pop	{r3, pc}

00008674 <RPI_SetGpioInput>:
    8674:	e92d4008 	push	{r3, lr}
    8678:	e3a01000 	mov	r1, #0
    867c:	ebffffdf 	bl	8600 <RPI_SetGpioPinFunction>
    8680:	e8bd8008 	pop	{r3, pc}

00008684 <RPI_GetGpioValue>:
    8684:	e1b032a0 	lsrs	r3, r0, #5
    8688:	0a000002 	beq	8698 <RPI_GetGpioValue+0x14>
    868c:	e3530001 	cmp	r3, #1
    8690:	0a000006 	beq	86b0 <RPI_GetGpioValue+0x2c>
    8694:	ea00000c 	b	86cc <RPI_GetGpioValue+0x48>
    8698:	e59f3040 	ldr	r3, [pc, #64]	; 86e0 <RPI_GetGpioValue+0x5c>
    869c:	e5933034 	ldr	r3, [r3, #52]	; 0x34
    86a0:	e3a02001 	mov	r2, #1
    86a4:	e0030012 	and	r0, r3, r2, lsl r0
    86a8:	e6ef0070 	uxtb	r0, r0
    86ac:	ea000007 	b	86d0 <RPI_GetGpioValue+0x4c>
    86b0:	e59f3028 	ldr	r3, [pc, #40]	; 86e0 <RPI_GetGpioValue+0x5c>
    86b4:	e5933038 	ldr	r3, [r3, #56]	; 0x38
    86b8:	e2400020 	sub	r0, r0, #32
    86bc:	e3a02001 	mov	r2, #1
    86c0:	e0030012 	and	r0, r3, r2, lsl r0
    86c4:	e6ef0070 	uxtb	r0, r0
    86c8:	ea000000 	b	86d0 <RPI_GetGpioValue+0x4c>
    86cc:	e3a00004 	mov	r0, #4
    86d0:	e20030fb 	and	r3, r0, #251	; 0xfb
    86d4:	e3530000 	cmp	r3, #0
    86d8:	13a00001 	movne	r0, #1
    86dc:	e12fff1e 	bx	lr
    86e0:	20200000 	.word	0x20200000

000086e4 <RPI_SetGpioHi>:
    86e4:	e1b032a0 	lsrs	r3, r0, #5
    86e8:	0a000002 	beq	86f8 <RPI_SetGpioHi+0x14>
    86ec:	e3530001 	cmp	r3, #1
    86f0:	112fff1e 	bxne	lr
    86f4:	ea000004 	b	870c <RPI_SetGpioHi+0x28>
    86f8:	e3a03001 	mov	r3, #1
    86fc:	e1a00013 	lsl	r0, r3, r0
    8700:	e59f301c 	ldr	r3, [pc, #28]	; 8724 <RPI_SetGpioHi+0x40>
    8704:	e583001c 	str	r0, [r3, #28]
    8708:	e12fff1e 	bx	lr
    870c:	e2400020 	sub	r0, r0, #32
    8710:	e3a03001 	mov	r3, #1
    8714:	e1a00013 	lsl	r0, r3, r0
    8718:	e59f3004 	ldr	r3, [pc, #4]	; 8724 <RPI_SetGpioHi+0x40>
    871c:	e5830020 	str	r0, [r3, #32]
    8720:	e12fff1e 	bx	lr
    8724:	20200000 	.word	0x20200000

00008728 <RPI_SetGpioLo>:
    8728:	e1b032a0 	lsrs	r3, r0, #5
    872c:	0a000002 	beq	873c <RPI_SetGpioLo+0x14>
    8730:	e3530001 	cmp	r3, #1
    8734:	112fff1e 	bxne	lr
    8738:	ea000004 	b	8750 <RPI_SetGpioLo+0x28>
    873c:	e3a03001 	mov	r3, #1
    8740:	e1a00013 	lsl	r0, r3, r0
    8744:	e59f301c 	ldr	r3, [pc, #28]	; 8768 <RPI_SetGpioLo+0x40>
    8748:	e5830028 	str	r0, [r3, #40]	; 0x28
    874c:	e12fff1e 	bx	lr
    8750:	e2400020 	sub	r0, r0, #32
    8754:	e3a03001 	mov	r3, #1
    8758:	e1a00013 	lsl	r0, r3, r0
    875c:	e59f3004 	ldr	r3, [pc, #4]	; 8768 <RPI_SetGpioLo+0x40>
    8760:	e583002c 	str	r0, [r3, #44]	; 0x2c
    8764:	e12fff1e 	bx	lr
    8768:	20200000 	.word	0x20200000

0000876c <RPI_ToggleGpio>:
    876c:	e92d4010 	push	{r4, lr}
    8770:	e1a04000 	mov	r4, r0
    8774:	ebffffc2 	bl	8684 <RPI_GetGpioValue>
    8778:	e3500000 	cmp	r0, #0
    877c:	0a000002 	beq	878c <RPI_ToggleGpio+0x20>
    8780:	e1a00004 	mov	r0, r4
    8784:	ebffffe7 	bl	8728 <RPI_SetGpioLo>
    8788:	e8bd8010 	pop	{r4, pc}
    878c:	e1a00004 	mov	r0, r4
    8790:	ebffffd3 	bl	86e4 <RPI_SetGpioHi>
    8794:	e8bd8010 	pop	{r4, pc}

00008798 <RPI_SetGpioValue>:
    8798:	e92d4008 	push	{r3, lr}
    879c:	e3510000 	cmp	r1, #0
    87a0:	13510003 	cmpne	r1, #3
    87a4:	1a000001 	bne	87b0 <RPI_SetGpioValue+0x18>
    87a8:	ebffffde 	bl	8728 <RPI_SetGpioLo>
    87ac:	e8bd8008 	pop	{r3, pc}
    87b0:	e2411001 	sub	r1, r1, #1
    87b4:	e6ef1071 	uxtb	r1, r1
    87b8:	e3510001 	cmp	r1, #1
    87bc:	88bd8008 	pophi	{r3, pc}
    87c0:	ebffffc7 	bl	86e4 <RPI_SetGpioHi>
    87c4:	e8bd8008 	pop	{r3, pc}

000087c8 <RPI_GetIrqController>:
    87c8:	e59f0000 	ldr	r0, [pc]	; 87d0 <RPI_GetIrqController+0x8>
    87cc:	e12fff1e 	bx	lr
    87d0:	2000b200 	.word	0x2000b200

000087d4 <reset_vector>:
    87d4:	e92d503f 	push	{r0, r1, r2, r3, r4, r5, ip, lr}
    87d8:	e3a04801 	mov	r4, #65536	; 0x10000
    87dc:	ebffff84 	bl	85f4 <RPI_GetGpio>
    87e0:	e580401c 	str	r4, [r0, #28]
    87e4:	eafffffc 	b	87dc <reset_vector+0x8>

000087e8 <undefined_instruction_vector>:
    87e8:	e92d503f 	push	{r0, r1, r2, r3, r4, r5, ip, lr}
    87ec:	e3a04801 	mov	r4, #65536	; 0x10000
    87f0:	ebffff7f 	bl	85f4 <RPI_GetGpio>
    87f4:	e580401c 	str	r4, [r0, #28]
    87f8:	eafffffc 	b	87f0 <undefined_instruction_vector+0x8>

000087fc <software_interrupt_vector>:
    87fc:	e92d503f 	push	{r0, r1, r2, r3, r4, r5, ip, lr}
    8800:	e3a04801 	mov	r4, #65536	; 0x10000
    8804:	ebffff7a 	bl	85f4 <RPI_GetGpio>
    8808:	e580401c 	str	r4, [r0, #28]
    880c:	eafffffc 	b	8804 <software_interrupt_vector+0x8>

00008810 <prefetch_abort_vector>:
    8810:	e92d503f 	push	{r0, r1, r2, r3, r4, r5, ip, lr}
    8814:	e3a04801 	mov	r4, #65536	; 0x10000
    8818:	ebffff75 	bl	85f4 <RPI_GetGpio>
    881c:	e580401c 	str	r4, [r0, #28]
    8820:	eafffffc 	b	8818 <prefetch_abort_vector+0x8>

00008824 <data_abort_vector>:
    8824:	e92d503f 	push	{r0, r1, r2, r3, r4, r5, ip, lr}
    8828:	e3a04801 	mov	r4, #65536	; 0x10000
    882c:	ebffff70 	bl	85f4 <RPI_GetGpio>
    8830:	e580401c 	str	r4, [r0, #28]
    8834:	eafffffc 	b	882c <data_abort_vector+0x8>

00008838 <interrupt_vector>:
    8838:	e24ee004 	sub	lr, lr, #4
    883c:	e92d500f 	push	{r0, r1, r2, r3, ip, lr}
    8840:	ebffff6b 	bl	85f4 <RPI_GetGpio>
    8844:	e5903040 	ldr	r3, [r0, #64]	; 0x40
    8848:	e3130402 	tst	r3, #33554432	; 0x2000000
    884c:	0a000003 	beq	8860 <interrupt_vector+0x28>
    8850:	ebffff67 	bl	85f4 <RPI_GetGpio>
    8854:	e3a03402 	mov	r3, #33554432	; 0x2000000
    8858:	e5803040 	str	r3, [r0, #64]	; 0x40
    885c:	ebfffde7 	bl	8000 <_start>
    8860:	ebffff11 	bl	84ac <RPI_GetArmTimer>
    8864:	e3a03001 	mov	r3, #1
    8868:	e580300c 	str	r3, [r0, #12]
    886c:	e59f3078 	ldr	r3, [pc, #120]	; 88ec <interrupt_vector+0xb4>
    8870:	e5933000 	ldr	r3, [r3]
    8874:	e3530000 	cmp	r3, #0
    8878:	0a000006 	beq	8898 <interrupt_vector+0x60>
    887c:	ebffff5c 	bl	85f4 <RPI_GetGpio>
    8880:	e3a03801 	mov	r3, #65536	; 0x10000
    8884:	e5803028 	str	r3, [r0, #40]	; 0x28
    8888:	e3a02000 	mov	r2, #0
    888c:	e59f3058 	ldr	r3, [pc, #88]	; 88ec <interrupt_vector+0xb4>
    8890:	e5832000 	str	r2, [r3]
    8894:	ea000005 	b	88b0 <interrupt_vector+0x78>
    8898:	ebffff55 	bl	85f4 <RPI_GetGpio>
    889c:	e3a03801 	mov	r3, #65536	; 0x10000
    88a0:	e580301c 	str	r3, [r0, #28]
    88a4:	e3a02001 	mov	r2, #1
    88a8:	e59f303c 	ldr	r3, [pc, #60]	; 88ec <interrupt_vector+0xb4>
    88ac:	e5832000 	str	r2, [r3]
    88b0:	ebffff4f 	bl	85f4 <RPI_GetGpio>
    88b4:	e5903040 	ldr	r3, [r0, #64]	; 0x40
    88b8:	e3130502 	tst	r3, #8388608	; 0x800000
    88bc:	0a000003 	beq	88d0 <interrupt_vector+0x98>
    88c0:	ebffff4b 	bl	85f4 <RPI_GetGpio>
    88c4:	e3a03502 	mov	r3, #8388608	; 0x800000
    88c8:	e5803040 	str	r3, [r0, #64]	; 0x40
    88cc:	eb0000d5 	bl	8c28 <TubeInterrupt>
    88d0:	ebffff47 	bl	85f4 <RPI_GetGpio>
    88d4:	e5903040 	ldr	r3, [r0, #64]	; 0x40
    88d8:	e3130401 	tst	r3, #16777216	; 0x1000000
    88dc:	08fd900f 	ldmeq	sp!, {r0, r1, r2, r3, ip, pc}^
    88e0:	e59f0008 	ldr	r0, [pc, #8]	; 88f0 <interrupt_vector+0xb8>
    88e4:	eb00022c 	bl	919c <puts>
    88e8:	e8fd900f 	ldm	sp!, {r0, r1, r2, r3, ip, pc}^
    88ec:	000132cc 	.word	0x000132cc
    88f0:	00012650 	.word	0x00012650

000088f4 <fast_interrupt_vector>:
    88f4:	e25ef004 	subs	pc, lr, #4

000088f8 <RPI_GetSystemTimer>:
    88f8:	e59f0000 	ldr	r0, [pc]	; 8900 <RPI_GetSystemTimer+0x8>
    88fc:	e12fff1e 	bx	lr
    8900:	20003000 	.word	0x20003000

00008904 <RPI_WaitMicroSeconds>:
    8904:	e24dd008 	sub	sp, sp, #8
    8908:	e59f3024 	ldr	r3, [pc, #36]	; 8934 <RPI_WaitMicroSeconds+0x30>
    890c:	e5933004 	ldr	r3, [r3, #4]
    8910:	e58d3004 	str	r3, [sp, #4]
    8914:	e59f1018 	ldr	r1, [pc, #24]	; 8934 <RPI_WaitMicroSeconds+0x30>
    8918:	e5912004 	ldr	r2, [r1, #4]
    891c:	e59d3004 	ldr	r3, [sp, #4]
    8920:	e0633002 	rsb	r3, r3, r2
    8924:	e1530000 	cmp	r3, r0
    8928:	3afffffa 	bcc	8918 <RPI_WaitMicroSeconds+0x14>
    892c:	e28dd008 	add	sp, sp, #8
    8930:	e12fff1e 	bx	lr
    8934:	20003000 	.word	0x20003000

00008938 <spi_pin_init>:
    8938:	e59f3024 	ldr	r3, [pc, #36]	; 8964 <spi_pin_init+0x2c>
    893c:	e5932004 	ldr	r2, [r3, #4]
    8940:	e3c2203f 	bic	r2, r2, #63	; 0x3f
    8944:	e3822024 	orr	r2, r2, #36	; 0x24
    8948:	e5832004 	str	r2, [r3, #4]
    894c:	e5932000 	ldr	r2, [r3]
    8950:	e3c225ff 	bic	r2, r2, #1069547520	; 0x3fc00000
    8954:	e3c22602 	bic	r2, r2, #2097152	; 0x200000
    8958:	e3822592 	orr	r2, r2, #612368384	; 0x24800000
    895c:	e5832000 	str	r2, [r3]
    8960:	e12fff1e 	bx	lr
    8964:	20200000 	.word	0x20200000

00008968 <spi_begin>:
    8968:	e92d4008 	push	{r3, lr}
    896c:	ebfffff1 	bl	8938 <spi_pin_init>
    8970:	e59f3040 	ldr	r3, [pc, #64]	; 89b8 <spi_begin+0x50>
    8974:	e3a02000 	mov	r2, #0
    8978:	e5832000 	str	r2, [r3]
    897c:	e5932000 	ldr	r2, [r3]
    8980:	e3822030 	orr	r2, r2, #48	; 0x30
    8984:	e5832000 	str	r2, [r3]
    8988:	e5932000 	ldr	r2, [r3]
    898c:	e3c2200c 	bic	r2, r2, #12
    8990:	e5832000 	str	r2, [r3]
    8994:	e5932000 	ldr	r2, [r3]
    8998:	e3c22003 	bic	r2, r2, #3
    899c:	e5832000 	str	r2, [r3]
    89a0:	e5932000 	ldr	r2, [r3]
    89a4:	e3c22602 	bic	r2, r2, #2097152	; 0x200000
    89a8:	e5832000 	str	r2, [r3]
    89ac:	e3a02010 	mov	r2, #16
    89b0:	e5832008 	str	r2, [r3, #8]
    89b4:	e8bd8008 	pop	{r3, pc}
    89b8:	20204000 	.word	0x20204000

000089bc <spi_transfer>:
    89bc:	e59f3088 	ldr	r3, [pc, #136]	; 8a4c <spi_transfer+0x90>
    89c0:	e593c000 	ldr	ip, [r3]
    89c4:	e38cc0b0 	orr	ip, ip, #176	; 0xb0
    89c8:	e583c000 	str	ip, [r3]
    89cc:	ea00000c 	b	8a04 <spi_transfer+0x48>
    89d0:	e593c000 	ldr	ip, [r3]
    89d4:	e31c0701 	tst	ip, #262144	; 0x40000
    89d8:	0afffffc 	beq	89d0 <spi_transfer+0x14>
    89dc:	e4d0c001 	ldrb	ip, [r0], #1
    89e0:	e583c004 	str	ip, [r3, #4]
    89e4:	e593c000 	ldr	ip, [r3]
    89e8:	e31c0802 	tst	ip, #131072	; 0x20000
    89ec:	0a000004 	beq	8a04 <spi_transfer+0x48>
    89f0:	e593c004 	ldr	ip, [r3, #4]
    89f4:	e4c1c001 	strb	ip, [r1], #1
    89f8:	e593c000 	ldr	ip, [r3]
    89fc:	e31c0802 	tst	ip, #131072	; 0x20000
    8a00:	1afffffa 	bne	89f0 <spi_transfer+0x34>
    8a04:	e2422001 	sub	r2, r2, #1
    8a08:	e6ef2072 	uxtb	r2, r2
    8a0c:	e35200ff 	cmp	r2, #255	; 0xff
    8a10:	1affffee 	bne	89d0 <spi_transfer+0x14>
    8a14:	e59f3030 	ldr	r3, [pc, #48]	; 8a4c <spi_transfer+0x90>
    8a18:	ea000003 	b	8a2c <spi_transfer+0x70>
    8a1c:	e5932000 	ldr	r2, [r3]
    8a20:	e3120802 	tst	r2, #131072	; 0x20000
    8a24:	15932004 	ldrne	r2, [r3, #4]
    8a28:	14c12001 	strbne	r2, [r1], #1
    8a2c:	e5932000 	ldr	r2, [r3]
    8a30:	e3120801 	tst	r2, #65536	; 0x10000
    8a34:	0afffff8 	beq	8a1c <spi_transfer+0x60>
    8a38:	e59f300c 	ldr	r3, [pc, #12]	; 8a4c <spi_transfer+0x90>
    8a3c:	e5932000 	ldr	r2, [r3]
    8a40:	e3c22080 	bic	r2, r2, #128	; 0x80
    8a44:	e5832000 	str	r2, [r3]
    8a48:	e12fff1e 	bx	lr
    8a4c:	20204000 	.word	0x20204000

00008a50 <spi_end>:
    8a50:	e59f301c 	ldr	r3, [pc, #28]	; 8a74 <spi_end+0x24>
    8a54:	e5932004 	ldr	r2, [r3, #4]
    8a58:	e3c2203f 	bic	r2, r2, #63	; 0x3f
    8a5c:	e5832004 	str	r2, [r3, #4]
    8a60:	e5932000 	ldr	r2, [r3]
    8a64:	e3c225ff 	bic	r2, r2, #1069547520	; 0x3fc00000
    8a68:	e3c22602 	bic	r2, r2, #2097152	; 0x200000
    8a6c:	e5832000 	str	r2, [r3]
    8a70:	e12fff1e 	bx	lr
    8a74:	20200000 	.word	0x20200000

00008a78 <tubeCmd>:
    8a78:	e52de004 	push	{lr}		; (str lr, [sp, #-4]!)
    8a7c:	e24dd00c 	sub	sp, sp, #12
    8a80:	e2011007 	and	r1, r1, #7
    8a84:	e1800181 	orr	r0, r0, r1, lsl #3
    8a88:	e5cd0004 	strb	r0, [sp, #4]
    8a8c:	e5cd2005 	strb	r2, [sp, #5]
    8a90:	e59f303c 	ldr	r3, [pc, #60]	; 8ad4 <tubeCmd+0x5c>
    8a94:	e5933000 	ldr	r3, [r3]
    8a98:	e3530000 	cmp	r3, #0
    8a9c:	1a000000 	bne	8aa4 <tubeCmd+0x2c>
    8aa0:	ebfffd82 	bl	80b0 <_disable_interrupts>
    8aa4:	e28d0004 	add	r0, sp, #4
    8aa8:	e1a0100d 	mov	r1, sp
    8aac:	e3a02002 	mov	r2, #2
    8ab0:	ebffffc1 	bl	89bc <spi_transfer>
    8ab4:	e59f3018 	ldr	r3, [pc, #24]	; 8ad4 <tubeCmd+0x5c>
    8ab8:	e5933000 	ldr	r3, [r3]
    8abc:	e3530000 	cmp	r3, #0
    8ac0:	1a000000 	bne	8ac8 <tubeCmd+0x50>
    8ac4:	ebfffd75 	bl	80a0 <_enable_interrupts>
    8ac8:	e5dd0001 	ldrb	r0, [sp, #1]
    8acc:	e28dd00c 	add	sp, sp, #12
    8ad0:	e49df004 	pop	{pc}		; (ldr pc, [sp], #4)
    8ad4:	00013314 	.word	0x00013314

00008ad8 <tubeRead>:
    8ad8:	e92d4008 	push	{r3, lr}
    8adc:	e1a01000 	mov	r1, r0
    8ae0:	e3a000c0 	mov	r0, #192	; 0xc0
    8ae4:	e3a020ff 	mov	r2, #255	; 0xff
    8ae8:	ebffffe2 	bl	8a78 <tubeCmd>
    8aec:	e8bd8008 	pop	{r3, pc}

00008af0 <tubeWrite>:
    8af0:	e92d4008 	push	{r3, lr}
    8af4:	e1a03000 	mov	r3, r0
    8af8:	e1a02001 	mov	r2, r1
    8afc:	e3a00080 	mov	r0, #128	; 0x80
    8b00:	e1a01003 	mov	r1, r3
    8b04:	ebffffdb 	bl	8a78 <tubeCmd>
    8b08:	e8bd8008 	pop	{r3, pc}

00008b0c <sendByte>:
    8b0c:	e92d4070 	push	{r4, r5, r6, lr}
    8b10:	e1a06000 	mov	r6, r0
    8b14:	e1a05001 	mov	r5, r1
    8b18:	e2404001 	sub	r4, r0, #1
    8b1c:	e1a04084 	lsl	r4, r4, #1
    8b20:	e6ef4074 	uxtb	r4, r4
    8b24:	e1a00004 	mov	r0, r4
    8b28:	ebffffea 	bl	8ad8 <tubeRead>
    8b2c:	e3100040 	tst	r0, #64	; 0x40
    8b30:	0afffffb 	beq	8b24 <sendByte+0x18>
    8b34:	e2840001 	add	r0, r4, #1
    8b38:	e6ef0070 	uxtb	r0, r0
    8b3c:	e1a01005 	mov	r1, r5
    8b40:	ebffffea 	bl	8af0 <tubeWrite>
    8b44:	e59f000c 	ldr	r0, [pc, #12]	; 8b58 <sendByte+0x4c>
    8b48:	e1a01006 	mov	r1, r6
    8b4c:	e1a02005 	mov	r2, r5
    8b50:	eb00015c 	bl	90c8 <printf>
    8b54:	e8bd8070 	pop	{r4, r5, r6, pc}
    8b58:	0001265c 	.word	0x0001265c

00008b5c <receiveByte>:
    8b5c:	e92d4038 	push	{r3, r4, r5, lr}
    8b60:	e1a05000 	mov	r5, r0
    8b64:	e2404001 	sub	r4, r0, #1
    8b68:	e1a04084 	lsl	r4, r4, #1
    8b6c:	e6ef4074 	uxtb	r4, r4
    8b70:	e1a00004 	mov	r0, r4
    8b74:	ebffffd7 	bl	8ad8 <tubeRead>
    8b78:	e3100080 	tst	r0, #128	; 0x80
    8b7c:	0afffffb 	beq	8b70 <receiveByte+0x14>
    8b80:	e2840001 	add	r0, r4, #1
    8b84:	e6ef0070 	uxtb	r0, r0
    8b88:	ebffffd2 	bl	8ad8 <tubeRead>
    8b8c:	e1a04000 	mov	r4, r0
    8b90:	e59f0010 	ldr	r0, [pc, #16]	; 8ba8 <receiveByte+0x4c>
    8b94:	e1a01005 	mov	r1, r5
    8b98:	e1a02004 	mov	r2, r4
    8b9c:	eb000149 	bl	90c8 <printf>
    8ba0:	e1a00004 	mov	r0, r4
    8ba4:	e8bd8038 	pop	{r3, r4, r5, pc}
    8ba8:	00012670 	.word	0x00012670

00008bac <sendString>:
    8bac:	e92d4070 	push	{r4, r5, r6, lr}
    8bb0:	e1a06000 	mov	r6, r0
    8bb4:	e1a05001 	mov	r5, r1
    8bb8:	e3a04000 	mov	r4, #0
    8bbc:	ea000003 	b	8bd0 <sendString+0x24>
    8bc0:	e7d51004 	ldrb	r1, [r5, r4]
    8bc4:	e1a00006 	mov	r0, r6
    8bc8:	ebffffcf 	bl	8b0c <sendByte>
    8bcc:	e2844001 	add	r4, r4, #1
    8bd0:	e1a00005 	mov	r0, r5
    8bd4:	eb0001e8 	bl	937c <strlen>
    8bd8:	e1540000 	cmp	r4, r0
    8bdc:	3afffff7 	bcc	8bc0 <sendString+0x14>
    8be0:	e8bd8070 	pop	{r4, r5, r6, pc}

00008be4 <receiveString>:
    8be4:	e92d41f0 	push	{r4, r5, r6, r7, r8, lr}
    8be8:	e1a06000 	mov	r6, r0
    8bec:	e1a05001 	mov	r5, r1
    8bf0:	e1a08002 	mov	r8, r2
    8bf4:	e3a04000 	mov	r4, #0
    8bf8:	e2427001 	sub	r7, r2, #1
    8bfc:	e1a00006 	mov	r0, r6
    8c00:	ebffffd5 	bl	8b5c <receiveByte>
    8c04:	e1500005 	cmp	r0, r5
    8c08:	0a000003 	beq	8c1c <receiveString+0x38>
    8c0c:	e2844001 	add	r4, r4, #1
    8c10:	e7c70004 	strb	r0, [r7, r4]
    8c14:	e3540063 	cmp	r4, #99	; 0x63
    8c18:	dafffff7 	ble	8bfc <receiveString+0x18>
    8c1c:	e3a03000 	mov	r3, #0
    8c20:	e7c83004 	strb	r3, [r8, r4]
    8c24:	e8bd81f0 	pop	{r4, r5, r6, r7, r8, pc}

00008c28 <TubeInterrupt>:
    8c28:	e92d41f0 	push	{r4, r5, r6, r7, r8, lr}
    8c2c:	e3a02001 	mov	r2, #1
    8c30:	e59f31e8 	ldr	r3, [pc, #488]	; 8e20 <TubeInterrupt+0x1f8>
    8c34:	e5832000 	str	r2, [r3]
    8c38:	e3a00000 	mov	r0, #0
    8c3c:	ebffffa5 	bl	8ad8 <tubeRead>
    8c40:	e3100080 	tst	r0, #128	; 0x80
    8c44:	0a00001a 	beq	8cb4 <TubeInterrupt+0x8c>
    8c48:	e59f01d4 	ldr	r0, [pc, #468]	; 8e24 <TubeInterrupt+0x1fc>
    8c4c:	eb000152 	bl	919c <puts>
    8c50:	e3a00001 	mov	r0, #1
    8c54:	ebffff9f 	bl	8ad8 <tubeRead>
    8c58:	e3100080 	tst	r0, #128	; 0x80
    8c5c:	0a000007 	beq	8c80 <TubeInterrupt+0x58>
    8c60:	e2000040 	and	r0, r0, #64	; 0x40
    8c64:	e6ef0070 	uxtb	r0, r0
    8c68:	e59f31b8 	ldr	r3, [pc, #440]	; 8e28 <TubeInterrupt+0x200>
    8c6c:	e5c30000 	strb	r0, [r3]
    8c70:	e5d31000 	ldrb	r1, [r3]
    8c74:	e59f01b0 	ldr	r0, [pc, #432]	; 8e2c <TubeInterrupt+0x204>
    8c78:	eb000112 	bl	90c8 <printf>
    8c7c:	ea00000c 	b	8cb4 <TubeInterrupt+0x8c>
    8c80:	e3a00001 	mov	r0, #1
    8c84:	ebffffb4 	bl	8b5c <receiveByte>
    8c88:	e1a04000 	mov	r4, r0
    8c8c:	e3a00001 	mov	r0, #1
    8c90:	ebffffb1 	bl	8b5c <receiveByte>
    8c94:	e1a05000 	mov	r5, r0
    8c98:	e3a00001 	mov	r0, #1
    8c9c:	ebffffae 	bl	8b5c <receiveByte>
    8ca0:	e1a01000 	mov	r1, r0
    8ca4:	e59f0184 	ldr	r0, [pc, #388]	; 8e30 <TubeInterrupt+0x208>
    8ca8:	e1a02005 	mov	r2, r5
    8cac:	e1a03004 	mov	r3, r4
    8cb0:	eb000104 	bl	90c8 <printf>
    8cb4:	e3a00006 	mov	r0, #6
    8cb8:	ebffff86 	bl	8ad8 <tubeRead>
    8cbc:	e3100080 	tst	r0, #128	; 0x80
    8cc0:	0a000052 	beq	8e10 <TubeInterrupt+0x1e8>
    8cc4:	e59f0168 	ldr	r0, [pc, #360]	; 8e34 <TubeInterrupt+0x20c>
    8cc8:	eb000133 	bl	919c <puts>
    8ccc:	e3a00007 	mov	r0, #7
    8cd0:	ebffff80 	bl	8ad8 <tubeRead>
    8cd4:	e1a04000 	mov	r4, r0
    8cd8:	e59f0158 	ldr	r0, [pc, #344]	; 8e38 <TubeInterrupt+0x210>
    8cdc:	e1a01004 	mov	r1, r4
    8ce0:	eb0000f8 	bl	90c8 <printf>
    8ce4:	e35400ff 	cmp	r4, #255	; 0xff
    8ce8:	1a000017 	bne	8d4c <TubeInterrupt+0x124>
    8cec:	e3a00002 	mov	r0, #2
    8cf0:	ebffff99 	bl	8b5c <receiveByte>
    8cf4:	e3a00002 	mov	r0, #2
    8cf8:	ebffff97 	bl	8b5c <receiveByte>
    8cfc:	e59f5138 	ldr	r5, [pc, #312]	; 8e3c <TubeInterrupt+0x214>
    8d00:	e5c50000 	strb	r0, [r5]
    8d04:	e59f4134 	ldr	r4, [pc, #308]	; 8e40 <TubeInterrupt+0x218>
    8d08:	e3a00002 	mov	r0, #2
    8d0c:	e3a01000 	mov	r1, #0
    8d10:	e1a02004 	mov	r2, r4
    8d14:	ebffffb2 	bl	8be4 <receiveString>
    8d18:	e5d51000 	ldrb	r1, [r5]
    8d1c:	e59f0120 	ldr	r0, [pc, #288]	; 8e44 <TubeInterrupt+0x21c>
    8d20:	e1a02004 	mov	r2, r4
    8d24:	eb0000e7 	bl	90c8 <printf>
    8d28:	e3a00001 	mov	r0, #1
    8d2c:	e1a01004 	mov	r1, r4
    8d30:	ebffff9d 	bl	8bac <sendString>
    8d34:	e3a00001 	mov	r0, #1
    8d38:	e59f1108 	ldr	r1, [pc, #264]	; 8e48 <TubeInterrupt+0x220>
    8d3c:	ebffff9a 	bl	8bac <sendString>
    8d40:	e59f0104 	ldr	r0, [pc, #260]	; 8e4c <TubeInterrupt+0x224>
    8d44:	e3a01001 	mov	r1, #1
    8d48:	eb00016a 	bl	92f8 <longjmp>
    8d4c:	e3a00004 	mov	r0, #4
    8d50:	ebffff81 	bl	8b5c <receiveByte>
    8d54:	e1a02000 	mov	r2, r0
    8d58:	e59f00f0 	ldr	r0, [pc, #240]	; 8e50 <TubeInterrupt+0x228>
    8d5c:	e1a01004 	mov	r1, r4
    8d60:	eb0000d8 	bl	90c8 <printf>
    8d64:	e1a00004 	mov	r0, r4
    8d68:	eb000056 	bl	8ec8 <set_nmi_handler>
    8d6c:	e3540006 	cmp	r4, #6
    8d70:	13a05000 	movne	r5, #0
    8d74:	03a05001 	moveq	r5, #1
    8d78:	e3540006 	cmp	r4, #6
    8d7c:	13540004 	cmpne	r4, #4
    8d80:	9a000001 	bls	8d8c <TubeInterrupt+0x164>
    8d84:	e3540007 	cmp	r4, #7
    8d88:	1a000012 	bne	8dd8 <TubeInterrupt+0x1b0>
    8d8c:	e3a00004 	mov	r0, #4
    8d90:	ebffff71 	bl	8b5c <receiveByte>
    8d94:	e1a07000 	mov	r7, r0
    8d98:	e3a00004 	mov	r0, #4
    8d9c:	ebffff6e 	bl	8b5c <receiveByte>
    8da0:	e1a08000 	mov	r8, r0
    8da4:	e3a00004 	mov	r0, #4
    8da8:	ebffff6b 	bl	8b5c <receiveByte>
    8dac:	e1a06000 	mov	r6, r0
    8db0:	e3a00004 	mov	r0, #4
    8db4:	ebffff68 	bl	8b5c <receiveByte>
    8db8:	e1a01808 	lsl	r1, r8, #16
    8dbc:	e0811c07 	add	r1, r1, r7, lsl #24
    8dc0:	e0811406 	add	r1, r1, r6, lsl #8
    8dc4:	e0811000 	add	r1, r1, r0
    8dc8:	e59f3084 	ldr	r3, [pc, #132]	; 8e54 <TubeInterrupt+0x22c>
    8dcc:	e5831000 	str	r1, [r3]
    8dd0:	e59f0080 	ldr	r0, [pc, #128]	; 8e58 <TubeInterrupt+0x230>
    8dd4:	eb0000bb 	bl	90c8 <printf>
    8dd8:	e3550000 	cmp	r5, #0
    8ddc:	0a000002 	beq	8dec <TubeInterrupt+0x1c4>
    8de0:	e3a00004 	mov	r0, #4
    8de4:	e3a01000 	mov	r1, #0
    8de8:	ebffff47 	bl	8b0c <sendByte>
    8dec:	e3540005 	cmp	r4, #5
    8df0:	0a000004 	beq	8e08 <TubeInterrupt+0x1e0>
    8df4:	e3a00004 	mov	r0, #4
    8df8:	ebffff57 	bl	8b5c <receiveByte>
    8dfc:	e1a01000 	mov	r1, r0
    8e00:	e59f0054 	ldr	r0, [pc, #84]	; 8e5c <TubeInterrupt+0x234>
    8e04:	eb0000af 	bl	90c8 <printf>
    8e08:	e59f0050 	ldr	r0, [pc, #80]	; 8e60 <TubeInterrupt+0x238>
    8e0c:	eb0000e2 	bl	919c <puts>
    8e10:	e3a02000 	mov	r2, #0
    8e14:	e59f3004 	ldr	r3, [pc, #4]	; 8e20 <TubeInterrupt+0x1f8>
    8e18:	e5832000 	str	r2, [r3]
    8e1c:	e8bd81f0 	pop	{r4, r5, r6, r7, r8, pc}
    8e20:	00013314 	.word	0x00013314
    8e24:	00012684 	.word	0x00012684
    8e28:	00013475 	.word	0x00013475
    8e2c:	0001268c 	.word	0x0001268c
    8e30:	000126a4 	.word	0x000126a4
    8e34:	000126c0 	.word	0x000126c0
    8e38:	000126c8 	.word	0x000126c8
    8e3c:	00013474 	.word	0x00013474
    8e40:	00013374 	.word	0x00013374
    8e44:	000126dc 	.word	0x000126dc
    8e48:	00012600 	.word	0x00012600
    8e4c:	00013318 	.word	0x00013318
    8e50:	000126f0 	.word	0x000126f0
    8e54:	00013310 	.word	0x00013310
    8e58:	00012708 	.word	0x00012708
    8e5c:	00012710 	.word	0x00012710
    8e60:	0001264c 	.word	0x0001264c

00008e64 <type_2_nmi_handler>:
    8e64:	e25ef004 	subs	pc, lr, #4

00008e68 <type_3_nmi_handler>:
    8e68:	e25ef004 	subs	pc, lr, #4

00008e6c <null_nmi_handler>:
    8e6c:	e25ef004 	subs	pc, lr, #4

00008e70 <type_0_nmi_handler>:
    8e70:	e24ee004 	sub	lr, lr, #4
    8e74:	e92d401f 	push	{r0, r1, r2, r3, r4, lr}
    8e78:	e59f2018 	ldr	r2, [pc, #24]	; 8e98 <type_0_nmi_handler+0x28>
    8e7c:	e5923000 	ldr	r3, [r2]
    8e80:	e2831001 	add	r1, r3, #1
    8e84:	e5821000 	str	r1, [r2]
    8e88:	e5d31000 	ldrb	r1, [r3]
    8e8c:	e3a00005 	mov	r0, #5
    8e90:	ebffff16 	bl	8af0 <tubeWrite>
    8e94:	e8fd801f 	ldm	sp!, {r0, r1, r2, r3, r4, pc}^
    8e98:	00013310 	.word	0x00013310

00008e9c <type_1_nmi_handler>:
    8e9c:	e24ee004 	sub	lr, lr, #4
    8ea0:	e92d401f 	push	{r0, r1, r2, r3, r4, lr}
    8ea4:	e59f3018 	ldr	r3, [pc, #24]	; 8ec4 <type_1_nmi_handler+0x28>
    8ea8:	e5934000 	ldr	r4, [r3]
    8eac:	e2842001 	add	r2, r4, #1
    8eb0:	e5832000 	str	r2, [r3]
    8eb4:	e3a00005 	mov	r0, #5
    8eb8:	ebffff06 	bl	8ad8 <tubeRead>
    8ebc:	e5c40000 	strb	r0, [r4]
    8ec0:	e8fd801f 	ldm	sp!, {r0, r1, r2, r3, r4, pc}^
    8ec4:	00013310 	.word	0x00013310

00008ec8 <set_nmi_handler>:
    8ec8:	e3500003 	cmp	r0, #3
    8ecc:	979ff100 	ldrls	pc, [pc, r0, lsl #2]
    8ed0:	ea000013 	b	8f24 <set_nmi_handler+0x5c>
    8ed4:	00008ee4 	.word	0x00008ee4
    8ed8:	00008ef4 	.word	0x00008ef4
    8edc:	00008f04 	.word	0x00008f04
    8ee0:	00008f14 	.word	0x00008f14
    8ee4:	e59f2048 	ldr	r2, [pc, #72]	; 8f34 <set_nmi_handler+0x6c>
    8ee8:	e3a03000 	mov	r3, #0
    8eec:	e583203c 	str	r2, [r3, #60]	; 0x3c
    8ef0:	e12fff1e 	bx	lr
    8ef4:	e59f203c 	ldr	r2, [pc, #60]	; 8f38 <set_nmi_handler+0x70>
    8ef8:	e3a03000 	mov	r3, #0
    8efc:	e583203c 	str	r2, [r3, #60]	; 0x3c
    8f00:	e12fff1e 	bx	lr
    8f04:	e59f2030 	ldr	r2, [pc, #48]	; 8f3c <set_nmi_handler+0x74>
    8f08:	e3a03000 	mov	r3, #0
    8f0c:	e583203c 	str	r2, [r3, #60]	; 0x3c
    8f10:	e12fff1e 	bx	lr
    8f14:	e59f2024 	ldr	r2, [pc, #36]	; 8f40 <set_nmi_handler+0x78>
    8f18:	e3a03000 	mov	r3, #0
    8f1c:	e583203c 	str	r2, [r3, #60]	; 0x3c
    8f20:	e12fff1e 	bx	lr
    8f24:	e59f2018 	ldr	r2, [pc, #24]	; 8f44 <set_nmi_handler+0x7c>
    8f28:	e3a03000 	mov	r3, #0
    8f2c:	e583203c 	str	r2, [r3, #60]	; 0x3c
    8f30:	e12fff1e 	bx	lr
    8f34:	00008e70 	.word	0x00008e70
    8f38:	00008e9c 	.word	0x00008e9c
    8f3c:	00008e64 	.word	0x00008e64
    8f40:	00008e68 	.word	0x00008e68
    8f44:	00008e6c 	.word	0x00008e6c

00008f48 <__aeabi_idiv>:
    8f48:	e3510000 	cmp	r1, #0
    8f4c:	0a000043 	beq	9060 <.divsi3_skip_div0_test+0x110>

00008f50 <.divsi3_skip_div0_test>:
    8f50:	e020c001 	eor	ip, r0, r1
    8f54:	42611000 	rsbmi	r1, r1, #0
    8f58:	e2512001 	subs	r2, r1, #1
    8f5c:	0a000027 	beq	9000 <.divsi3_skip_div0_test+0xb0>
    8f60:	e1b03000 	movs	r3, r0
    8f64:	42603000 	rsbmi	r3, r0, #0
    8f68:	e1530001 	cmp	r3, r1
    8f6c:	9a000026 	bls	900c <.divsi3_skip_div0_test+0xbc>
    8f70:	e1110002 	tst	r1, r2
    8f74:	0a000028 	beq	901c <.divsi3_skip_div0_test+0xcc>
    8f78:	e311020e 	tst	r1, #-536870912	; 0xe0000000
    8f7c:	01a01181 	lsleq	r1, r1, #3
    8f80:	03a02008 	moveq	r2, #8
    8f84:	13a02001 	movne	r2, #1
    8f88:	e3510201 	cmp	r1, #268435456	; 0x10000000
    8f8c:	31510003 	cmpcc	r1, r3
    8f90:	31a01201 	lslcc	r1, r1, #4
    8f94:	31a02202 	lslcc	r2, r2, #4
    8f98:	3afffffa 	bcc	8f88 <.divsi3_skip_div0_test+0x38>
    8f9c:	e3510102 	cmp	r1, #-2147483648	; 0x80000000
    8fa0:	31510003 	cmpcc	r1, r3
    8fa4:	31a01081 	lslcc	r1, r1, #1
    8fa8:	31a02082 	lslcc	r2, r2, #1
    8fac:	3afffffa 	bcc	8f9c <.divsi3_skip_div0_test+0x4c>
    8fb0:	e3a00000 	mov	r0, #0
    8fb4:	e1530001 	cmp	r3, r1
    8fb8:	20433001 	subcs	r3, r3, r1
    8fbc:	21800002 	orrcs	r0, r0, r2
    8fc0:	e15300a1 	cmp	r3, r1, lsr #1
    8fc4:	204330a1 	subcs	r3, r3, r1, lsr #1
    8fc8:	218000a2 	orrcs	r0, r0, r2, lsr #1
    8fcc:	e1530121 	cmp	r3, r1, lsr #2
    8fd0:	20433121 	subcs	r3, r3, r1, lsr #2
    8fd4:	21800122 	orrcs	r0, r0, r2, lsr #2
    8fd8:	e15301a1 	cmp	r3, r1, lsr #3
    8fdc:	204331a1 	subcs	r3, r3, r1, lsr #3
    8fe0:	218001a2 	orrcs	r0, r0, r2, lsr #3
    8fe4:	e3530000 	cmp	r3, #0
    8fe8:	11b02222 	lsrsne	r2, r2, #4
    8fec:	11a01221 	lsrne	r1, r1, #4
    8ff0:	1affffef 	bne	8fb4 <.divsi3_skip_div0_test+0x64>
    8ff4:	e35c0000 	cmp	ip, #0
    8ff8:	42600000 	rsbmi	r0, r0, #0
    8ffc:	e12fff1e 	bx	lr
    9000:	e13c0000 	teq	ip, r0
    9004:	42600000 	rsbmi	r0, r0, #0
    9008:	e12fff1e 	bx	lr
    900c:	33a00000 	movcc	r0, #0
    9010:	01a00fcc 	asreq	r0, ip, #31
    9014:	03800001 	orreq	r0, r0, #1
    9018:	e12fff1e 	bx	lr
    901c:	e3510801 	cmp	r1, #65536	; 0x10000
    9020:	21a01821 	lsrcs	r1, r1, #16
    9024:	23a02010 	movcs	r2, #16
    9028:	33a02000 	movcc	r2, #0
    902c:	e3510c01 	cmp	r1, #256	; 0x100
    9030:	21a01421 	lsrcs	r1, r1, #8
    9034:	22822008 	addcs	r2, r2, #8
    9038:	e3510010 	cmp	r1, #16
    903c:	21a01221 	lsrcs	r1, r1, #4
    9040:	22822004 	addcs	r2, r2, #4
    9044:	e3510004 	cmp	r1, #4
    9048:	82822003 	addhi	r2, r2, #3
    904c:	908220a1 	addls	r2, r2, r1, lsr #1
    9050:	e35c0000 	cmp	ip, #0
    9054:	e1a00233 	lsr	r0, r3, r2
    9058:	42600000 	rsbmi	r0, r0, #0
    905c:	e12fff1e 	bx	lr
    9060:	e3500000 	cmp	r0, #0
    9064:	c3e00102 	mvngt	r0, #-2147483648	; 0x80000000
    9068:	b3a00102 	movlt	r0, #-2147483648	; 0x80000000
    906c:	ea000007 	b	9090 <__aeabi_idiv0>

00009070 <__aeabi_idivmod>:
    9070:	e3510000 	cmp	r1, #0
    9074:	0afffff9 	beq	9060 <.divsi3_skip_div0_test+0x110>
    9078:	e92d4003 	push	{r0, r1, lr}
    907c:	ebffffb3 	bl	8f50 <.divsi3_skip_div0_test>
    9080:	e8bd4006 	pop	{r1, r2, lr}
    9084:	e0030092 	mul	r3, r2, r0
    9088:	e0411003 	sub	r1, r1, r3
    908c:	e12fff1e 	bx	lr

00009090 <__aeabi_idiv0>:
    9090:	e12fff1e 	bx	lr

00009094 <_printf_r>:
    9094:	e92d000e 	push	{r1, r2, r3}
    9098:	e52de004 	push	{lr}		; (str lr, [sp, #-4]!)
    909c:	e24dd008 	sub	sp, sp, #8
    90a0:	e28dc010 	add	ip, sp, #16
    90a4:	e1a0300c 	mov	r3, ip
    90a8:	e5901008 	ldr	r1, [r0, #8]
    90ac:	e59d200c 	ldr	r2, [sp, #12]
    90b0:	e58dc004 	str	ip, [sp, #4]
    90b4:	eb0000c9 	bl	93e0 <_vfprintf_r>
    90b8:	e28dd008 	add	sp, sp, #8
    90bc:	e49de004 	pop	{lr}		; (ldr lr, [sp], #4)
    90c0:	e28dd00c 	add	sp, sp, #12
    90c4:	e12fff1e 	bx	lr

000090c8 <printf>:
    90c8:	e92d000f 	push	{r0, r1, r2, r3}
    90cc:	e52de004 	push	{lr}		; (str lr, [sp, #-4]!)
    90d0:	e59f302c 	ldr	r3, [pc, #44]	; 9104 <printf+0x3c>
    90d4:	e24dd00c 	sub	sp, sp, #12
    90d8:	e5930000 	ldr	r0, [r3]
    90dc:	e28dc014 	add	ip, sp, #20
    90e0:	e5901008 	ldr	r1, [r0, #8]
    90e4:	e1a0300c 	mov	r3, ip
    90e8:	e59d2010 	ldr	r2, [sp, #16]
    90ec:	e58dc004 	str	ip, [sp, #4]
    90f0:	eb0000ba 	bl	93e0 <_vfprintf_r>
    90f4:	e28dd00c 	add	sp, sp, #12
    90f8:	e49de004 	pop	{lr}		; (ldr lr, [sp], #4)
    90fc:	e28dd010 	add	sp, sp, #16
    9100:	e12fff1e 	bx	lr
    9104:	00012e30 	.word	0x00012e30

00009108 <_puts_r>:
    9108:	e92d40f0 	push	{r4, r5, r6, r7, lr}
    910c:	e1a04000 	mov	r4, r0
    9110:	e24dd024 	sub	sp, sp, #36	; 0x24
    9114:	e1a00001 	mov	r0, r1
    9118:	e1a05001 	mov	r5, r1
    911c:	eb000096 	bl	937c <strlen>
    9120:	e5943008 	ldr	r3, [r4, #8]
    9124:	e1d320bc 	ldrh	r2, [r3, #12]
    9128:	e3a01002 	mov	r1, #2
    912c:	e3120a02 	tst	r2, #8192	; 0x2000
    9130:	e58d1008 	str	r1, [sp, #8]
    9134:	05931064 	ldreq	r1, [r3, #100]	; 0x64
    9138:	03822a02 	orreq	r2, r2, #8192	; 0x2000
    913c:	03c11a02 	biceq	r1, r1, #8192	; 0x2000
    9140:	e3a0e001 	mov	lr, #1
    9144:	e59f604c 	ldr	r6, [pc, #76]	; 9198 <_puts_r+0x90>
    9148:	05831064 	streq	r1, [r3, #100]	; 0x64
    914c:	e2807001 	add	r7, r0, #1
    9150:	e28dc010 	add	ip, sp, #16
    9154:	e58d0014 	str	r0, [sp, #20]
    9158:	e58de01c 	str	lr, [sp, #28]
    915c:	e1a00004 	mov	r0, r4
    9160:	01c320bc 	strheq	r2, [r3, #12]
    9164:	e1a01003 	mov	r1, r3
    9168:	e28d2004 	add	r2, sp, #4
    916c:	e58d5010 	str	r5, [sp, #16]
    9170:	e58d700c 	str	r7, [sp, #12]
    9174:	e58d6018 	str	r6, [sp, #24]
    9178:	e58dc004 	str	ip, [sp, #4]
    917c:	eb001094 	bl	d3d4 <__sfvwrite_r>
    9180:	e3500000 	cmp	r0, #0
    9184:	03a0000a 	moveq	r0, #10
    9188:	13e00000 	mvnne	r0, #0
    918c:	e28dd024 	add	sp, sp, #36	; 0x24
    9190:	e8bd40f0 	pop	{r4, r5, r6, r7, lr}
    9194:	e12fff1e 	bx	lr
    9198:	000126ec 	.word	0x000126ec

0000919c <puts>:
    919c:	e59f3008 	ldr	r3, [pc, #8]	; 91ac <puts+0x10>
    91a0:	e1a01000 	mov	r1, r0
    91a4:	e5930000 	ldr	r0, [r3]
    91a8:	eaffffd6 	b	9108 <_puts_r>
    91ac:	00012e30 	.word	0x00012e30

000091b0 <cleanup_glue>:
    91b0:	e92d4038 	push	{r3, r4, r5, lr}
    91b4:	e1a04001 	mov	r4, r1
    91b8:	e5911000 	ldr	r1, [r1]
    91bc:	e3510000 	cmp	r1, #0
    91c0:	e1a05000 	mov	r5, r0
    91c4:	1bfffff9 	blne	91b0 <cleanup_glue>
    91c8:	e1a00005 	mov	r0, r5
    91cc:	e1a01004 	mov	r1, r4
    91d0:	eb000fe4 	bl	d168 <_free_r>
    91d4:	e8bd4038 	pop	{r3, r4, r5, lr}
    91d8:	e12fff1e 	bx	lr

000091dc <_reclaim_reent>:
    91dc:	e59f30fc 	ldr	r3, [pc, #252]	; 92e0 <_reclaim_reent+0x104>
    91e0:	e5933000 	ldr	r3, [r3]
    91e4:	e1500003 	cmp	r0, r3
    91e8:	e92d4070 	push	{r4, r5, r6, lr}
    91ec:	e1a05000 	mov	r5, r0
    91f0:	0a00002e 	beq	92b0 <_reclaim_reent+0xd4>
    91f4:	e590204c 	ldr	r2, [r0, #76]	; 0x4c
    91f8:	e3520000 	cmp	r2, #0
    91fc:	0a000013 	beq	9250 <_reclaim_reent+0x74>
    9200:	e3a03000 	mov	r3, #0
    9204:	e1a06003 	mov	r6, r3
    9208:	e7921103 	ldr	r1, [r2, r3, lsl #2]
    920c:	e3510000 	cmp	r1, #0
    9210:	1a000001 	bne	921c <_reclaim_reent+0x40>
    9214:	ea000006 	b	9234 <_reclaim_reent+0x58>
    9218:	e1a01004 	mov	r1, r4
    921c:	e5914000 	ldr	r4, [r1]
    9220:	e1a00005 	mov	r0, r5
    9224:	eb000fcf 	bl	d168 <_free_r>
    9228:	e3540000 	cmp	r4, #0
    922c:	1afffff9 	bne	9218 <_reclaim_reent+0x3c>
    9230:	e595204c 	ldr	r2, [r5, #76]	; 0x4c
    9234:	e2866001 	add	r6, r6, #1
    9238:	e3560020 	cmp	r6, #32
    923c:	e1a03006 	mov	r3, r6
    9240:	1afffff0 	bne	9208 <_reclaim_reent+0x2c>
    9244:	e1a01002 	mov	r1, r2
    9248:	e1a00005 	mov	r0, r5
    924c:	eb000fc5 	bl	d168 <_free_r>
    9250:	e5951040 	ldr	r1, [r5, #64]	; 0x40
    9254:	e3510000 	cmp	r1, #0
    9258:	11a00005 	movne	r0, r5
    925c:	1b000fc1 	blne	d168 <_free_r>
    9260:	e5951148 	ldr	r1, [r5, #328]	; 0x148
    9264:	e3510000 	cmp	r1, #0
    9268:	0a000009 	beq	9294 <_reclaim_reent+0xb8>
    926c:	e2856f53 	add	r6, r5, #332	; 0x14c
    9270:	e1510006 	cmp	r1, r6
    9274:	1a000001 	bne	9280 <_reclaim_reent+0xa4>
    9278:	ea000005 	b	9294 <_reclaim_reent+0xb8>
    927c:	e1a01004 	mov	r1, r4
    9280:	e5914000 	ldr	r4, [r1]
    9284:	e1a00005 	mov	r0, r5
    9288:	eb000fb6 	bl	d168 <_free_r>
    928c:	e1560004 	cmp	r6, r4
    9290:	1afffff9 	bne	927c <_reclaim_reent+0xa0>
    9294:	e5951054 	ldr	r1, [r5, #84]	; 0x54
    9298:	e3510000 	cmp	r1, #0
    929c:	11a00005 	movne	r0, r5
    92a0:	1b000fb0 	blne	d168 <_free_r>
    92a4:	e5953038 	ldr	r3, [r5, #56]	; 0x38
    92a8:	e3530000 	cmp	r3, #0
    92ac:	1a000001 	bne	92b8 <_reclaim_reent+0xdc>
    92b0:	e8bd4070 	pop	{r4, r5, r6, lr}
    92b4:	e12fff1e 	bx	lr
    92b8:	e1a00005 	mov	r0, r5
    92bc:	e595c03c 	ldr	ip, [r5, #60]	; 0x3c
    92c0:	e1a0e00f 	mov	lr, pc
    92c4:	e12fff1c 	bx	ip
    92c8:	e59512e0 	ldr	r1, [r5, #736]	; 0x2e0
    92cc:	e3510000 	cmp	r1, #0
    92d0:	0afffff6 	beq	92b0 <_reclaim_reent+0xd4>
    92d4:	e1a00005 	mov	r0, r5
    92d8:	e8bd4070 	pop	{r4, r5, r6, lr}
    92dc:	eaffffb3 	b	91b0 <cleanup_glue>
    92e0:	00012e30 	.word	0x00012e30

000092e4 <setjmp>:
    92e4:	e8a07ff0 	stmia	r0!, {r4, r5, r6, r7, r8, r9, sl, fp, ip, sp, lr}
    92e8:	e3a00000 	mov	r0, #0
    92ec:	e31e0001 	tst	lr, #1
    92f0:	01a0f00e 	moveq	pc, lr
    92f4:	e12fff1e 	.word	0xe12fff1e

000092f8 <longjmp>:
    92f8:	e8b07ff0 	ldm	r0!, {r4, r5, r6, r7, r8, r9, sl, fp, ip, sp, lr}
    92fc:	e1b00001 	movs	r0, r1
    9300:	03a00001 	moveq	r0, #1
    9304:	e31e0001 	tst	lr, #1
    9308:	01a0f00e 	moveq	pc, lr
    930c:	e12fff1e 	.word	0xe12fff1e

00009310 <strcasecmp>:
    9310:	e59f3060 	ldr	r3, [pc, #96]	; 9378 <strcasecmp+0x68>
    9314:	e52d4004 	push	{r4}		; (str r4, [sp, #-4]!)
    9318:	e593c000 	ldr	ip, [r3]
    931c:	e1a04000 	mov	r4, r0
    9320:	ea000003 	b	9334 <strcasecmp+0x24>
    9324:	e0520003 	subs	r0, r2, r3
    9328:	1a000010 	bne	9370 <strcasecmp+0x60>
    932c:	e3530000 	cmp	r3, #0
    9330:	0a00000e 	beq	9370 <strcasecmp+0x60>
    9334:	e4d42001 	ldrb	r2, [r4], #1
    9338:	e08c3002 	add	r3, ip, r2
    933c:	e5d33001 	ldrb	r3, [r3, #1]
    9340:	e2033003 	and	r3, r3, #3
    9344:	e3530001 	cmp	r3, #1
    9348:	e4d13001 	ldrb	r3, [r1], #1
    934c:	e08c0003 	add	r0, ip, r3
    9350:	e5d00001 	ldrb	r0, [r0, #1]
    9354:	e2000003 	and	r0, r0, #3
    9358:	02822020 	addeq	r2, r2, #32
    935c:	e3500001 	cmp	r0, #1
    9360:	1affffef 	bne	9324 <strcasecmp+0x14>
    9364:	e2833020 	add	r3, r3, #32
    9368:	e0520003 	subs	r0, r2, r3
    936c:	0afffff0 	beq	9334 <strcasecmp+0x24>
    9370:	e49d4004 	pop	{r4}		; (ldr r4, [sp], #4)
    9374:	e12fff1e 	bx	lr
    9378:	00012a00 	.word	0x00012a00

0000937c <strlen>:
    937c:	e3c01003 	bic	r1, r0, #3
    9380:	e2100003 	ands	r0, r0, #3
    9384:	e2600000 	rsb	r0, r0, #0
    9388:	e4913004 	ldr	r3, [r1], #4
    938c:	e280c004 	add	ip, r0, #4
    9390:	e1a0c18c 	lsl	ip, ip, #3
    9394:	e3e02000 	mvn	r2, #0
    9398:	11833c32 	orrne	r3, r3, r2, lsr ip
    939c:	e3a0c001 	mov	ip, #1
    93a0:	e18cc40c 	orr	ip, ip, ip, lsl #8
    93a4:	e18cc80c 	orr	ip, ip, ip, lsl #16
    93a8:	e043200c 	sub	r2, r3, ip
    93ac:	e1c22003 	bic	r2, r2, r3
    93b0:	e012238c 	ands	r2, r2, ip, lsl #7
    93b4:	04913004 	ldreq	r3, [r1], #4
    93b8:	02800004 	addeq	r0, r0, #4
    93bc:	0afffff9 	beq	93a8 <strlen+0x2c>
    93c0:	e31300ff 	tst	r3, #255	; 0xff
    93c4:	12800001 	addne	r0, r0, #1
    93c8:	13130cff 	tstne	r3, #65280	; 0xff00
    93cc:	12800001 	addne	r0, r0, #1
    93d0:	131308ff 	tstne	r3, #16711680	; 0xff0000
    93d4:	12800001 	addne	r0, r0, #1
    93d8:	e12fff1e 	bx	lr
    93dc:	00000000 	andeq	r0, r0, r0

000093e0 <_vfprintf_r>:
    93e0:	e92d4ff0 	push	{r4, r5, r6, r7, r8, r9, sl, fp, lr}
    93e4:	ed2d8b06 	vpush	{d8-d10}
    93e8:	e24dd0fc 	sub	sp, sp, #252	; 0xfc
    93ec:	e1a04003 	mov	r4, r3
    93f0:	e1a09001 	mov	r9, r1
    93f4:	e1a07002 	mov	r7, r2
    93f8:	e58d0020 	str	r0, [sp, #32]
    93fc:	eb001197 	bl	da60 <_localeconv_r>
    9400:	e5900000 	ldr	r0, [r0]
    9404:	e58d0044 	str	r0, [sp, #68]	; 0x44
    9408:	ebffffdb 	bl	937c <strlen>
    940c:	e59d5020 	ldr	r5, [sp, #32]
    9410:	e3550000 	cmp	r5, #0
    9414:	e58d004c 	str	r0, [sp, #76]	; 0x4c
    9418:	e58d402c 	str	r4, [sp, #44]	; 0x2c
    941c:	0a000002 	beq	942c <_vfprintf_r+0x4c>
    9420:	e5953038 	ldr	r3, [r5, #56]	; 0x38
    9424:	e3530000 	cmp	r3, #0
    9428:	0a0000de 	beq	97a8 <_vfprintf_r+0x3c8>
    942c:	e1d930bc 	ldrh	r3, [r9, #12]
    9430:	e3130a02 	tst	r3, #8192	; 0x2000
    9434:	05991064 	ldreq	r1, [r9, #100]	; 0x64
    9438:	e1a02003 	mov	r2, r3
    943c:	03832a02 	orreq	r2, r3, #8192	; 0x2000
    9440:	03c13a02 	biceq	r3, r1, #8192	; 0x2000
    9444:	01c920bc 	strheq	r2, [r9, #12]
    9448:	05893064 	streq	r3, [r9, #100]	; 0x64
    944c:	e3120008 	tst	r2, #8
    9450:	0a0000a6 	beq	96f0 <_vfprintf_r+0x310>
    9454:	e5993010 	ldr	r3, [r9, #16]
    9458:	e3530000 	cmp	r3, #0
    945c:	0a0000a3 	beq	96f0 <_vfprintf_r+0x310>
    9460:	e202201a 	and	r2, r2, #26
    9464:	e352000a 	cmp	r2, #10
    9468:	0a0000c2 	beq	9778 <_vfprintf_r+0x398>
    946c:	ed9f8bd3 	vldr	d8, [pc, #844]	; 97c0 <_vfprintf_r+0x3e0>
    9470:	e28d50b7 	add	r5, sp, #183	; 0xb7
    9474:	e28dc0b8 	add	ip, sp, #184	; 0xb8
    9478:	e3a03000 	mov	r3, #0
    947c:	e28d40b8 	add	r4, sp, #184	; 0xb8
    9480:	e58d500c 	str	r5, [sp, #12]
    9484:	e065500c 	rsb	r5, r5, ip
    9488:	e58d4010 	str	r4, [sp, #16]
    948c:	e58d308c 	str	r3, [sp, #140]	; 0x8c
    9490:	e58d3088 	str	r3, [sp, #136]	; 0x88
    9494:	e58d3034 	str	r3, [sp, #52]	; 0x34
    9498:	e58d4084 	str	r4, [sp, #132]	; 0x84
    949c:	e59fb33c 	ldr	fp, [pc, #828]	; 97e0 <_vfprintf_r+0x400>
    94a0:	e58d3054 	str	r3, [sp, #84]	; 0x54
    94a4:	e58d3050 	str	r3, [sp, #80]	; 0x50
    94a8:	e58d3030 	str	r3, [sp, #48]	; 0x30
    94ac:	e58d505c 	str	r5, [sp, #92]	; 0x5c
    94b0:	e1a0600c 	mov	r6, ip
    94b4:	e1a0a009 	mov	sl, r9
    94b8:	e5d73000 	ldrb	r3, [r7]
    94bc:	e3530025 	cmp	r3, #37	; 0x25
    94c0:	13530000 	cmpne	r3, #0
    94c4:	0a0000ba 	beq	97b4 <_vfprintf_r+0x3d4>
    94c8:	e2873001 	add	r3, r7, #1
    94cc:	e1a04003 	mov	r4, r3
    94d0:	e5d33000 	ldrb	r3, [r3]
    94d4:	e3530025 	cmp	r3, #37	; 0x25
    94d8:	13530000 	cmpne	r3, #0
    94dc:	e2843001 	add	r3, r4, #1
    94e0:	1afffff9 	bne	94cc <_vfprintf_r+0xec>
    94e4:	e0545007 	subs	r5, r4, r7
    94e8:	0a00000d 	beq	9524 <_vfprintf_r+0x144>
    94ec:	e59d3088 	ldr	r3, [sp, #136]	; 0x88
    94f0:	e59d208c 	ldr	r2, [sp, #140]	; 0x8c
    94f4:	e2833001 	add	r3, r3, #1
    94f8:	e3530007 	cmp	r3, #7
    94fc:	e0822005 	add	r2, r2, r5
    9500:	e5867000 	str	r7, [r6]
    9504:	e5865004 	str	r5, [r6, #4]
    9508:	e58d3088 	str	r3, [sp, #136]	; 0x88
    950c:	e58d208c 	str	r2, [sp, #140]	; 0x8c
    9510:	d2866008 	addle	r6, r6, #8
    9514:	ca000080 	bgt	971c <_vfprintf_r+0x33c>
    9518:	e59d0030 	ldr	r0, [sp, #48]	; 0x30
    951c:	e0800005 	add	r0, r0, r5
    9520:	e58d0030 	str	r0, [sp, #48]	; 0x30
    9524:	e5d43000 	ldrb	r3, [r4]
    9528:	e3530000 	cmp	r3, #0
    952c:	0a000614 	beq	ad84 <_vfprintf_r+0x19a4>
    9530:	e3a03000 	mov	r3, #0
    9534:	e5cd3067 	strb	r3, [sp, #103]	; 0x67
    9538:	e58d3028 	str	r3, [sp, #40]	; 0x28
    953c:	e58d3014 	str	r3, [sp, #20]
    9540:	e5d48001 	ldrb	r8, [r4, #1]
    9544:	e1a02003 	mov	r2, r3
    9548:	e2847001 	add	r7, r4, #1
    954c:	e3e04000 	mvn	r4, #0
    9550:	e58d4018 	str	r4, [sp, #24]
    9554:	e2877001 	add	r7, r7, #1
    9558:	e2483020 	sub	r3, r8, #32
    955c:	e3530058 	cmp	r3, #88	; 0x58
    9560:	979ff103 	ldrls	pc, [pc, r3, lsl #2]
    9564:	ea000277 	b	9f48 <_vfprintf_r+0xb68>
    9568:	00009aa8 	.word	0x00009aa8
    956c:	00009f48 	.word	0x00009f48
    9570:	00009f48 	.word	0x00009f48
    9574:	00009cd0 	.word	0x00009cd0
    9578:	00009f48 	.word	0x00009f48
    957c:	00009f48 	.word	0x00009f48
    9580:	00009f48 	.word	0x00009f48
    9584:	00009f48 	.word	0x00009f48
    9588:	00009f48 	.word	0x00009f48
    958c:	00009f48 	.word	0x00009f48
    9590:	00009ab8 	.word	0x00009ab8
    9594:	00009a9c 	.word	0x00009a9c
    9598:	00009f48 	.word	0x00009f48
    959c:	000096dc 	.word	0x000096dc
    95a0:	00009d70 	.word	0x00009d70
    95a4:	00009f48 	.word	0x00009f48
    95a8:	00009e14 	.word	0x00009e14
    95ac:	00009e28 	.word	0x00009e28
    95b0:	00009e28 	.word	0x00009e28
    95b4:	00009e28 	.word	0x00009e28
    95b8:	00009e28 	.word	0x00009e28
    95bc:	00009e28 	.word	0x00009e28
    95c0:	00009e28 	.word	0x00009e28
    95c4:	00009e28 	.word	0x00009e28
    95c8:	00009e28 	.word	0x00009e28
    95cc:	00009e28 	.word	0x00009e28
    95d0:	00009f48 	.word	0x00009f48
    95d4:	00009f48 	.word	0x00009f48
    95d8:	00009f48 	.word	0x00009f48
    95dc:	00009f48 	.word	0x00009f48
    95e0:	00009f48 	.word	0x00009f48
    95e4:	00009f48 	.word	0x00009f48
    95e8:	00009f48 	.word	0x00009f48
    95ec:	00009f48 	.word	0x00009f48
    95f0:	00009f48 	.word	0x00009f48
    95f4:	00009f48 	.word	0x00009f48
    95f8:	00009dc4 	.word	0x00009dc4
    95fc:	00009e6c 	.word	0x00009e6c
    9600:	00009f48 	.word	0x00009f48
    9604:	00009e6c 	.word	0x00009e6c
    9608:	00009f48 	.word	0x00009f48
    960c:	00009f48 	.word	0x00009f48
    9610:	00009f48 	.word	0x00009f48
    9614:	00009f48 	.word	0x00009f48
    9618:	00009e58 	.word	0x00009e58
    961c:	00009f48 	.word	0x00009f48
    9620:	00009f48 	.word	0x00009f48
    9624:	00009f08 	.word	0x00009f08
    9628:	00009f48 	.word	0x00009f48
    962c:	00009f48 	.word	0x00009f48
    9630:	00009f48 	.word	0x00009f48
    9634:	00009f48 	.word	0x00009f48
    9638:	00009f48 	.word	0x00009f48
    963c:	00009bcc 	.word	0x00009bcc
    9640:	00009f48 	.word	0x00009f48
    9644:	00009f48 	.word	0x00009f48
    9648:	00009c10 	.word	0x00009c10
    964c:	00009f48 	.word	0x00009f48
    9650:	00009f48 	.word	0x00009f48
    9654:	00009f48 	.word	0x00009f48
    9658:	00009f48 	.word	0x00009f48
    965c:	00009f48 	.word	0x00009f48
    9660:	00009f48 	.word	0x00009f48
    9664:	00009f48 	.word	0x00009f48
    9668:	00009f48 	.word	0x00009f48
    966c:	00009f48 	.word	0x00009f48
    9670:	00009f48 	.word	0x00009f48
    9674:	00009ce4 	.word	0x00009ce4
    9678:	00009d24 	.word	0x00009d24
    967c:	00009e6c 	.word	0x00009e6c
    9680:	00009e6c 	.word	0x00009e6c
    9684:	00009e6c 	.word	0x00009e6c
    9688:	00009c50 	.word	0x00009c50
    968c:	00009d24 	.word	0x00009d24
    9690:	00009f48 	.word	0x00009f48
    9694:	00009f48 	.word	0x00009f48
    9698:	00009c64 	.word	0x00009c64
    969c:	00009f48 	.word	0x00009f48
    96a0:	00009c94 	.word	0x00009c94
    96a4:	00009a24 	.word	0x00009a24
    96a8:	00009a54 	.word	0x00009a54
    96ac:	00009ae0 	.word	0x00009ae0
    96b0:	00009f48 	.word	0x00009f48
    96b4:	00009af4 	.word	0x00009af4
    96b8:	00009f48 	.word	0x00009f48
    96bc:	000097e4 	.word	0x000097e4
    96c0:	00009f48 	.word	0x00009f48
    96c4:	00009f48 	.word	0x00009f48
    96c8:	00009b64 	.word	0x00009b64
    96cc:	e59d5028 	ldr	r5, [sp, #40]	; 0x28
    96d0:	e2655000 	rsb	r5, r5, #0
    96d4:	e58d5028 	str	r5, [sp, #40]	; 0x28
    96d8:	e58d302c 	str	r3, [sp, #44]	; 0x2c
    96dc:	e59d4014 	ldr	r4, [sp, #20]
    96e0:	e3844004 	orr	r4, r4, #4
    96e4:	e58d4014 	str	r4, [sp, #20]
    96e8:	e5d78000 	ldrb	r8, [r7]
    96ec:	eaffff98 	b	9554 <_vfprintf_r+0x174>
    96f0:	e59d0020 	ldr	r0, [sp, #32]
    96f4:	e1a01009 	mov	r1, r9
    96f8:	eb00072c 	bl	b3b0 <__swsetup_r>
    96fc:	e3500000 	cmp	r0, #0
    9700:	01d920bc 	ldrheq	r2, [r9, #12]
    9704:	0affff55 	beq	9460 <_vfprintf_r+0x80>
    9708:	e3e00000 	mvn	r0, #0
    970c:	e28dd0fc 	add	sp, sp, #252	; 0xfc
    9710:	ecbd8b06 	vpop	{d8-d10}
    9714:	e8bd4ff0 	pop	{r4, r5, r6, r7, r8, r9, sl, fp, lr}
    9718:	e12fff1e 	bx	lr
    971c:	e59d0020 	ldr	r0, [sp, #32]
    9720:	e1a0100a 	mov	r1, sl
    9724:	e28d2084 	add	r2, sp, #132	; 0x84
    9728:	eb0019ce 	bl	fe68 <__sprint_r>
    972c:	e3500000 	cmp	r0, #0
    9730:	1a000007 	bne	9754 <_vfprintf_r+0x374>
    9734:	e28d60b8 	add	r6, sp, #184	; 0xb8
    9738:	eaffff76 	b	9518 <_vfprintf_r+0x138>
    973c:	e59d0020 	ldr	r0, [sp, #32]
    9740:	e1a0100a 	mov	r1, sl
    9744:	e28d2084 	add	r2, sp, #132	; 0x84
    9748:	eb0019c6 	bl	fe68 <__sprint_r>
    974c:	e3500000 	cmp	r0, #0
    9750:	0a0002af 	beq	a214 <_vfprintf_r+0xe34>
    9754:	e1a0900a 	mov	r9, sl
    9758:	e1d930bc 	ldrh	r3, [r9, #12]
    975c:	e3130040 	tst	r3, #64	; 0x40
    9760:	1affffe8 	bne	9708 <_vfprintf_r+0x328>
    9764:	e59d0030 	ldr	r0, [sp, #48]	; 0x30
    9768:	e28dd0fc 	add	sp, sp, #252	; 0xfc
    976c:	ecbd8b06 	vpop	{d8-d10}
    9770:	e8bd4ff0 	pop	{r4, r5, r6, r7, r8, r9, sl, fp, lr}
    9774:	e12fff1e 	bx	lr
    9778:	e1d930fe 	ldrsh	r3, [r9, #14]
    977c:	e3530000 	cmp	r3, #0
    9780:	baffff39 	blt	946c <_vfprintf_r+0x8c>
    9784:	e59d0020 	ldr	r0, [sp, #32]
    9788:	e1a01009 	mov	r1, r9
    978c:	e1a02007 	mov	r2, r7
    9790:	e1a03004 	mov	r3, r4
    9794:	eb0006d1 	bl	b2e0 <__sbprintf>
    9798:	e28dd0fc 	add	sp, sp, #252	; 0xfc
    979c:	ecbd8b06 	vpop	{d8-d10}
    97a0:	e8bd4ff0 	pop	{r4, r5, r6, r7, r8, r9, sl, fp, lr}
    97a4:	e12fff1e 	bx	lr
    97a8:	e1a00005 	mov	r0, r5
    97ac:	eb000d7f 	bl	cdb0 <__sinit>
    97b0:	eaffff1d 	b	942c <_vfprintf_r+0x4c>
    97b4:	e1a04007 	mov	r4, r7
    97b8:	eaffff59 	b	9524 <_vfprintf_r+0x144>
    97bc:	e1a00000 	nop			; (mov r0, r0)
	...
    97c8:	0001274c 	.word	0x0001274c
    97cc:	00012738 	.word	0x00012738
    97d0:	0001272c 	.word	0x0001272c
    97d4:	00012728 	.word	0x00012728
    97d8:	0001276c 	.word	0x0001276c
    97dc:	00012768 	.word	0x00012768
    97e0:	00012718 	.word	0x00012718
    97e4:	e59d5014 	ldr	r5, [sp, #20]
    97e8:	e3150020 	tst	r5, #32
    97ec:	e58d803c 	str	r8, [sp, #60]	; 0x3c
    97f0:	0a0000fc 	beq	9be8 <_vfprintf_r+0x808>
    97f4:	e59d402c 	ldr	r4, [sp, #44]	; 0x2c
    97f8:	e2843007 	add	r3, r4, #7
    97fc:	e3c33007 	bic	r3, r3, #7
    9800:	e2835008 	add	r5, r3, #8
    9804:	e58d502c 	str	r5, [sp, #44]	; 0x2c
    9808:	e8930030 	ldm	r3, {r4, r5}
    980c:	e3a03001 	mov	r3, #1
    9810:	e3a09000 	mov	r9, #0
    9814:	e5cd9067 	strb	r9, [sp, #103]	; 0x67
    9818:	e59d0018 	ldr	r0, [sp, #24]
    981c:	e3500000 	cmp	r0, #0
    9820:	a59d1014 	ldrge	r1, [sp, #20]
    9824:	a3c11080 	bicge	r1, r1, #128	; 0x80
    9828:	a58d1014 	strge	r1, [sp, #20]
    982c:	e59d0018 	ldr	r0, [sp, #24]
    9830:	e1942005 	orrs	r2, r4, r5
    9834:	03a02000 	moveq	r2, #0
    9838:	13a02001 	movne	r2, #1
    983c:	e3500000 	cmp	r0, #0
    9840:	13822001 	orrne	r2, r2, #1
    9844:	e3520000 	cmp	r2, #0
    9848:	0a0002bc 	beq	a340 <_vfprintf_r+0xf60>
    984c:	e3530001 	cmp	r3, #1
    9850:	0a00038a 	beq	a680 <_vfprintf_r+0x12a0>
    9854:	e3530002 	cmp	r3, #2
    9858:	e28d20b7 	add	r2, sp, #183	; 0xb7
    985c:	1a000058 	bne	99c4 <_vfprintf_r+0x5e4>
    9860:	e59d0054 	ldr	r0, [sp, #84]	; 0x54
    9864:	e1a03224 	lsr	r3, r4, #4
    9868:	e1833e05 	orr	r3, r3, r5, lsl #28
    986c:	e204c00f 	and	ip, r4, #15
    9870:	e1a01225 	lsr	r1, r5, #4
    9874:	e1a04003 	mov	r4, r3
    9878:	e1a05001 	mov	r5, r1
    987c:	e7d0300c 	ldrb	r3, [r0, ip]
    9880:	e1941005 	orrs	r1, r4, r5
    9884:	e1a08002 	mov	r8, r2
    9888:	e5c23000 	strb	r3, [r2]
    988c:	e2422001 	sub	r2, r2, #1
    9890:	1afffff3 	bne	9864 <_vfprintf_r+0x484>
    9894:	e59d5010 	ldr	r5, [sp, #16]
    9898:	e0684005 	rsb	r4, r8, r5
    989c:	e59d5018 	ldr	r5, [sp, #24]
    98a0:	e3a03000 	mov	r3, #0
    98a4:	e1550004 	cmp	r5, r4
    98a8:	b1a05004 	movlt	r5, r4
    98ac:	e58d501c 	str	r5, [sp, #28]
    98b0:	e58d3040 	str	r3, [sp, #64]	; 0x40
    98b4:	e3590000 	cmp	r9, #0
    98b8:	0a000002 	beq	98c8 <_vfprintf_r+0x4e8>
    98bc:	e59d301c 	ldr	r3, [sp, #28]
    98c0:	e2833001 	add	r3, r3, #1
    98c4:	e58d301c 	str	r3, [sp, #28]
    98c8:	e59d5014 	ldr	r5, [sp, #20]
    98cc:	e2155002 	ands	r5, r5, #2
    98d0:	159d301c 	ldrne	r3, [sp, #28]
    98d4:	e58d5024 	str	r5, [sp, #36]	; 0x24
    98d8:	e59d5014 	ldr	r5, [sp, #20]
    98dc:	12833002 	addne	r3, r3, #2
    98e0:	158d301c 	strne	r3, [sp, #28]
    98e4:	e2155084 	ands	r5, r5, #132	; 0x84
    98e8:	e58d5038 	str	r5, [sp, #56]	; 0x38
    98ec:	1a0001a3 	bne	9f80 <_vfprintf_r+0xba0>
    98f0:	e59d0028 	ldr	r0, [sp, #40]	; 0x28
    98f4:	e59d301c 	ldr	r3, [sp, #28]
    98f8:	e0635000 	rsb	r5, r3, r0
    98fc:	e3550000 	cmp	r5, #0
    9900:	da00019e 	ble	9f80 <_vfprintf_r+0xba0>
    9904:	e51f3134 	ldr	r3, [pc, #-308]	; 97d8 <_vfprintf_r+0x3f8>
    9908:	e28d1088 	add	r1, sp, #136	; 0x88
    990c:	e3550010 	cmp	r5, #16
    9910:	e8910006 	ldm	r1, {r1, r2}
    9914:	e58d3048 	str	r3, [sp, #72]	; 0x48
    9918:	da00001e 	ble	9998 <_vfprintf_r+0x5b8>
    991c:	e58d4058 	str	r4, [sp, #88]	; 0x58
    9920:	e3a09010 	mov	r9, #16
    9924:	e1a03001 	mov	r3, r1
    9928:	e59d4020 	ldr	r4, [sp, #32]
    992c:	ea000002 	b	993c <_vfprintf_r+0x55c>
    9930:	e2455010 	sub	r5, r5, #16
    9934:	e3550010 	cmp	r5, #16
    9938:	da000014 	ble	9990 <_vfprintf_r+0x5b0>
    993c:	e2833001 	add	r3, r3, #1
    9940:	e51f0170 	ldr	r0, [pc, #-368]	; 97d8 <_vfprintf_r+0x3f8>
    9944:	e3530007 	cmp	r3, #7
    9948:	e2822010 	add	r2, r2, #16
    994c:	e8860201 	stm	r6, {r0, r9}
    9950:	e58d3088 	str	r3, [sp, #136]	; 0x88
    9954:	e58d208c 	str	r2, [sp, #140]	; 0x8c
    9958:	d2866008 	addle	r6, r6, #8
    995c:	dafffff3 	ble	9930 <_vfprintf_r+0x550>
    9960:	e1a00004 	mov	r0, r4
    9964:	e1a0100a 	mov	r1, sl
    9968:	e28d2084 	add	r2, sp, #132	; 0x84
    996c:	eb00193d 	bl	fe68 <__sprint_r>
    9970:	e3500000 	cmp	r0, #0
    9974:	1affff76 	bne	9754 <_vfprintf_r+0x374>
    9978:	e2455010 	sub	r5, r5, #16
    997c:	e3550010 	cmp	r5, #16
    9980:	e59d208c 	ldr	r2, [sp, #140]	; 0x8c
    9984:	e59d3088 	ldr	r3, [sp, #136]	; 0x88
    9988:	e28d60b8 	add	r6, sp, #184	; 0xb8
    998c:	caffffea 	bgt	993c <_vfprintf_r+0x55c>
    9990:	e59d4058 	ldr	r4, [sp, #88]	; 0x58
    9994:	e1a01003 	mov	r1, r3
    9998:	e2811001 	add	r1, r1, #1
    999c:	e59d3048 	ldr	r3, [sp, #72]	; 0x48
    99a0:	e0852002 	add	r2, r5, r2
    99a4:	e3510007 	cmp	r1, #7
    99a8:	e58d1088 	str	r1, [sp, #136]	; 0x88
    99ac:	e58d208c 	str	r2, [sp, #140]	; 0x8c
    99b0:	e8860028 	stm	r6, {r3, r5}
    99b4:	ca000339 	bgt	a6a0 <_vfprintf_r+0x12c0>
    99b8:	e2866008 	add	r6, r6, #8
    99bc:	e5dd9067 	ldrb	r9, [sp, #103]	; 0x67
    99c0:	ea00016f 	b	9f84 <_vfprintf_r+0xba4>
    99c4:	e1a031a4 	lsr	r3, r4, #3
    99c8:	e1833e85 	orr	r3, r3, r5, lsl #29
    99cc:	e1a001a5 	lsr	r0, r5, #3
    99d0:	e2041007 	and	r1, r4, #7
    99d4:	e1a05000 	mov	r5, r0
    99d8:	e1a04003 	mov	r4, r3
    99dc:	e2813030 	add	r3, r1, #48	; 0x30
    99e0:	e1941005 	orrs	r1, r4, r5
    99e4:	e1a08002 	mov	r8, r2
    99e8:	e5c23000 	strb	r3, [r2]
    99ec:	e2422001 	sub	r2, r2, #1
    99f0:	1afffff3 	bne	99c4 <_vfprintf_r+0x5e4>
    99f4:	e59d4014 	ldr	r4, [sp, #20]
    99f8:	e3140001 	tst	r4, #1
    99fc:	e1a01008 	mov	r1, r8
    9a00:	0affffa3 	beq	9894 <_vfprintf_r+0x4b4>
    9a04:	e3530030 	cmp	r3, #48	; 0x30
    9a08:	0affffa1 	beq	9894 <_vfprintf_r+0x4b4>
    9a0c:	e59d5010 	ldr	r5, [sp, #16]
    9a10:	e3a03030 	mov	r3, #48	; 0x30
    9a14:	e1a08002 	mov	r8, r2
    9a18:	e0624005 	rsb	r4, r2, r5
    9a1c:	e5413001 	strb	r3, [r1, #-1]
    9a20:	eaffff9d 	b	989c <_vfprintf_r+0x4bc>
    9a24:	e59d5014 	ldr	r5, [sp, #20]
    9a28:	e2153020 	ands	r3, r5, #32
    9a2c:	e58d803c 	str	r8, [sp, #60]	; 0x3c
    9a30:	0a00013b 	beq	9f24 <_vfprintf_r+0xb44>
    9a34:	e59d402c 	ldr	r4, [sp, #44]	; 0x2c
    9a38:	e2843007 	add	r3, r4, #7
    9a3c:	e3c33007 	bic	r3, r3, #7
    9a40:	e2835008 	add	r5, r3, #8
    9a44:	e58d502c 	str	r5, [sp, #44]	; 0x2c
    9a48:	e8930030 	ldm	r3, {r4, r5}
    9a4c:	e3a03000 	mov	r3, #0
    9a50:	eaffff6e 	b	9810 <_vfprintf_r+0x430>
    9a54:	e59d5014 	ldr	r5, [sp, #20]
    9a58:	e3855002 	orr	r5, r5, #2
    9a5c:	e59d302c 	ldr	r3, [sp, #44]	; 0x2c
    9a60:	e58d5014 	str	r5, [sp, #20]
    9a64:	e59d502c 	ldr	r5, [sp, #44]	; 0x2c
    9a68:	e51f02a8 	ldr	r0, [pc, #-680]	; 97c8 <_vfprintf_r+0x3e8>
    9a6c:	e3a08078 	mov	r8, #120	; 0x78
    9a70:	e2855004 	add	r5, r5, #4
    9a74:	e5934000 	ldr	r4, [r3]
    9a78:	e3a03030 	mov	r3, #48	; 0x30
    9a7c:	e58d502c 	str	r5, [sp, #44]	; 0x2c
    9a80:	e5cd3068 	strb	r3, [sp, #104]	; 0x68
    9a84:	e3a05000 	mov	r5, #0
    9a88:	e5cd8069 	strb	r8, [sp, #105]	; 0x69
    9a8c:	e58d803c 	str	r8, [sp, #60]	; 0x3c
    9a90:	e58d0054 	str	r0, [sp, #84]	; 0x54
    9a94:	e3a03002 	mov	r3, #2
    9a98:	eaffff5c 	b	9810 <_vfprintf_r+0x430>
    9a9c:	e5d78000 	ldrb	r8, [r7]
    9aa0:	e3a0202b 	mov	r2, #43	; 0x2b
    9aa4:	eafffeaa 	b	9554 <_vfprintf_r+0x174>
    9aa8:	e3520000 	cmp	r2, #0
    9aac:	e5d78000 	ldrb	r8, [r7]
    9ab0:	03a02020 	moveq	r2, #32
    9ab4:	eafffea6 	b	9554 <_vfprintf_r+0x174>
    9ab8:	e59d502c 	ldr	r5, [sp, #44]	; 0x2c
    9abc:	e5955000 	ldr	r5, [r5]
    9ac0:	e59d402c 	ldr	r4, [sp, #44]	; 0x2c
    9ac4:	e3550000 	cmp	r5, #0
    9ac8:	e58d5028 	str	r5, [sp, #40]	; 0x28
    9acc:	e2843004 	add	r3, r4, #4
    9ad0:	bafffefd 	blt	96cc <_vfprintf_r+0x2ec>
    9ad4:	e58d302c 	str	r3, [sp, #44]	; 0x2c
    9ad8:	e5d78000 	ldrb	r8, [r7]
    9adc:	eafffe9c 	b	9554 <_vfprintf_r+0x174>
    9ae0:	e59d5014 	ldr	r5, [sp, #20]
    9ae4:	e3855020 	orr	r5, r5, #32
    9ae8:	e58d5014 	str	r5, [sp, #20]
    9aec:	e5d78000 	ldrb	r8, [r7]
    9af0:	eafffe97 	b	9554 <_vfprintf_r+0x174>
    9af4:	e59d402c 	ldr	r4, [sp, #44]	; 0x2c
    9af8:	e58d803c 	str	r8, [sp, #60]	; 0x3c
    9afc:	e5948000 	ldr	r8, [r4]
    9b00:	e3a09000 	mov	r9, #0
    9b04:	e1580009 	cmp	r8, r9
    9b08:	e2845004 	add	r5, r4, #4
    9b0c:	e5cd9067 	strb	r9, [sp, #103]	; 0x67
    9b10:	0a000514 	beq	af68 <_vfprintf_r+0x1b88>
    9b14:	e59d4018 	ldr	r4, [sp, #24]
    9b18:	e3540000 	cmp	r4, #0
    9b1c:	e1a00008 	mov	r0, r8
    9b20:	ba0004f1 	blt	aeec <_vfprintf_r+0x1b0c>
    9b24:	e1a01009 	mov	r1, r9
    9b28:	e1a02004 	mov	r2, r4
    9b2c:	eb001207 	bl	e350 <memchr>
    9b30:	e3500000 	cmp	r0, #0
    9b34:	0a000542 	beq	b044 <_vfprintf_r+0x1c64>
    9b38:	e59d4018 	ldr	r4, [sp, #24]
    9b3c:	e0680000 	rsb	r0, r8, r0
    9b40:	e1540000 	cmp	r4, r0
    9b44:	a1a04000 	movge	r4, r0
    9b48:	e58d502c 	str	r5, [sp, #44]	; 0x2c
    9b4c:	e1c45fc4 	bic	r5, r4, r4, asr #31
    9b50:	e58d9018 	str	r9, [sp, #24]
    9b54:	e58d9040 	str	r9, [sp, #64]	; 0x40
    9b58:	e58d501c 	str	r5, [sp, #28]
    9b5c:	e5dd9067 	ldrb	r9, [sp, #103]	; 0x67
    9b60:	eaffff53 	b	98b4 <_vfprintf_r+0x4d4>
    9b64:	e59d5014 	ldr	r5, [sp, #20]
    9b68:	e51f43a8 	ldr	r4, [pc, #-936]	; 97c8 <_vfprintf_r+0x3e8>
    9b6c:	e3150020 	tst	r5, #32
    9b70:	e58d803c 	str	r8, [sp, #60]	; 0x3c
    9b74:	e5cd2067 	strb	r2, [sp, #103]	; 0x67
    9b78:	e58d4054 	str	r4, [sp, #84]	; 0x54
    9b7c:	0a00002a 	beq	9c2c <_vfprintf_r+0x84c>
    9b80:	e59d402c 	ldr	r4, [sp, #44]	; 0x2c
    9b84:	e2843007 	add	r3, r4, #7
    9b88:	e3c33007 	bic	r3, r3, #7
    9b8c:	e2835008 	add	r5, r3, #8
    9b90:	e58d502c 	str	r5, [sp, #44]	; 0x2c
    9b94:	e8930030 	ldm	r3, {r4, r5}
    9b98:	e59d0014 	ldr	r0, [sp, #20]
    9b9c:	e3100001 	tst	r0, #1
    9ba0:	0a00027a 	beq	a590 <_vfprintf_r+0x11b0>
    9ba4:	e1941005 	orrs	r1, r4, r5
    9ba8:	0a000278 	beq	a590 <_vfprintf_r+0x11b0>
    9bac:	e59d203c 	ldr	r2, [sp, #60]	; 0x3c
    9bb0:	e3a03030 	mov	r3, #48	; 0x30
    9bb4:	e3800002 	orr	r0, r0, #2
    9bb8:	e5cd3068 	strb	r3, [sp, #104]	; 0x68
    9bbc:	e5cd2069 	strb	r2, [sp, #105]	; 0x69
    9bc0:	e58d0014 	str	r0, [sp, #20]
    9bc4:	e3a03002 	mov	r3, #2
    9bc8:	eaffff10 	b	9810 <_vfprintf_r+0x430>
    9bcc:	e59d4014 	ldr	r4, [sp, #20]
    9bd0:	e3844010 	orr	r4, r4, #16
    9bd4:	e58d4014 	str	r4, [sp, #20]
    9bd8:	e59d5014 	ldr	r5, [sp, #20]
    9bdc:	e3150020 	tst	r5, #32
    9be0:	e58d803c 	str	r8, [sp, #60]	; 0x3c
    9be4:	1affff02 	bne	97f4 <_vfprintf_r+0x414>
    9be8:	e59d4014 	ldr	r4, [sp, #20]
    9bec:	e3140010 	tst	r4, #16
    9bf0:	0a0003f2 	beq	abc0 <_vfprintf_r+0x17e0>
    9bf4:	e59d502c 	ldr	r5, [sp, #44]	; 0x2c
    9bf8:	e5954000 	ldr	r4, [r5]
    9bfc:	e2855004 	add	r5, r5, #4
    9c00:	e58d502c 	str	r5, [sp, #44]	; 0x2c
    9c04:	e3a03001 	mov	r3, #1
    9c08:	e3a05000 	mov	r5, #0
    9c0c:	eafffeff 	b	9810 <_vfprintf_r+0x430>
    9c10:	e51f544c 	ldr	r5, [pc, #-1100]	; 97cc <_vfprintf_r+0x3ec>
    9c14:	e58d5054 	str	r5, [sp, #84]	; 0x54
    9c18:	e59d5014 	ldr	r5, [sp, #20]
    9c1c:	e3150020 	tst	r5, #32
    9c20:	e58d803c 	str	r8, [sp, #60]	; 0x3c
    9c24:	e5cd2067 	strb	r2, [sp, #103]	; 0x67
    9c28:	1affffd4 	bne	9b80 <_vfprintf_r+0x7a0>
    9c2c:	e59d4014 	ldr	r4, [sp, #20]
    9c30:	e3140010 	tst	r4, #16
    9c34:	0a0003eb 	beq	abe8 <_vfprintf_r+0x1808>
    9c38:	e59d502c 	ldr	r5, [sp, #44]	; 0x2c
    9c3c:	e5954000 	ldr	r4, [r5]
    9c40:	e2855004 	add	r5, r5, #4
    9c44:	e58d502c 	str	r5, [sp, #44]	; 0x2c
    9c48:	e3a05000 	mov	r5, #0
    9c4c:	eaffffd1 	b	9b98 <_vfprintf_r+0x7b8>
    9c50:	e59d4014 	ldr	r4, [sp, #20]
    9c54:	e3844040 	orr	r4, r4, #64	; 0x40
    9c58:	e58d4014 	str	r4, [sp, #20]
    9c5c:	e5d78000 	ldrb	r8, [r7]
    9c60:	eafffe3b 	b	9554 <_vfprintf_r+0x174>
    9c64:	e5d78000 	ldrb	r8, [r7]
    9c68:	e358006c 	cmp	r8, #108	; 0x6c
    9c6c:	059d5014 	ldreq	r5, [sp, #20]
    9c70:	159d4014 	ldrne	r4, [sp, #20]
    9c74:	e1a03007 	mov	r3, r7
    9c78:	03855020 	orreq	r5, r5, #32
    9c7c:	13844010 	orrne	r4, r4, #16
    9c80:	02877001 	addeq	r7, r7, #1
    9c84:	058d5014 	streq	r5, [sp, #20]
    9c88:	05d38001 	ldrbeq	r8, [r3, #1]
    9c8c:	158d4014 	strne	r4, [sp, #20]
    9c90:	eafffe2f 	b	9554 <_vfprintf_r+0x174>
    9c94:	e59d4014 	ldr	r4, [sp, #20]
    9c98:	e3140020 	tst	r4, #32
    9c9c:	e5cd2067 	strb	r2, [sp, #103]	; 0x67
    9ca0:	0a0003e3 	beq	ac34 <_vfprintf_r+0x1854>
    9ca4:	e59d502c 	ldr	r5, [sp, #44]	; 0x2c
    9ca8:	e59d4030 	ldr	r4, [sp, #48]	; 0x30
    9cac:	e5951000 	ldr	r1, [r5]
    9cb0:	e1a05fc4 	asr	r5, r4, #31
    9cb4:	e1a03005 	mov	r3, r5
    9cb8:	e59d502c 	ldr	r5, [sp, #44]	; 0x2c
    9cbc:	e1a02004 	mov	r2, r4
    9cc0:	e2855004 	add	r5, r5, #4
    9cc4:	e58d502c 	str	r5, [sp, #44]	; 0x2c
    9cc8:	e881000c 	stm	r1, {r2, r3}
    9ccc:	eafffdf9 	b	94b8 <_vfprintf_r+0xd8>
    9cd0:	e59d4014 	ldr	r4, [sp, #20]
    9cd4:	e3844001 	orr	r4, r4, #1
    9cd8:	e58d4014 	str	r4, [sp, #20]
    9cdc:	e5d78000 	ldrb	r8, [r7]
    9ce0:	eafffe1b 	b	9554 <_vfprintf_r+0x174>
    9ce4:	e59d302c 	ldr	r3, [sp, #44]	; 0x2c
    9ce8:	e59d502c 	ldr	r5, [sp, #44]	; 0x2c
    9cec:	e5932000 	ldr	r2, [r3]
    9cf0:	e3a04001 	mov	r4, #1
    9cf4:	e3a03000 	mov	r3, #0
    9cf8:	e2855004 	add	r5, r5, #4
    9cfc:	e58d803c 	str	r8, [sp, #60]	; 0x3c
    9d00:	e1a09003 	mov	r9, r3
    9d04:	e58d401c 	str	r4, [sp, #28]
    9d08:	e5cd2090 	strb	r2, [sp, #144]	; 0x90
    9d0c:	e58d502c 	str	r5, [sp, #44]	; 0x2c
    9d10:	e5cd3067 	strb	r3, [sp, #103]	; 0x67
    9d14:	e58d3018 	str	r3, [sp, #24]
    9d18:	e58d3040 	str	r3, [sp, #64]	; 0x40
    9d1c:	e28d8090 	add	r8, sp, #144	; 0x90
    9d20:	eafffee8 	b	98c8 <_vfprintf_r+0x4e8>
    9d24:	e59d5014 	ldr	r5, [sp, #20]
    9d28:	e3150020 	tst	r5, #32
    9d2c:	e58d803c 	str	r8, [sp, #60]	; 0x3c
    9d30:	e5cd2067 	strb	r2, [sp, #103]	; 0x67
    9d34:	0a00002a 	beq	9de4 <_vfprintf_r+0xa04>
    9d38:	e59d402c 	ldr	r4, [sp, #44]	; 0x2c
    9d3c:	e2841007 	add	r1, r4, #7
    9d40:	e3c11007 	bic	r1, r1, #7
    9d44:	e891000c 	ldm	r1, {r2, r3}
    9d48:	e2811008 	add	r1, r1, #8
    9d4c:	e58d102c 	str	r1, [sp, #44]	; 0x2c
    9d50:	e1a04002 	mov	r4, r2
    9d54:	e1a05003 	mov	r5, r3
    9d58:	e3520000 	cmp	r2, #0
    9d5c:	e2d31000 	sbcs	r1, r3, #0
    9d60:	ba000333 	blt	aa34 <_vfprintf_r+0x1654>
    9d64:	e5dd9067 	ldrb	r9, [sp, #103]	; 0x67
    9d68:	e3a03001 	mov	r3, #1
    9d6c:	eafffea9 	b	9818 <_vfprintf_r+0x438>
    9d70:	e5d78000 	ldrb	r8, [r7]
    9d74:	e358002a 	cmp	r8, #42	; 0x2a
    9d78:	e2870001 	add	r0, r7, #1
    9d7c:	0a000538 	beq	b264 <_vfprintf_r+0x1e84>
    9d80:	e2483030 	sub	r3, r8, #48	; 0x30
    9d84:	e3530009 	cmp	r3, #9
    9d88:	83a05000 	movhi	r5, #0
    9d8c:	81a07000 	movhi	r7, r0
    9d90:	858d5018 	strhi	r5, [sp, #24]
    9d94:	8afffdef 	bhi	9558 <_vfprintf_r+0x178>
    9d98:	e3a01000 	mov	r1, #0
    9d9c:	e4d08001 	ldrb	r8, [r0], #1
    9da0:	e0811101 	add	r1, r1, r1, lsl #2
    9da4:	e0831081 	add	r1, r3, r1, lsl #1
    9da8:	e2483030 	sub	r3, r8, #48	; 0x30
    9dac:	e3530009 	cmp	r3, #9
    9db0:	9afffff9 	bls	9d9c <_vfprintf_r+0x9bc>
    9db4:	e1811fc1 	orr	r1, r1, r1, asr #31
    9db8:	e58d1018 	str	r1, [sp, #24]
    9dbc:	e1a07000 	mov	r7, r0
    9dc0:	eafffde4 	b	9558 <_vfprintf_r+0x178>
    9dc4:	e59d4014 	ldr	r4, [sp, #20]
    9dc8:	e3844010 	orr	r4, r4, #16
    9dcc:	e58d4014 	str	r4, [sp, #20]
    9dd0:	e59d5014 	ldr	r5, [sp, #20]
    9dd4:	e3150020 	tst	r5, #32
    9dd8:	e58d803c 	str	r8, [sp, #60]	; 0x3c
    9ddc:	e5cd2067 	strb	r2, [sp, #103]	; 0x67
    9de0:	1affffd4 	bne	9d38 <_vfprintf_r+0x958>
    9de4:	e59d5014 	ldr	r5, [sp, #20]
    9de8:	e3150010 	tst	r5, #16
    9dec:	0a00039a 	beq	ac5c <_vfprintf_r+0x187c>
    9df0:	e59d502c 	ldr	r5, [sp, #44]	; 0x2c
    9df4:	e5954000 	ldr	r4, [r5]
    9df8:	e59d002c 	ldr	r0, [sp, #44]	; 0x2c
    9dfc:	e1a05fc4 	asr	r5, r4, #31
    9e00:	e2800004 	add	r0, r0, #4
    9e04:	e58d002c 	str	r0, [sp, #44]	; 0x2c
    9e08:	e1a02004 	mov	r2, r4
    9e0c:	e1a03005 	mov	r3, r5
    9e10:	eaffffd0 	b	9d58 <_vfprintf_r+0x978>
    9e14:	e59d5014 	ldr	r5, [sp, #20]
    9e18:	e3855080 	orr	r5, r5, #128	; 0x80
    9e1c:	e58d5014 	str	r5, [sp, #20]
    9e20:	e5d78000 	ldrb	r8, [r7]
    9e24:	eafffdca 	b	9554 <_vfprintf_r+0x174>
    9e28:	e3a04000 	mov	r4, #0
    9e2c:	e58d4028 	str	r4, [sp, #40]	; 0x28
    9e30:	e2483030 	sub	r3, r8, #48	; 0x30
    9e34:	e1a01004 	mov	r1, r4
    9e38:	e4d78001 	ldrb	r8, [r7], #1
    9e3c:	e0811101 	add	r1, r1, r1, lsl #2
    9e40:	e0831081 	add	r1, r3, r1, lsl #1
    9e44:	e2483030 	sub	r3, r8, #48	; 0x30
    9e48:	e3530009 	cmp	r3, #9
    9e4c:	9afffff9 	bls	9e38 <_vfprintf_r+0xa58>
    9e50:	e58d1028 	str	r1, [sp, #40]	; 0x28
    9e54:	eafffdbf 	b	9558 <_vfprintf_r+0x178>
    9e58:	e59d5014 	ldr	r5, [sp, #20]
    9e5c:	e3855008 	orr	r5, r5, #8
    9e60:	e58d5014 	str	r5, [sp, #20]
    9e64:	e5d78000 	ldrb	r8, [r7]
    9e68:	eafffdb9 	b	9554 <_vfprintf_r+0x174>
    9e6c:	e59d502c 	ldr	r5, [sp, #44]	; 0x2c
    9e70:	e59d4014 	ldr	r4, [sp, #20]
    9e74:	e2853007 	add	r3, r5, #7
    9e78:	e3140008 	tst	r4, #8
    9e7c:	e3c33007 	bic	r3, r3, #7
    9e80:	0d938b00 	vldreq	d8, [r3]
    9e84:	1d938b00 	vldrne	d8, [r3]
    9e88:	12834008 	addne	r4, r3, #8
    9e8c:	02833008 	addeq	r3, r3, #8
    9e90:	eeb00b48 	vmov.f64	d0, d8
    9e94:	158d402c 	strne	r4, [sp, #44]	; 0x2c
    9e98:	058d302c 	streq	r3, [sp, #44]	; 0x2c
    9e9c:	e58d803c 	str	r8, [sp, #60]	; 0x3c
    9ea0:	e5cd2067 	strb	r2, [sp, #103]	; 0x67
    9ea4:	eb0016d5 	bl	fa00 <__fpclassifyd>
    9ea8:	e3500001 	cmp	r0, #1
    9eac:	1a0002e6 	bne	aa4c <_vfprintf_r+0x166c>
    9eb0:	eeb58bc0 	vcmpe.f64	d8, #0.0
    9eb4:	eef1fa10 	vmrs	APSR_nzcv, fpscr
    9eb8:	e3a04003 	mov	r4, #3
    9ebc:	e3a05000 	mov	r5, #0
    9ec0:	e58d401c 	str	r4, [sp, #28]
    9ec4:	e58d5018 	str	r5, [sp, #24]
    9ec8:	e59d4014 	ldr	r4, [sp, #20]
    9ecc:	e59d503c 	ldr	r5, [sp, #60]	; 0x3c
    9ed0:	43a0902d 	movmi	r9, #45	; 0x2d
    9ed4:	e51f270c 	ldr	r2, [pc, #-1804]	; 97d0 <_vfprintf_r+0x3f0>
    9ed8:	e51f370c 	ldr	r3, [pc, #-1804]	; 97d4 <_vfprintf_r+0x3f4>
    9edc:	e3c44080 	bic	r4, r4, #128	; 0x80
    9ee0:	55dd9067 	ldrbpl	r9, [sp, #103]	; 0x67
    9ee4:	45cd9067 	strbmi	r9, [sp, #103]	; 0x67
    9ee8:	e3550047 	cmp	r5, #71	; 0x47
    9eec:	e3a05000 	mov	r5, #0
    9ef0:	e58d4014 	str	r4, [sp, #20]
    9ef4:	c1a08002 	movgt	r8, r2
    9ef8:	d1a08003 	movle	r8, r3
    9efc:	e3a04003 	mov	r4, #3
    9f00:	e58d5040 	str	r5, [sp, #64]	; 0x40
    9f04:	eafffe6a 	b	98b4 <_vfprintf_r+0x4d4>
    9f08:	e59d4014 	ldr	r4, [sp, #20]
    9f0c:	e3844010 	orr	r4, r4, #16
    9f10:	e58d4014 	str	r4, [sp, #20]
    9f14:	e59d5014 	ldr	r5, [sp, #20]
    9f18:	e2153020 	ands	r3, r5, #32
    9f1c:	e58d803c 	str	r8, [sp, #60]	; 0x3c
    9f20:	1afffec3 	bne	9a34 <_vfprintf_r+0x654>
    9f24:	e59d4014 	ldr	r4, [sp, #20]
    9f28:	e2142010 	ands	r2, r4, #16
    9f2c:	0a000336 	beq	ac0c <_vfprintf_r+0x182c>
    9f30:	e59d502c 	ldr	r5, [sp, #44]	; 0x2c
    9f34:	e5954000 	ldr	r4, [r5]
    9f38:	e2855004 	add	r5, r5, #4
    9f3c:	e58d502c 	str	r5, [sp, #44]	; 0x2c
    9f40:	e3a05000 	mov	r5, #0
    9f44:	eafffe31 	b	9810 <_vfprintf_r+0x430>
    9f48:	e3580000 	cmp	r8, #0
    9f4c:	e58d803c 	str	r8, [sp, #60]	; 0x3c
    9f50:	e5cd2067 	strb	r2, [sp, #103]	; 0x67
    9f54:	0a00038a 	beq	ad84 <_vfprintf_r+0x19a4>
    9f58:	e3a03000 	mov	r3, #0
    9f5c:	e3a04001 	mov	r4, #1
    9f60:	e5cd8090 	strb	r8, [sp, #144]	; 0x90
    9f64:	e1a09003 	mov	r9, r3
    9f68:	e58d401c 	str	r4, [sp, #28]
    9f6c:	e5cd3067 	strb	r3, [sp, #103]	; 0x67
    9f70:	e58d3018 	str	r3, [sp, #24]
    9f74:	e58d3040 	str	r3, [sp, #64]	; 0x40
    9f78:	e28d8090 	add	r8, sp, #144	; 0x90
    9f7c:	eafffe51 	b	98c8 <_vfprintf_r+0x4e8>
    9f80:	e59d208c 	ldr	r2, [sp, #140]	; 0x8c
    9f84:	e3590000 	cmp	r9, #0
    9f88:	0a00000a 	beq	9fb8 <_vfprintf_r+0xbd8>
    9f8c:	e59d3088 	ldr	r3, [sp, #136]	; 0x88
    9f90:	e2833001 	add	r3, r3, #1
    9f94:	e3530007 	cmp	r3, #7
    9f98:	e2822001 	add	r2, r2, #1
    9f9c:	e28d1067 	add	r1, sp, #103	; 0x67
    9fa0:	e58d3088 	str	r3, [sp, #136]	; 0x88
    9fa4:	e3a03001 	mov	r3, #1
    9fa8:	e886000a 	stm	r6, {r1, r3}
    9fac:	e58d208c 	str	r2, [sp, #140]	; 0x8c
    9fb0:	d2866008 	addle	r6, r6, #8
    9fb4:	ca00016c 	bgt	a56c <_vfprintf_r+0x118c>
    9fb8:	e59d5024 	ldr	r5, [sp, #36]	; 0x24
    9fbc:	e3550000 	cmp	r5, #0
    9fc0:	0a00000a 	beq	9ff0 <_vfprintf_r+0xc10>
    9fc4:	e59d3088 	ldr	r3, [sp, #136]	; 0x88
    9fc8:	e2833001 	add	r3, r3, #1
    9fcc:	e3530007 	cmp	r3, #7
    9fd0:	e2822002 	add	r2, r2, #2
    9fd4:	e28d1068 	add	r1, sp, #104	; 0x68
    9fd8:	e58d3088 	str	r3, [sp, #136]	; 0x88
    9fdc:	e3a03002 	mov	r3, #2
    9fe0:	e886000a 	stm	r6, {r1, r3}
    9fe4:	e58d208c 	str	r2, [sp, #140]	; 0x8c
    9fe8:	d2866008 	addle	r6, r6, #8
    9fec:	ca000155 	bgt	a548 <_vfprintf_r+0x1168>
    9ff0:	e59d3038 	ldr	r3, [sp, #56]	; 0x38
    9ff4:	e3530080 	cmp	r3, #128	; 0x80
    9ff8:	0a0000dd 	beq	a374 <_vfprintf_r+0xf94>
    9ffc:	e59d0018 	ldr	r0, [sp, #24]
    a000:	e0645000 	rsb	r5, r4, r0
    a004:	e3550000 	cmp	r5, #0
    a008:	da000034 	ble	a0e0 <_vfprintf_r+0xd00>
    a00c:	e3550010 	cmp	r5, #16
    a010:	d51f1838 	ldrle	r1, [pc, #-2104]	; 97e0 <_vfprintf_r+0x400>
    a014:	e59d3088 	ldr	r3, [sp, #136]	; 0x88
    a018:	d58d1024 	strle	r1, [sp, #36]	; 0x24
    a01c:	da00001e 	ble	a09c <_vfprintf_r+0xcbc>
    a020:	e51f0848 	ldr	r0, [pc, #-2120]	; 97e0 <_vfprintf_r+0x400>
    a024:	e58d4018 	str	r4, [sp, #24]
    a028:	e58d0024 	str	r0, [sp, #36]	; 0x24
    a02c:	e3a09010 	mov	r9, #16
    a030:	e59d4020 	ldr	r4, [sp, #32]
    a034:	ea000002 	b	a044 <_vfprintf_r+0xc64>
    a038:	e2455010 	sub	r5, r5, #16
    a03c:	e3550010 	cmp	r5, #16
    a040:	da000014 	ble	a098 <_vfprintf_r+0xcb8>
    a044:	e2833001 	add	r3, r3, #1
    a048:	e3530007 	cmp	r3, #7
    a04c:	e2822010 	add	r2, r2, #16
    a050:	e586b000 	str	fp, [r6]
    a054:	e5869004 	str	r9, [r6, #4]
    a058:	e58d3088 	str	r3, [sp, #136]	; 0x88
    a05c:	e58d208c 	str	r2, [sp, #140]	; 0x8c
    a060:	d2866008 	addle	r6, r6, #8
    a064:	dafffff3 	ble	a038 <_vfprintf_r+0xc58>
    a068:	e1a00004 	mov	r0, r4
    a06c:	e1a0100a 	mov	r1, sl
    a070:	e28d2084 	add	r2, sp, #132	; 0x84
    a074:	eb00177b 	bl	fe68 <__sprint_r>
    a078:	e3500000 	cmp	r0, #0
    a07c:	1afffdb4 	bne	9754 <_vfprintf_r+0x374>
    a080:	e2455010 	sub	r5, r5, #16
    a084:	e3550010 	cmp	r5, #16
    a088:	e59d208c 	ldr	r2, [sp, #140]	; 0x8c
    a08c:	e59d3088 	ldr	r3, [sp, #136]	; 0x88
    a090:	e28d60b8 	add	r6, sp, #184	; 0xb8
    a094:	caffffea 	bgt	a044 <_vfprintf_r+0xc64>
    a098:	e59d4018 	ldr	r4, [sp, #24]
    a09c:	e2833001 	add	r3, r3, #1
    a0a0:	e3530007 	cmp	r3, #7
    a0a4:	e58d3088 	str	r3, [sp, #136]	; 0x88
    a0a8:	e59d3024 	ldr	r3, [sp, #36]	; 0x24
    a0ac:	e0852002 	add	r2, r5, r2
    a0b0:	e8860028 	stm	r6, {r3, r5}
    a0b4:	e58d208c 	str	r2, [sp, #140]	; 0x8c
    a0b8:	d2866008 	addle	r6, r6, #8
    a0bc:	da000007 	ble	a0e0 <_vfprintf_r+0xd00>
    a0c0:	e59d0020 	ldr	r0, [sp, #32]
    a0c4:	e1a0100a 	mov	r1, sl
    a0c8:	e28d2084 	add	r2, sp, #132	; 0x84
    a0cc:	eb001765 	bl	fe68 <__sprint_r>
    a0d0:	e3500000 	cmp	r0, #0
    a0d4:	1afffd9e 	bne	9754 <_vfprintf_r+0x374>
    a0d8:	e59d208c 	ldr	r2, [sp, #140]	; 0x8c
    a0dc:	e28d60b8 	add	r6, sp, #184	; 0xb8
    a0e0:	e59d5014 	ldr	r5, [sp, #20]
    a0e4:	e3150c01 	tst	r5, #256	; 0x100
    a0e8:	1a00004d 	bne	a224 <_vfprintf_r+0xe44>
    a0ec:	e59d3088 	ldr	r3, [sp, #136]	; 0x88
    a0f0:	e2833001 	add	r3, r3, #1
    a0f4:	e0822004 	add	r2, r2, r4
    a0f8:	e3530007 	cmp	r3, #7
    a0fc:	e58d208c 	str	r2, [sp, #140]	; 0x8c
    a100:	e5868000 	str	r8, [r6]
    a104:	e5864004 	str	r4, [r6, #4]
    a108:	e58d3088 	str	r3, [sp, #136]	; 0x88
    a10c:	ca000104 	bgt	a524 <_vfprintf_r+0x1144>
    a110:	e2866008 	add	r6, r6, #8
    a114:	e59d5014 	ldr	r5, [sp, #20]
    a118:	e3150004 	tst	r5, #4
    a11c:	0a000033 	beq	a1f0 <_vfprintf_r+0xe10>
    a120:	e59d5028 	ldr	r5, [sp, #40]	; 0x28
    a124:	e59d301c 	ldr	r3, [sp, #28]
    a128:	e0634005 	rsb	r4, r3, r5
    a12c:	e3540000 	cmp	r4, #0
    a130:	da00002e 	ble	a1f0 <_vfprintf_r+0xe10>
    a134:	e51f5964 	ldr	r5, [pc, #-2404]	; 97d8 <_vfprintf_r+0x3f8>
    a138:	e3540010 	cmp	r4, #16
    a13c:	e58d5048 	str	r5, [sp, #72]	; 0x48
    a140:	e59d3088 	ldr	r3, [sp, #136]	; 0x88
    a144:	c3a05010 	movgt	r5, #16
    a148:	c59d8020 	ldrgt	r8, [sp, #32]
    a14c:	ca000003 	bgt	a160 <_vfprintf_r+0xd80>
    a150:	ea000017 	b	a1b4 <_vfprintf_r+0xdd4>
    a154:	e2444010 	sub	r4, r4, #16
    a158:	e3540010 	cmp	r4, #16
    a15c:	da000014 	ble	a1b4 <_vfprintf_r+0xdd4>
    a160:	e2833001 	add	r3, r3, #1
    a164:	e51f0994 	ldr	r0, [pc, #-2452]	; 97d8 <_vfprintf_r+0x3f8>
    a168:	e3530007 	cmp	r3, #7
    a16c:	e2822010 	add	r2, r2, #16
    a170:	e8860021 	stm	r6, {r0, r5}
    a174:	e58d3088 	str	r3, [sp, #136]	; 0x88
    a178:	e58d208c 	str	r2, [sp, #140]	; 0x8c
    a17c:	d2866008 	addle	r6, r6, #8
    a180:	dafffff3 	ble	a154 <_vfprintf_r+0xd74>
    a184:	e1a00008 	mov	r0, r8
    a188:	e1a0100a 	mov	r1, sl
    a18c:	e28d2084 	add	r2, sp, #132	; 0x84
    a190:	eb001734 	bl	fe68 <__sprint_r>
    a194:	e3500000 	cmp	r0, #0
    a198:	1afffd6d 	bne	9754 <_vfprintf_r+0x374>
    a19c:	e2444010 	sub	r4, r4, #16
    a1a0:	e3540010 	cmp	r4, #16
    a1a4:	e59d208c 	ldr	r2, [sp, #140]	; 0x8c
    a1a8:	e59d3088 	ldr	r3, [sp, #136]	; 0x88
    a1ac:	e28d60b8 	add	r6, sp, #184	; 0xb8
    a1b0:	caffffea 	bgt	a160 <_vfprintf_r+0xd80>
    a1b4:	e2833001 	add	r3, r3, #1
    a1b8:	e3530007 	cmp	r3, #7
    a1bc:	e58d3088 	str	r3, [sp, #136]	; 0x88
    a1c0:	e59d3048 	ldr	r3, [sp, #72]	; 0x48
    a1c4:	e0842002 	add	r2, r4, r2
    a1c8:	e58d208c 	str	r2, [sp, #140]	; 0x8c
    a1cc:	e8860018 	stm	r6, {r3, r4}
    a1d0:	da000006 	ble	a1f0 <_vfprintf_r+0xe10>
    a1d4:	e59d0020 	ldr	r0, [sp, #32]
    a1d8:	e1a0100a 	mov	r1, sl
    a1dc:	e28d2084 	add	r2, sp, #132	; 0x84
    a1e0:	eb001720 	bl	fe68 <__sprint_r>
    a1e4:	e3500000 	cmp	r0, #0
    a1e8:	1afffd59 	bne	9754 <_vfprintf_r+0x374>
    a1ec:	e59d208c 	ldr	r2, [sp, #140]	; 0x8c
    a1f0:	e59d4030 	ldr	r4, [sp, #48]	; 0x30
    a1f4:	e59d501c 	ldr	r5, [sp, #28]
    a1f8:	e59d0028 	ldr	r0, [sp, #40]	; 0x28
    a1fc:	e1550000 	cmp	r5, r0
    a200:	a0844005 	addge	r4, r4, r5
    a204:	b0844000 	addlt	r4, r4, r0
    a208:	e3520000 	cmp	r2, #0
    a20c:	e58d4030 	str	r4, [sp, #48]	; 0x30
    a210:	1afffd49 	bne	973c <_vfprintf_r+0x35c>
    a214:	e3a03000 	mov	r3, #0
    a218:	e58d3088 	str	r3, [sp, #136]	; 0x88
    a21c:	e28d60b8 	add	r6, sp, #184	; 0xb8
    a220:	eafffca4 	b	94b8 <_vfprintf_r+0xd8>
    a224:	e59d403c 	ldr	r4, [sp, #60]	; 0x3c
    a228:	e3540065 	cmp	r4, #101	; 0x65
    a22c:	da00008b 	ble	a460 <_vfprintf_r+0x1080>
    a230:	eeb58b40 	vcmp.f64	d8, #0.0
    a234:	eef1fa10 	vmrs	APSR_nzcv, fpscr
    a238:	1a0000d6 	bne	a598 <_vfprintf_r+0x11b8>
    a23c:	e59d3088 	ldr	r3, [sp, #136]	; 0x88
    a240:	e51f5a6c 	ldr	r5, [pc, #-2668]	; 97dc <_vfprintf_r+0x3fc>
    a244:	e2833001 	add	r3, r3, #1
    a248:	e2822001 	add	r2, r2, #1
    a24c:	e3530007 	cmp	r3, #7
    a250:	e3a01001 	mov	r1, #1
    a254:	e5865000 	str	r5, [r6]
    a258:	e5861004 	str	r1, [r6, #4]
    a25c:	e58d208c 	str	r2, [sp, #140]	; 0x8c
    a260:	e58d3088 	str	r3, [sp, #136]	; 0x88
    a264:	d2866008 	addle	r6, r6, #8
    a268:	ca000281 	bgt	ac74 <_vfprintf_r+0x1894>
    a26c:	e59d306c 	ldr	r3, [sp, #108]	; 0x6c
    a270:	e59d4034 	ldr	r4, [sp, #52]	; 0x34
    a274:	e1530004 	cmp	r3, r4
    a278:	ba000002 	blt	a288 <_vfprintf_r+0xea8>
    a27c:	e59d5014 	ldr	r5, [sp, #20]
    a280:	e3150001 	tst	r5, #1
    a284:	0affffa2 	beq	a114 <_vfprintf_r+0xd34>
    a288:	e59d3088 	ldr	r3, [sp, #136]	; 0x88
    a28c:	e59d404c 	ldr	r4, [sp, #76]	; 0x4c
    a290:	e2833001 	add	r3, r3, #1
    a294:	e59d5044 	ldr	r5, [sp, #68]	; 0x44
    a298:	e0822004 	add	r2, r2, r4
    a29c:	e3530007 	cmp	r3, #7
    a2a0:	e5865000 	str	r5, [r6]
    a2a4:	e5864004 	str	r4, [r6, #4]
    a2a8:	e58d208c 	str	r2, [sp, #140]	; 0x8c
    a2ac:	e58d3088 	str	r3, [sp, #136]	; 0x88
    a2b0:	d2866008 	addle	r6, r6, #8
    a2b4:	ca0002e6 	bgt	ae54 <_vfprintf_r+0x1a74>
    a2b8:	e59d5034 	ldr	r5, [sp, #52]	; 0x34
    a2bc:	e2454001 	sub	r4, r5, #1
    a2c0:	e3540000 	cmp	r4, #0
    a2c4:	daffff92 	ble	a114 <_vfprintf_r+0xd34>
    a2c8:	e51f5af0 	ldr	r5, [pc, #-2800]	; 97e0 <_vfprintf_r+0x400>
    a2cc:	e3540010 	cmp	r4, #16
    a2d0:	e58d5024 	str	r5, [sp, #36]	; 0x24
    a2d4:	e59d3088 	ldr	r3, [sp, #136]	; 0x88
    a2d8:	c3a05010 	movgt	r5, #16
    a2dc:	c59d8020 	ldrgt	r8, [sp, #32]
    a2e0:	ca000003 	bgt	a2f4 <_vfprintf_r+0xf14>
    a2e4:	ea000118 	b	a74c <_vfprintf_r+0x136c>
    a2e8:	e2444010 	sub	r4, r4, #16
    a2ec:	e3540010 	cmp	r4, #16
    a2f0:	da000115 	ble	a74c <_vfprintf_r+0x136c>
    a2f4:	e2833001 	add	r3, r3, #1
    a2f8:	e3530007 	cmp	r3, #7
    a2fc:	e2822010 	add	r2, r2, #16
    a300:	e586b000 	str	fp, [r6]
    a304:	e5865004 	str	r5, [r6, #4]
    a308:	e58d3088 	str	r3, [sp, #136]	; 0x88
    a30c:	e58d208c 	str	r2, [sp, #140]	; 0x8c
    a310:	d2866008 	addle	r6, r6, #8
    a314:	dafffff3 	ble	a2e8 <_vfprintf_r+0xf08>
    a318:	e1a00008 	mov	r0, r8
    a31c:	e1a0100a 	mov	r1, sl
    a320:	e28d2084 	add	r2, sp, #132	; 0x84
    a324:	eb0016cf 	bl	fe68 <__sprint_r>
    a328:	e3500000 	cmp	r0, #0
    a32c:	1afffd08 	bne	9754 <_vfprintf_r+0x374>
    a330:	e59d208c 	ldr	r2, [sp, #140]	; 0x8c
    a334:	e59d3088 	ldr	r3, [sp, #136]	; 0x88
    a338:	e28d60b8 	add	r6, sp, #184	; 0xb8
    a33c:	eaffffe9 	b	a2e8 <_vfprintf_r+0xf08>
    a340:	e3530000 	cmp	r3, #0
    a344:	11a04002 	movne	r4, r2
    a348:	128d80b8 	addne	r8, sp, #184	; 0xb8
    a34c:	1afffd52 	bne	989c <_vfprintf_r+0x4bc>
    a350:	e59d4014 	ldr	r4, [sp, #20]
    a354:	e3140001 	tst	r4, #1
    a358:	13a03030 	movne	r3, #48	; 0x30
    a35c:	15cd30b7 	strbne	r3, [sp, #183]	; 0xb7
    a360:	159d405c 	ldrne	r4, [sp, #92]	; 0x5c
    a364:	128d80b7 	addne	r8, sp, #183	; 0xb7
    a368:	01a04003 	moveq	r4, r3
    a36c:	028d80b8 	addeq	r8, sp, #184	; 0xb8
    a370:	eafffd49 	b	989c <_vfprintf_r+0x4bc>
    a374:	e59d0028 	ldr	r0, [sp, #40]	; 0x28
    a378:	e59d301c 	ldr	r3, [sp, #28]
    a37c:	e0635000 	rsb	r5, r3, r0
    a380:	e3550000 	cmp	r5, #0
    a384:	daffff1c 	ble	9ffc <_vfprintf_r+0xc1c>
    a388:	e3550010 	cmp	r5, #16
    a38c:	d51f0bb4 	ldrle	r0, [pc, #-2996]	; 97e0 <_vfprintf_r+0x400>
    a390:	e59d3088 	ldr	r3, [sp, #136]	; 0x88
    a394:	d58d0024 	strle	r0, [sp, #36]	; 0x24
    a398:	da00001e 	ble	a418 <_vfprintf_r+0x1038>
    a39c:	e51f1bc4 	ldr	r1, [pc, #-3012]	; 97e0 <_vfprintf_r+0x400>
    a3a0:	e58d4038 	str	r4, [sp, #56]	; 0x38
    a3a4:	e58d1024 	str	r1, [sp, #36]	; 0x24
    a3a8:	e3a09010 	mov	r9, #16
    a3ac:	e59d4020 	ldr	r4, [sp, #32]
    a3b0:	ea000002 	b	a3c0 <_vfprintf_r+0xfe0>
    a3b4:	e2455010 	sub	r5, r5, #16
    a3b8:	e3550010 	cmp	r5, #16
    a3bc:	da000014 	ble	a414 <_vfprintf_r+0x1034>
    a3c0:	e2833001 	add	r3, r3, #1
    a3c4:	e3530007 	cmp	r3, #7
    a3c8:	e2822010 	add	r2, r2, #16
    a3cc:	e586b000 	str	fp, [r6]
    a3d0:	e5869004 	str	r9, [r6, #4]
    a3d4:	e58d3088 	str	r3, [sp, #136]	; 0x88
    a3d8:	e58d208c 	str	r2, [sp, #140]	; 0x8c
    a3dc:	d2866008 	addle	r6, r6, #8
    a3e0:	dafffff3 	ble	a3b4 <_vfprintf_r+0xfd4>
    a3e4:	e1a00004 	mov	r0, r4
    a3e8:	e1a0100a 	mov	r1, sl
    a3ec:	e28d2084 	add	r2, sp, #132	; 0x84
    a3f0:	eb00169c 	bl	fe68 <__sprint_r>
    a3f4:	e3500000 	cmp	r0, #0
    a3f8:	1afffcd5 	bne	9754 <_vfprintf_r+0x374>
    a3fc:	e2455010 	sub	r5, r5, #16
    a400:	e3550010 	cmp	r5, #16
    a404:	e59d208c 	ldr	r2, [sp, #140]	; 0x8c
    a408:	e59d3088 	ldr	r3, [sp, #136]	; 0x88
    a40c:	e28d60b8 	add	r6, sp, #184	; 0xb8
    a410:	caffffea 	bgt	a3c0 <_vfprintf_r+0xfe0>
    a414:	e59d4038 	ldr	r4, [sp, #56]	; 0x38
    a418:	e2833001 	add	r3, r3, #1
    a41c:	e3530007 	cmp	r3, #7
    a420:	e58d3088 	str	r3, [sp, #136]	; 0x88
    a424:	e59d3024 	ldr	r3, [sp, #36]	; 0x24
    a428:	e0852002 	add	r2, r5, r2
    a42c:	e8860028 	stm	r6, {r3, r5}
    a430:	e58d208c 	str	r2, [sp, #140]	; 0x8c
    a434:	d2866008 	addle	r6, r6, #8
    a438:	dafffeef 	ble	9ffc <_vfprintf_r+0xc1c>
    a43c:	e59d0020 	ldr	r0, [sp, #32]
    a440:	e1a0100a 	mov	r1, sl
    a444:	e28d2084 	add	r2, sp, #132	; 0x84
    a448:	eb001686 	bl	fe68 <__sprint_r>
    a44c:	e3500000 	cmp	r0, #0
    a450:	1afffcbf 	bne	9754 <_vfprintf_r+0x374>
    a454:	e59d208c 	ldr	r2, [sp, #140]	; 0x8c
    a458:	e28d60b8 	add	r6, sp, #184	; 0xb8
    a45c:	eafffee6 	b	9ffc <_vfprintf_r+0xc1c>
    a460:	e59d4034 	ldr	r4, [sp, #52]	; 0x34
    a464:	e59d3088 	ldr	r3, [sp, #136]	; 0x88
    a468:	e3540001 	cmp	r4, #1
    a46c:	e2833001 	add	r3, r3, #1
    a470:	e2822001 	add	r2, r2, #1
    a474:	da000123 	ble	a908 <_vfprintf_r+0x1528>
    a478:	e3530007 	cmp	r3, #7
    a47c:	e3a01001 	mov	r1, #1
    a480:	e58d208c 	str	r2, [sp, #140]	; 0x8c
    a484:	e5868000 	str	r8, [r6]
    a488:	e58d3088 	str	r3, [sp, #136]	; 0x88
    a48c:	e5861004 	str	r1, [r6, #4]
    a490:	d2866008 	addle	r6, r6, #8
    a494:	ca00012f 	bgt	a958 <_vfprintf_r+0x1578>
    a498:	e59d404c 	ldr	r4, [sp, #76]	; 0x4c
    a49c:	e2833001 	add	r3, r3, #1
    a4a0:	e59d5044 	ldr	r5, [sp, #68]	; 0x44
    a4a4:	e3530007 	cmp	r3, #7
    a4a8:	e0822004 	add	r2, r2, r4
    a4ac:	e5865000 	str	r5, [r6]
    a4b0:	e5864004 	str	r4, [r6, #4]
    a4b4:	e58d3088 	str	r3, [sp, #136]	; 0x88
    a4b8:	e58d208c 	str	r2, [sp, #140]	; 0x8c
    a4bc:	d2866008 	addle	r6, r6, #8
    a4c0:	ca000138 	bgt	a9a8 <_vfprintf_r+0x15c8>
    a4c4:	eeb58b40 	vcmp.f64	d8, #0.0
    a4c8:	eef1fa10 	vmrs	APSR_nzcv, fpscr
    a4cc:	0a00007d 	beq	a6c8 <_vfprintf_r+0x12e8>
    a4d0:	e59d4034 	ldr	r4, [sp, #52]	; 0x34
    a4d4:	e2833001 	add	r3, r3, #1
    a4d8:	e2441001 	sub	r1, r4, #1
    a4dc:	e2880001 	add	r0, r8, #1
    a4e0:	e0812002 	add	r2, r1, r2
    a4e4:	e3530007 	cmp	r3, #7
    a4e8:	e58d3088 	str	r3, [sp, #136]	; 0x88
    a4ec:	e58d208c 	str	r2, [sp, #140]	; 0x8c
    a4f0:	e5860000 	str	r0, [r6]
    a4f4:	e5861004 	str	r1, [r6, #4]
    a4f8:	ca00010c 	bgt	a930 <_vfprintf_r+0x1550>
    a4fc:	e2866008 	add	r6, r6, #8
    a500:	e59d4050 	ldr	r4, [sp, #80]	; 0x50
    a504:	e2833001 	add	r3, r3, #1
    a508:	e0822004 	add	r2, r2, r4
    a50c:	e28d1074 	add	r1, sp, #116	; 0x74
    a510:	e3530007 	cmp	r3, #7
    a514:	e58d3088 	str	r3, [sp, #136]	; 0x88
    a518:	e58d208c 	str	r2, [sp, #140]	; 0x8c
    a51c:	e8860012 	stm	r6, {r1, r4}
    a520:	dafffefa 	ble	a110 <_vfprintf_r+0xd30>
    a524:	e59d0020 	ldr	r0, [sp, #32]
    a528:	e1a0100a 	mov	r1, sl
    a52c:	e28d2084 	add	r2, sp, #132	; 0x84
    a530:	eb00164c 	bl	fe68 <__sprint_r>
    a534:	e3500000 	cmp	r0, #0
    a538:	1afffc85 	bne	9754 <_vfprintf_r+0x374>
    a53c:	e59d208c 	ldr	r2, [sp, #140]	; 0x8c
    a540:	e28d60b8 	add	r6, sp, #184	; 0xb8
    a544:	eafffef2 	b	a114 <_vfprintf_r+0xd34>
    a548:	e59d0020 	ldr	r0, [sp, #32]
    a54c:	e1a0100a 	mov	r1, sl
    a550:	e28d2084 	add	r2, sp, #132	; 0x84
    a554:	eb001643 	bl	fe68 <__sprint_r>
    a558:	e3500000 	cmp	r0, #0
    a55c:	1afffc7c 	bne	9754 <_vfprintf_r+0x374>
    a560:	e59d208c 	ldr	r2, [sp, #140]	; 0x8c
    a564:	e28d60b8 	add	r6, sp, #184	; 0xb8
    a568:	eafffea0 	b	9ff0 <_vfprintf_r+0xc10>
    a56c:	e59d0020 	ldr	r0, [sp, #32]
    a570:	e1a0100a 	mov	r1, sl
    a574:	e28d2084 	add	r2, sp, #132	; 0x84
    a578:	eb00163a 	bl	fe68 <__sprint_r>
    a57c:	e3500000 	cmp	r0, #0
    a580:	1afffc73 	bne	9754 <_vfprintf_r+0x374>
    a584:	e59d208c 	ldr	r2, [sp, #140]	; 0x8c
    a588:	e28d60b8 	add	r6, sp, #184	; 0xb8
    a58c:	eafffe89 	b	9fb8 <_vfprintf_r+0xbd8>
    a590:	e3a03002 	mov	r3, #2
    a594:	eafffc9d 	b	9810 <_vfprintf_r+0x430>
    a598:	e59d406c 	ldr	r4, [sp, #108]	; 0x6c
    a59c:	e3540000 	cmp	r4, #0
    a5a0:	da0001bc 	ble	ac98 <_vfprintf_r+0x18b8>
    a5a4:	e59d5040 	ldr	r5, [sp, #64]	; 0x40
    a5a8:	e59d4034 	ldr	r4, [sp, #52]	; 0x34
    a5ac:	e1540005 	cmp	r4, r5
    a5b0:	a1a04005 	movge	r4, r5
    a5b4:	e59d5034 	ldr	r5, [sp, #52]	; 0x34
    a5b8:	e3540000 	cmp	r4, #0
    a5bc:	e0889005 	add	r9, r8, r5
    a5c0:	da000009 	ble	a5ec <_vfprintf_r+0x120c>
    a5c4:	e59d3088 	ldr	r3, [sp, #136]	; 0x88
    a5c8:	e2833001 	add	r3, r3, #1
    a5cc:	e0822004 	add	r2, r2, r4
    a5d0:	e3530007 	cmp	r3, #7
    a5d4:	e5868000 	str	r8, [r6]
    a5d8:	e5864004 	str	r4, [r6, #4]
    a5dc:	e58d208c 	str	r2, [sp, #140]	; 0x8c
    a5e0:	e58d3088 	str	r3, [sp, #136]	; 0x88
    a5e4:	d2866008 	addle	r6, r6, #8
    a5e8:	ca000249 	bgt	af14 <_vfprintf_r+0x1b34>
    a5ec:	e59d3040 	ldr	r3, [sp, #64]	; 0x40
    a5f0:	e1c44fc4 	bic	r4, r4, r4, asr #31
    a5f4:	e0644003 	rsb	r4, r4, r3
    a5f8:	e3540000 	cmp	r4, #0
    a5fc:	da00006e 	ble	a7bc <_vfprintf_r+0x13dc>
    a600:	e51f5e28 	ldr	r5, [pc, #-3624]	; 97e0 <_vfprintf_r+0x400>
    a604:	e3540010 	cmp	r4, #16
    a608:	e59d3088 	ldr	r3, [sp, #136]	; 0x88
    a60c:	e58d5024 	str	r5, [sp, #36]	; 0x24
    a610:	da000058 	ble	a778 <_vfprintf_r+0x1398>
    a614:	e58d7018 	str	r7, [sp, #24]
    a618:	e3a05010 	mov	r5, #16
    a61c:	e1a07004 	mov	r7, r4
    a620:	e59d4020 	ldr	r4, [sp, #32]
    a624:	ea000002 	b	a634 <_vfprintf_r+0x1254>
    a628:	e2477010 	sub	r7, r7, #16
    a62c:	e3570010 	cmp	r7, #16
    a630:	da00004e 	ble	a770 <_vfprintf_r+0x1390>
    a634:	e2833001 	add	r3, r3, #1
    a638:	e3530007 	cmp	r3, #7
    a63c:	e2822010 	add	r2, r2, #16
    a640:	e586b000 	str	fp, [r6]
    a644:	e5865004 	str	r5, [r6, #4]
    a648:	e58d3088 	str	r3, [sp, #136]	; 0x88
    a64c:	e58d208c 	str	r2, [sp, #140]	; 0x8c
    a650:	d2866008 	addle	r6, r6, #8
    a654:	dafffff3 	ble	a628 <_vfprintf_r+0x1248>
    a658:	e1a00004 	mov	r0, r4
    a65c:	e1a0100a 	mov	r1, sl
    a660:	e28d2084 	add	r2, sp, #132	; 0x84
    a664:	eb0015ff 	bl	fe68 <__sprint_r>
    a668:	e3500000 	cmp	r0, #0
    a66c:	1afffc38 	bne	9754 <_vfprintf_r+0x374>
    a670:	e59d208c 	ldr	r2, [sp, #140]	; 0x8c
    a674:	e59d3088 	ldr	r3, [sp, #136]	; 0x88
    a678:	e28d60b8 	add	r6, sp, #184	; 0xb8
    a67c:	eaffffe9 	b	a628 <_vfprintf_r+0x1248>
    a680:	e3550000 	cmp	r5, #0
    a684:	03540009 	cmpeq	r4, #9
    a688:	8a0000d0 	bhi	a9d0 <_vfprintf_r+0x15f0>
    a68c:	e2844030 	add	r4, r4, #48	; 0x30
    a690:	e5cd40b7 	strb	r4, [sp, #183]	; 0xb7
    a694:	e28d80b7 	add	r8, sp, #183	; 0xb7
    a698:	e59d405c 	ldr	r4, [sp, #92]	; 0x5c
    a69c:	eafffc7e 	b	989c <_vfprintf_r+0x4bc>
    a6a0:	e59d0020 	ldr	r0, [sp, #32]
    a6a4:	e1a0100a 	mov	r1, sl
    a6a8:	e28d2084 	add	r2, sp, #132	; 0x84
    a6ac:	eb0015ed 	bl	fe68 <__sprint_r>
    a6b0:	e3500000 	cmp	r0, #0
    a6b4:	1afffc26 	bne	9754 <_vfprintf_r+0x374>
    a6b8:	e5dd9067 	ldrb	r9, [sp, #103]	; 0x67
    a6bc:	e59d208c 	ldr	r2, [sp, #140]	; 0x8c
    a6c0:	e28d60b8 	add	r6, sp, #184	; 0xb8
    a6c4:	eafffe2e 	b	9f84 <_vfprintf_r+0xba4>
    a6c8:	e59d5034 	ldr	r5, [sp, #52]	; 0x34
    a6cc:	e2454001 	sub	r4, r5, #1
    a6d0:	e3540000 	cmp	r4, #0
    a6d4:	daffff89 	ble	a500 <_vfprintf_r+0x1120>
    a6d8:	e51f5f00 	ldr	r5, [pc, #-3840]	; 97e0 <_vfprintf_r+0x400>
    a6dc:	e3540010 	cmp	r4, #16
    a6e0:	e58d5024 	str	r5, [sp, #36]	; 0x24
    a6e4:	c59d8020 	ldrgt	r8, [sp, #32]
    a6e8:	c3a05010 	movgt	r5, #16
    a6ec:	ca000003 	bgt	a700 <_vfprintf_r+0x1320>
    a6f0:	ea0000a2 	b	a980 <_vfprintf_r+0x15a0>
    a6f4:	e2444010 	sub	r4, r4, #16
    a6f8:	e3540010 	cmp	r4, #16
    a6fc:	da00009f 	ble	a980 <_vfprintf_r+0x15a0>
    a700:	e2833001 	add	r3, r3, #1
    a704:	e3530007 	cmp	r3, #7
    a708:	e2822010 	add	r2, r2, #16
    a70c:	e586b000 	str	fp, [r6]
    a710:	e5865004 	str	r5, [r6, #4]
    a714:	e58d3088 	str	r3, [sp, #136]	; 0x88
    a718:	e58d208c 	str	r2, [sp, #140]	; 0x8c
    a71c:	d2866008 	addle	r6, r6, #8
    a720:	dafffff3 	ble	a6f4 <_vfprintf_r+0x1314>
    a724:	e1a00008 	mov	r0, r8
    a728:	e1a0100a 	mov	r1, sl
    a72c:	e28d2084 	add	r2, sp, #132	; 0x84
    a730:	eb0015cc 	bl	fe68 <__sprint_r>
    a734:	e3500000 	cmp	r0, #0
    a738:	1afffc05 	bne	9754 <_vfprintf_r+0x374>
    a73c:	e59d208c 	ldr	r2, [sp, #140]	; 0x8c
    a740:	e59d3088 	ldr	r3, [sp, #136]	; 0x88
    a744:	e28d60b8 	add	r6, sp, #184	; 0xb8
    a748:	eaffffe9 	b	a6f4 <_vfprintf_r+0x1314>
    a74c:	e2833001 	add	r3, r3, #1
    a750:	e58d3088 	str	r3, [sp, #136]	; 0x88
    a754:	e3530007 	cmp	r3, #7
    a758:	e59d3024 	ldr	r3, [sp, #36]	; 0x24
    a75c:	e0842002 	add	r2, r4, r2
    a760:	e58d208c 	str	r2, [sp, #140]	; 0x8c
    a764:	e8860018 	stm	r6, {r3, r4}
    a768:	dafffe68 	ble	a110 <_vfprintf_r+0xd30>
    a76c:	eaffff6c 	b	a524 <_vfprintf_r+0x1144>
    a770:	e1a04007 	mov	r4, r7
    a774:	e59d7018 	ldr	r7, [sp, #24]
    a778:	e2833001 	add	r3, r3, #1
    a77c:	e3530007 	cmp	r3, #7
    a780:	e58d3088 	str	r3, [sp, #136]	; 0x88
    a784:	e59d3024 	ldr	r3, [sp, #36]	; 0x24
    a788:	e0842002 	add	r2, r4, r2
    a78c:	e8860018 	stm	r6, {r3, r4}
    a790:	e58d208c 	str	r2, [sp, #140]	; 0x8c
    a794:	d2866008 	addle	r6, r6, #8
    a798:	da000007 	ble	a7bc <_vfprintf_r+0x13dc>
    a79c:	e59d0020 	ldr	r0, [sp, #32]
    a7a0:	e1a0100a 	mov	r1, sl
    a7a4:	e28d2084 	add	r2, sp, #132	; 0x84
    a7a8:	eb0015ae 	bl	fe68 <__sprint_r>
    a7ac:	e3500000 	cmp	r0, #0
    a7b0:	1afffbe7 	bne	9754 <_vfprintf_r+0x374>
    a7b4:	e59d208c 	ldr	r2, [sp, #140]	; 0x8c
    a7b8:	e28d60b8 	add	r6, sp, #184	; 0xb8
    a7bc:	e59d406c 	ldr	r4, [sp, #108]	; 0x6c
    a7c0:	e59d5034 	ldr	r5, [sp, #52]	; 0x34
    a7c4:	e59d3040 	ldr	r3, [sp, #64]	; 0x40
    a7c8:	e1540005 	cmp	r4, r5
    a7cc:	e0888003 	add	r8, r8, r3
    a7d0:	ba000035 	blt	a8ac <_vfprintf_r+0x14cc>
    a7d4:	e59d5014 	ldr	r5, [sp, #20]
    a7d8:	e3150001 	tst	r5, #1
    a7dc:	1a000032 	bne	a8ac <_vfprintf_r+0x14cc>
    a7e0:	e59d0034 	ldr	r0, [sp, #52]	; 0x34
    a7e4:	e0685009 	rsb	r5, r8, r9
    a7e8:	e0644000 	rsb	r4, r4, r0
    a7ec:	e1550004 	cmp	r5, r4
    a7f0:	a1a05004 	movge	r5, r4
    a7f4:	e3550000 	cmp	r5, #0
    a7f8:	da000009 	ble	a824 <_vfprintf_r+0x1444>
    a7fc:	e59d3088 	ldr	r3, [sp, #136]	; 0x88
    a800:	e2833001 	add	r3, r3, #1
    a804:	e0852002 	add	r2, r5, r2
    a808:	e3530007 	cmp	r3, #7
    a80c:	e5868000 	str	r8, [r6]
    a810:	e5865004 	str	r5, [r6, #4]
    a814:	e58d208c 	str	r2, [sp, #140]	; 0x8c
    a818:	e58d3088 	str	r3, [sp, #136]	; 0x88
    a81c:	d2866008 	addle	r6, r6, #8
    a820:	ca0001c4 	bgt	af38 <_vfprintf_r+0x1b58>
    a824:	e1c55fc5 	bic	r5, r5, r5, asr #31
    a828:	e0654004 	rsb	r4, r5, r4
    a82c:	e3540000 	cmp	r4, #0
    a830:	dafffe37 	ble	a114 <_vfprintf_r+0xd34>
    a834:	e59f5a64 	ldr	r5, [pc, #2660]	; b2a0 <_vfprintf_r+0x1ec0>
    a838:	e3540010 	cmp	r4, #16
    a83c:	e58d5024 	str	r5, [sp, #36]	; 0x24
    a840:	e59d3088 	ldr	r3, [sp, #136]	; 0x88
    a844:	c3a05010 	movgt	r5, #16
    a848:	c59d8020 	ldrgt	r8, [sp, #32]
    a84c:	ca000003 	bgt	a860 <_vfprintf_r+0x1480>
    a850:	eaffffbd 	b	a74c <_vfprintf_r+0x136c>
    a854:	e2444010 	sub	r4, r4, #16
    a858:	e3540010 	cmp	r4, #16
    a85c:	daffffba 	ble	a74c <_vfprintf_r+0x136c>
    a860:	e2833001 	add	r3, r3, #1
    a864:	e3530007 	cmp	r3, #7
    a868:	e2822010 	add	r2, r2, #16
    a86c:	e586b000 	str	fp, [r6]
    a870:	e5865004 	str	r5, [r6, #4]
    a874:	e58d3088 	str	r3, [sp, #136]	; 0x88
    a878:	e58d208c 	str	r2, [sp, #140]	; 0x8c
    a87c:	d2866008 	addle	r6, r6, #8
    a880:	dafffff3 	ble	a854 <_vfprintf_r+0x1474>
    a884:	e1a00008 	mov	r0, r8
    a888:	e1a0100a 	mov	r1, sl
    a88c:	e28d2084 	add	r2, sp, #132	; 0x84
    a890:	eb001574 	bl	fe68 <__sprint_r>
    a894:	e3500000 	cmp	r0, #0
    a898:	1afffbad 	bne	9754 <_vfprintf_r+0x374>
    a89c:	e59d208c 	ldr	r2, [sp, #140]	; 0x8c
    a8a0:	e59d3088 	ldr	r3, [sp, #136]	; 0x88
    a8a4:	e28d60b8 	add	r6, sp, #184	; 0xb8
    a8a8:	eaffffe9 	b	a854 <_vfprintf_r+0x1474>
    a8ac:	e59d504c 	ldr	r5, [sp, #76]	; 0x4c
    a8b0:	e59d3088 	ldr	r3, [sp, #136]	; 0x88
    a8b4:	e0822005 	add	r2, r2, r5
    a8b8:	e59d5044 	ldr	r5, [sp, #68]	; 0x44
    a8bc:	e2833001 	add	r3, r3, #1
    a8c0:	e5865000 	str	r5, [r6]
    a8c4:	e59d504c 	ldr	r5, [sp, #76]	; 0x4c
    a8c8:	e3530007 	cmp	r3, #7
    a8cc:	e5865004 	str	r5, [r6, #4]
    a8d0:	e58d208c 	str	r2, [sp, #140]	; 0x8c
    a8d4:	e58d3088 	str	r3, [sp, #136]	; 0x88
    a8d8:	d2866008 	addle	r6, r6, #8
    a8dc:	daffffbf 	ble	a7e0 <_vfprintf_r+0x1400>
    a8e0:	e59d0020 	ldr	r0, [sp, #32]
    a8e4:	e1a0100a 	mov	r1, sl
    a8e8:	e28d2084 	add	r2, sp, #132	; 0x84
    a8ec:	eb00155d 	bl	fe68 <__sprint_r>
    a8f0:	e3500000 	cmp	r0, #0
    a8f4:	1afffb96 	bne	9754 <_vfprintf_r+0x374>
    a8f8:	e59d406c 	ldr	r4, [sp, #108]	; 0x6c
    a8fc:	e59d208c 	ldr	r2, [sp, #140]	; 0x8c
    a900:	e28d60b8 	add	r6, sp, #184	; 0xb8
    a904:	eaffffb5 	b	a7e0 <_vfprintf_r+0x1400>
    a908:	e59d5014 	ldr	r5, [sp, #20]
    a90c:	e3150001 	tst	r5, #1
    a910:	1afffed8 	bne	a478 <_vfprintf_r+0x1098>
    a914:	e3a01001 	mov	r1, #1
    a918:	e3530007 	cmp	r3, #7
    a91c:	e58d208c 	str	r2, [sp, #140]	; 0x8c
    a920:	e58d3088 	str	r3, [sp, #136]	; 0x88
    a924:	e5868000 	str	r8, [r6]
    a928:	e5861004 	str	r1, [r6, #4]
    a92c:	dafffef2 	ble	a4fc <_vfprintf_r+0x111c>
    a930:	e59d0020 	ldr	r0, [sp, #32]
    a934:	e1a0100a 	mov	r1, sl
    a938:	e28d2084 	add	r2, sp, #132	; 0x84
    a93c:	eb001549 	bl	fe68 <__sprint_r>
    a940:	e3500000 	cmp	r0, #0
    a944:	1afffb82 	bne	9754 <_vfprintf_r+0x374>
    a948:	e59d208c 	ldr	r2, [sp, #140]	; 0x8c
    a94c:	e59d3088 	ldr	r3, [sp, #136]	; 0x88
    a950:	e28d60b8 	add	r6, sp, #184	; 0xb8
    a954:	eafffee9 	b	a500 <_vfprintf_r+0x1120>
    a958:	e59d0020 	ldr	r0, [sp, #32]
    a95c:	e1a0100a 	mov	r1, sl
    a960:	e28d2084 	add	r2, sp, #132	; 0x84
    a964:	eb00153f 	bl	fe68 <__sprint_r>
    a968:	e3500000 	cmp	r0, #0
    a96c:	1afffb78 	bne	9754 <_vfprintf_r+0x374>
    a970:	e59d208c 	ldr	r2, [sp, #140]	; 0x8c
    a974:	e59d3088 	ldr	r3, [sp, #136]	; 0x88
    a978:	e28d60b8 	add	r6, sp, #184	; 0xb8
    a97c:	eafffec5 	b	a498 <_vfprintf_r+0x10b8>
    a980:	e2833001 	add	r3, r3, #1
    a984:	e59d5024 	ldr	r5, [sp, #36]	; 0x24
    a988:	e0842002 	add	r2, r4, r2
    a98c:	e3530007 	cmp	r3, #7
    a990:	e58d3088 	str	r3, [sp, #136]	; 0x88
    a994:	e58d208c 	str	r2, [sp, #140]	; 0x8c
    a998:	e5865000 	str	r5, [r6]
    a99c:	e5864004 	str	r4, [r6, #4]
    a9a0:	dafffed5 	ble	a4fc <_vfprintf_r+0x111c>
    a9a4:	eaffffe1 	b	a930 <_vfprintf_r+0x1550>
    a9a8:	e59d0020 	ldr	r0, [sp, #32]
    a9ac:	e1a0100a 	mov	r1, sl
    a9b0:	e28d2084 	add	r2, sp, #132	; 0x84
    a9b4:	eb00152b 	bl	fe68 <__sprint_r>
    a9b8:	e3500000 	cmp	r0, #0
    a9bc:	1afffb64 	bne	9754 <_vfprintf_r+0x374>
    a9c0:	e59d208c 	ldr	r2, [sp, #140]	; 0x8c
    a9c4:	e59d3088 	ldr	r3, [sp, #136]	; 0x88
    a9c8:	e28d60b8 	add	r6, sp, #184	; 0xb8
    a9cc:	eafffebc 	b	a4c4 <_vfprintf_r+0x10e4>
    a9d0:	e28dc0b7 	add	ip, sp, #183	; 0xb7
    a9d4:	e58d601c 	str	r6, [sp, #28]
    a9d8:	e1a0600c 	mov	r6, ip
    a9dc:	e1a00004 	mov	r0, r4
    a9e0:	e1a01005 	mov	r1, r5
    a9e4:	e3a0200a 	mov	r2, #10
    a9e8:	e3a03000 	mov	r3, #0
    a9ec:	eb001c49 	bl	11b18 <__aeabi_uldivmod>
    a9f0:	e2822030 	add	r2, r2, #48	; 0x30
    a9f4:	e5c62000 	strb	r2, [r6]
    a9f8:	e1a00004 	mov	r0, r4
    a9fc:	e1a01005 	mov	r1, r5
    aa00:	e3a0200a 	mov	r2, #10
    aa04:	e3a03000 	mov	r3, #0
    aa08:	eb001c42 	bl	11b18 <__aeabi_uldivmod>
    aa0c:	e1a04000 	mov	r4, r0
    aa10:	e1a05001 	mov	r5, r1
    aa14:	e1940005 	orrs	r0, r4, r5
    aa18:	e1a08006 	mov	r8, r6
    aa1c:	e2466001 	sub	r6, r6, #1
    aa20:	1affffed 	bne	a9dc <_vfprintf_r+0x15fc>
    aa24:	e59d5010 	ldr	r5, [sp, #16]
    aa28:	e59d601c 	ldr	r6, [sp, #28]
    aa2c:	e0684005 	rsb	r4, r8, r5
    aa30:	eafffb99 	b	989c <_vfprintf_r+0x4bc>
    aa34:	e3a0902d 	mov	r9, #45	; 0x2d
    aa38:	e2744000 	rsbs	r4, r4, #0
    aa3c:	e2e55000 	rsc	r5, r5, #0
    aa40:	e5cd9067 	strb	r9, [sp, #103]	; 0x67
    aa44:	e3a03001 	mov	r3, #1
    aa48:	eafffb72 	b	9818 <_vfprintf_r+0x438>
    aa4c:	eeb00b48 	vmov.f64	d0, d8
    aa50:	eb0013ea 	bl	fa00 <__fpclassifyd>
    aa54:	e3500000 	cmp	r0, #0
    aa58:	0a0000dc 	beq	add0 <_vfprintf_r+0x19f0>
    aa5c:	e59d5018 	ldr	r5, [sp, #24]
    aa60:	e59d403c 	ldr	r4, [sp, #60]	; 0x3c
    aa64:	e3750001 	cmn	r5, #1
    aa68:	e3c45020 	bic	r5, r4, #32
    aa6c:	03a04006 	moveq	r4, #6
    aa70:	058d4018 	streq	r4, [sp, #24]
    aa74:	0a000005 	beq	aa90 <_vfprintf_r+0x16b0>
    aa78:	e3550047 	cmp	r5, #71	; 0x47
    aa7c:	1a000003 	bne	aa90 <_vfprintf_r+0x16b0>
    aa80:	e59d4018 	ldr	r4, [sp, #24]
    aa84:	e3540000 	cmp	r4, #0
    aa88:	03a04001 	moveq	r4, #1
    aa8c:	e58d4018 	str	r4, [sp, #24]
    aa90:	ec532b18 	vmov	r2, r3, d8
    aa94:	e59d4014 	ldr	r4, [sp, #20]
    aa98:	e3530000 	cmp	r3, #0
    aa9c:	e3844c01 	orr	r4, r4, #256	; 0x100
    aaa0:	beb19b48 	vneglt.f64	d9, d8
    aaa4:	b3a0902d 	movlt	r9, #45	; 0x2d
    aaa8:	aeb09b48 	vmovge.f64	d9, d8
    aaac:	a3a09000 	movge	r9, #0
    aab0:	e2553046 	subs	r3, r5, #70	; 0x46
    aab4:	e58d4024 	str	r4, [sp, #36]	; 0x24
    aab8:	e2734000 	rsbs	r4, r3, #0
    aabc:	e0b44003 	adcs	r4, r4, r3
    aac0:	e3540000 	cmp	r4, #0
    aac4:	1a000145 	bne	afe0 <_vfprintf_r+0x1c00>
    aac8:	e3550045 	cmp	r5, #69	; 0x45
    aacc:	1a000198 	bne	b134 <_vfprintf_r+0x1d54>
    aad0:	e59d0018 	ldr	r0, [sp, #24]
    aad4:	e28d1070 	add	r1, sp, #112	; 0x70
    aad8:	e2804001 	add	r4, r0, #1
    aadc:	e28d307c 	add	r3, sp, #124	; 0x7c
    aae0:	e88d000a 	stm	sp, {r1, r3}
    aae4:	e1a02004 	mov	r2, r4
    aae8:	e59d0020 	ldr	r0, [sp, #32]
    aaec:	eeb00b49 	vmov.f64	d0, d9
    aaf0:	e3a01002 	mov	r1, #2
    aaf4:	e28d306c 	add	r3, sp, #108	; 0x6c
    aaf8:	eb0002fc 	bl	b6f0 <_dtoa_r>
    aafc:	e1a08000 	mov	r8, r0
    ab00:	e0804004 	add	r4, r0, r4
    ab04:	eeb59b40 	vcmp.f64	d9, #0.0
    ab08:	eef1fa10 	vmrs	APSR_nzcv, fpscr
    ab0c:	01a03004 	moveq	r3, r4
    ab10:	0a000009 	beq	ab3c <_vfprintf_r+0x175c>
    ab14:	e59d307c 	ldr	r3, [sp, #124]	; 0x7c
    ab18:	e1540003 	cmp	r4, r3
    ab1c:	9a000006 	bls	ab3c <_vfprintf_r+0x175c>
    ab20:	e3a01030 	mov	r1, #48	; 0x30
    ab24:	e2832001 	add	r2, r3, #1
    ab28:	e58d207c 	str	r2, [sp, #124]	; 0x7c
    ab2c:	e5c31000 	strb	r1, [r3]
    ab30:	e59d307c 	ldr	r3, [sp, #124]	; 0x7c
    ab34:	e1540003 	cmp	r4, r3
    ab38:	8afffff9 	bhi	ab24 <_vfprintf_r+0x1744>
    ab3c:	e0683003 	rsb	r3, r8, r3
    ab40:	e3550047 	cmp	r5, #71	; 0x47
    ab44:	e58d3034 	str	r3, [sp, #52]	; 0x34
    ab48:	0a00011c 	beq	afc0 <_vfprintf_r+0x1be0>
    ab4c:	e59d403c 	ldr	r4, [sp, #60]	; 0x3c
    ab50:	e3540065 	cmp	r4, #101	; 0x65
    ab54:	da0001cf 	ble	b298 <_vfprintf_r+0x1eb8>
    ab58:	e59d403c 	ldr	r4, [sp, #60]	; 0x3c
    ab5c:	e3540066 	cmp	r4, #102	; 0x66
    ab60:	0a000194 	beq	b1b8 <_vfprintf_r+0x1dd8>
    ab64:	e59d506c 	ldr	r5, [sp, #108]	; 0x6c
    ab68:	e58d5040 	str	r5, [sp, #64]	; 0x40
    ab6c:	e59d3040 	ldr	r3, [sp, #64]	; 0x40
    ab70:	e59d4034 	ldr	r4, [sp, #52]	; 0x34
    ab74:	e1530004 	cmp	r3, r4
    ab78:	ba000163 	blt	b10c <_vfprintf_r+0x1d2c>
    ab7c:	e59d5014 	ldr	r5, [sp, #20]
    ab80:	e3150001 	tst	r5, #1
    ab84:	159d3040 	ldrne	r3, [sp, #64]	; 0x40
    ab88:	e3a05067 	mov	r5, #103	; 0x67
    ab8c:	12834001 	addne	r4, r3, #1
    ab90:	059d4040 	ldreq	r4, [sp, #64]	; 0x40
    ab94:	e58d503c 	str	r5, [sp, #60]	; 0x3c
    ab98:	01c33fc3 	biceq	r3, r3, r3, asr #31
    ab9c:	11c43fc4 	bicne	r3, r4, r4, asr #31
    aba0:	e3590000 	cmp	r9, #0
    aba4:	1a0000fa 	bne	af94 <_vfprintf_r+0x1bb4>
    aba8:	e59d5024 	ldr	r5, [sp, #36]	; 0x24
    abac:	e58d9018 	str	r9, [sp, #24]
    abb0:	e58d301c 	str	r3, [sp, #28]
    abb4:	e58d5014 	str	r5, [sp, #20]
    abb8:	e5dd9067 	ldrb	r9, [sp, #103]	; 0x67
    abbc:	eafffb3c 	b	98b4 <_vfprintf_r+0x4d4>
    abc0:	e59d4014 	ldr	r4, [sp, #20]
    abc4:	e3140040 	tst	r4, #64	; 0x40
    abc8:	e59d502c 	ldr	r5, [sp, #44]	; 0x2c
    abcc:	0afffc09 	beq	9bf8 <_vfprintf_r+0x818>
    abd0:	e1d540b0 	ldrh	r4, [r5]
    abd4:	e2855004 	add	r5, r5, #4
    abd8:	e58d502c 	str	r5, [sp, #44]	; 0x2c
    abdc:	e3a03001 	mov	r3, #1
    abe0:	e3a05000 	mov	r5, #0
    abe4:	eafffb09 	b	9810 <_vfprintf_r+0x430>
    abe8:	e59d4014 	ldr	r4, [sp, #20]
    abec:	e59d502c 	ldr	r5, [sp, #44]	; 0x2c
    abf0:	e3140040 	tst	r4, #64	; 0x40
    abf4:	11d540b0 	ldrhne	r4, [r5]
    abf8:	05954000 	ldreq	r4, [r5]
    abfc:	e2855004 	add	r5, r5, #4
    ac00:	e58d502c 	str	r5, [sp, #44]	; 0x2c
    ac04:	e3a05000 	mov	r5, #0
    ac08:	eafffbe2 	b	9b98 <_vfprintf_r+0x7b8>
    ac0c:	e59d4014 	ldr	r4, [sp, #20]
    ac10:	e59d502c 	ldr	r5, [sp, #44]	; 0x2c
    ac14:	e2143040 	ands	r3, r4, #64	; 0x40
    ac18:	11d540b0 	ldrhne	r4, [r5]
    ac1c:	05954000 	ldreq	r4, [r5]
    ac20:	e2855004 	add	r5, r5, #4
    ac24:	e58d502c 	str	r5, [sp, #44]	; 0x2c
    ac28:	11a03002 	movne	r3, r2
    ac2c:	e3a05000 	mov	r5, #0
    ac30:	eafffaf6 	b	9810 <_vfprintf_r+0x430>
    ac34:	e59d4014 	ldr	r4, [sp, #20]
    ac38:	e3140010 	tst	r4, #16
    ac3c:	0a000059 	beq	ada8 <_vfprintf_r+0x19c8>
    ac40:	e59d502c 	ldr	r5, [sp, #44]	; 0x2c
    ac44:	e59d4030 	ldr	r4, [sp, #48]	; 0x30
    ac48:	e5953000 	ldr	r3, [r5]
    ac4c:	e2855004 	add	r5, r5, #4
    ac50:	e58d502c 	str	r5, [sp, #44]	; 0x2c
    ac54:	e5834000 	str	r4, [r3]
    ac58:	eafffa16 	b	94b8 <_vfprintf_r+0xd8>
    ac5c:	e59d4014 	ldr	r4, [sp, #20]
    ac60:	e3140040 	tst	r4, #64	; 0x40
    ac64:	e59d502c 	ldr	r5, [sp, #44]	; 0x2c
    ac68:	0afffc61 	beq	9df4 <_vfprintf_r+0xa14>
    ac6c:	e1d540f0 	ldrsh	r4, [r5]
    ac70:	eafffc60 	b	9df8 <_vfprintf_r+0xa18>
    ac74:	e59d0020 	ldr	r0, [sp, #32]
    ac78:	e1a0100a 	mov	r1, sl
    ac7c:	e28d2084 	add	r2, sp, #132	; 0x84
    ac80:	eb001478 	bl	fe68 <__sprint_r>
    ac84:	e3500000 	cmp	r0, #0
    ac88:	1afffab1 	bne	9754 <_vfprintf_r+0x374>
    ac8c:	e59d208c 	ldr	r2, [sp, #140]	; 0x8c
    ac90:	e28d60b8 	add	r6, sp, #184	; 0xb8
    ac94:	eafffd74 	b	a26c <_vfprintf_r+0xe8c>
    ac98:	e59d3088 	ldr	r3, [sp, #136]	; 0x88
    ac9c:	e59f5600 	ldr	r5, [pc, #1536]	; b2a4 <_vfprintf_r+0x1ec4>
    aca0:	e2833001 	add	r3, r3, #1
    aca4:	e2822001 	add	r2, r2, #1
    aca8:	e3530007 	cmp	r3, #7
    acac:	e3a01001 	mov	r1, #1
    acb0:	e5865000 	str	r5, [r6]
    acb4:	e5861004 	str	r1, [r6, #4]
    acb8:	e58d208c 	str	r2, [sp, #140]	; 0x8c
    acbc:	e58d3088 	str	r3, [sp, #136]	; 0x88
    acc0:	d2866008 	addle	r6, r6, #8
    acc4:	ca000058 	bgt	ae2c <_vfprintf_r+0x1a4c>
    acc8:	e3540000 	cmp	r4, #0
    accc:	0a00004f 	beq	ae10 <_vfprintf_r+0x1a30>
    acd0:	e59d504c 	ldr	r5, [sp, #76]	; 0x4c
    acd4:	e59d3088 	ldr	r3, [sp, #136]	; 0x88
    acd8:	e0822005 	add	r2, r2, r5
    acdc:	e59d5044 	ldr	r5, [sp, #68]	; 0x44
    ace0:	e2833001 	add	r3, r3, #1
    ace4:	e5865000 	str	r5, [r6]
    ace8:	e59d504c 	ldr	r5, [sp, #76]	; 0x4c
    acec:	e3530007 	cmp	r3, #7
    acf0:	e5865004 	str	r5, [r6, #4]
    acf4:	e58d208c 	str	r2, [sp, #140]	; 0x8c
    acf8:	e58d3088 	str	r3, [sp, #136]	; 0x88
    acfc:	d2866008 	addle	r6, r6, #8
    ad00:	ca0000f6 	bgt	b0e0 <_vfprintf_r+0x1d00>
    ad04:	e2644000 	rsb	r4, r4, #0
    ad08:	e3540000 	cmp	r4, #0
    ad0c:	da00006c 	ble	aec4 <_vfprintf_r+0x1ae4>
    ad10:	e59f5588 	ldr	r5, [pc, #1416]	; b2a0 <_vfprintf_r+0x1ec0>
    ad14:	e3540010 	cmp	r4, #16
    ad18:	e58d5024 	str	r5, [sp, #36]	; 0x24
    ad1c:	c59d9020 	ldrgt	r9, [sp, #32]
    ad20:	c3a05010 	movgt	r5, #16
    ad24:	ca000003 	bgt	ad38 <_vfprintf_r+0x1958>
    ad28:	ea000052 	b	ae78 <_vfprintf_r+0x1a98>
    ad2c:	e2444010 	sub	r4, r4, #16
    ad30:	e3540010 	cmp	r4, #16
    ad34:	da00004f 	ble	ae78 <_vfprintf_r+0x1a98>
    ad38:	e2833001 	add	r3, r3, #1
    ad3c:	e3530007 	cmp	r3, #7
    ad40:	e2822010 	add	r2, r2, #16
    ad44:	e586b000 	str	fp, [r6]
    ad48:	e5865004 	str	r5, [r6, #4]
    ad4c:	e58d3088 	str	r3, [sp, #136]	; 0x88
    ad50:	e58d208c 	str	r2, [sp, #140]	; 0x8c
    ad54:	d2866008 	addle	r6, r6, #8
    ad58:	dafffff3 	ble	ad2c <_vfprintf_r+0x194c>
    ad5c:	e1a00009 	mov	r0, r9
    ad60:	e1a0100a 	mov	r1, sl
    ad64:	e28d2084 	add	r2, sp, #132	; 0x84
    ad68:	eb00143e 	bl	fe68 <__sprint_r>
    ad6c:	e3500000 	cmp	r0, #0
    ad70:	1afffa77 	bne	9754 <_vfprintf_r+0x374>
    ad74:	e59d208c 	ldr	r2, [sp, #140]	; 0x8c
    ad78:	e59d3088 	ldr	r3, [sp, #136]	; 0x88
    ad7c:	e28d60b8 	add	r6, sp, #184	; 0xb8
    ad80:	eaffffe9 	b	ad2c <_vfprintf_r+0x194c>
    ad84:	e59d308c 	ldr	r3, [sp, #140]	; 0x8c
    ad88:	e3530000 	cmp	r3, #0
    ad8c:	e1a0900a 	mov	r9, sl
    ad90:	0afffa70 	beq	9758 <_vfprintf_r+0x378>
    ad94:	e59d0020 	ldr	r0, [sp, #32]
    ad98:	e1a0100a 	mov	r1, sl
    ad9c:	e28d2084 	add	r2, sp, #132	; 0x84
    ada0:	eb001430 	bl	fe68 <__sprint_r>
    ada4:	eafffa6b 	b	9758 <_vfprintf_r+0x378>
    ada8:	e59d402c 	ldr	r4, [sp, #44]	; 0x2c
    adac:	e59d5014 	ldr	r5, [sp, #20]
    adb0:	e5943000 	ldr	r3, [r4]
    adb4:	e3150040 	tst	r5, #64	; 0x40
    adb8:	e59d5030 	ldr	r5, [sp, #48]	; 0x30
    adbc:	e2844004 	add	r4, r4, #4
    adc0:	e58d402c 	str	r4, [sp, #44]	; 0x2c
    adc4:	11c350b0 	strhne	r5, [r3]
    adc8:	05835000 	streq	r5, [r3]
    adcc:	eafff9b9 	b	94b8 <_vfprintf_r+0xd8>
    add0:	e3a04003 	mov	r4, #3
    add4:	e59d5014 	ldr	r5, [sp, #20]
    add8:	e58d401c 	str	r4, [sp, #28]
    addc:	e59d403c 	ldr	r4, [sp, #60]	; 0x3c
    ade0:	e59f24c0 	ldr	r2, [pc, #1216]	; b2a8 <_vfprintf_r+0x1ec8>
    ade4:	e59f34c0 	ldr	r3, [pc, #1216]	; b2ac <_vfprintf_r+0x1ecc>
    ade8:	e3540047 	cmp	r4, #71	; 0x47
    adec:	e3c55080 	bic	r5, r5, #128	; 0x80
    adf0:	e58d0018 	str	r0, [sp, #24]
    adf4:	e58d5014 	str	r5, [sp, #20]
    adf8:	e58d0040 	str	r0, [sp, #64]	; 0x40
    adfc:	c1a08002 	movgt	r8, r2
    ae00:	d1a08003 	movle	r8, r3
    ae04:	e3a04003 	mov	r4, #3
    ae08:	e5dd9067 	ldrb	r9, [sp, #103]	; 0x67
    ae0c:	eafffaa8 	b	98b4 <_vfprintf_r+0x4d4>
    ae10:	e59d5034 	ldr	r5, [sp, #52]	; 0x34
    ae14:	e3550000 	cmp	r5, #0
    ae18:	1affffac 	bne	acd0 <_vfprintf_r+0x18f0>
    ae1c:	e59d5014 	ldr	r5, [sp, #20]
    ae20:	e3150001 	tst	r5, #1
    ae24:	0afffcba 	beq	a114 <_vfprintf_r+0xd34>
    ae28:	eaffffa8 	b	acd0 <_vfprintf_r+0x18f0>
    ae2c:	e59d0020 	ldr	r0, [sp, #32]
    ae30:	e1a0100a 	mov	r1, sl
    ae34:	e28d2084 	add	r2, sp, #132	; 0x84
    ae38:	eb00140a 	bl	fe68 <__sprint_r>
    ae3c:	e3500000 	cmp	r0, #0
    ae40:	1afffa43 	bne	9754 <_vfprintf_r+0x374>
    ae44:	e59d406c 	ldr	r4, [sp, #108]	; 0x6c
    ae48:	e59d208c 	ldr	r2, [sp, #140]	; 0x8c
    ae4c:	e28d60b8 	add	r6, sp, #184	; 0xb8
    ae50:	eaffff9c 	b	acc8 <_vfprintf_r+0x18e8>
    ae54:	e59d0020 	ldr	r0, [sp, #32]
    ae58:	e1a0100a 	mov	r1, sl
    ae5c:	e28d2084 	add	r2, sp, #132	; 0x84
    ae60:	eb001400 	bl	fe68 <__sprint_r>
    ae64:	e3500000 	cmp	r0, #0
    ae68:	1afffa39 	bne	9754 <_vfprintf_r+0x374>
    ae6c:	e59d208c 	ldr	r2, [sp, #140]	; 0x8c
    ae70:	e28d60b8 	add	r6, sp, #184	; 0xb8
    ae74:	eafffd0f 	b	a2b8 <_vfprintf_r+0xed8>
    ae78:	e2833001 	add	r3, r3, #1
    ae7c:	e59d5024 	ldr	r5, [sp, #36]	; 0x24
    ae80:	e3530007 	cmp	r3, #7
    ae84:	e0842002 	add	r2, r4, r2
    ae88:	e5865000 	str	r5, [r6]
    ae8c:	e5864004 	str	r4, [r6, #4]
    ae90:	e58d3088 	str	r3, [sp, #136]	; 0x88
    ae94:	e58d208c 	str	r2, [sp, #140]	; 0x8c
    ae98:	d2866008 	addle	r6, r6, #8
    ae9c:	da000008 	ble	aec4 <_vfprintf_r+0x1ae4>
    aea0:	e59d0020 	ldr	r0, [sp, #32]
    aea4:	e1a0100a 	mov	r1, sl
    aea8:	e28d2084 	add	r2, sp, #132	; 0x84
    aeac:	eb0013ed 	bl	fe68 <__sprint_r>
    aeb0:	e3500000 	cmp	r0, #0
    aeb4:	1afffa26 	bne	9754 <_vfprintf_r+0x374>
    aeb8:	e59d208c 	ldr	r2, [sp, #140]	; 0x8c
    aebc:	e59d3088 	ldr	r3, [sp, #136]	; 0x88
    aec0:	e28d60b8 	add	r6, sp, #184	; 0xb8
    aec4:	e59d4034 	ldr	r4, [sp, #52]	; 0x34
    aec8:	e2833001 	add	r3, r3, #1
    aecc:	e0822004 	add	r2, r2, r4
    aed0:	e3530007 	cmp	r3, #7
    aed4:	e58d3088 	str	r3, [sp, #136]	; 0x88
    aed8:	e58d208c 	str	r2, [sp, #140]	; 0x8c
    aedc:	e5868000 	str	r8, [r6]
    aee0:	e5864004 	str	r4, [r6, #4]
    aee4:	dafffc89 	ble	a110 <_vfprintf_r+0xd30>
    aee8:	eafffd8d 	b	a524 <_vfprintf_r+0x1144>
    aeec:	e58d9018 	str	r9, [sp, #24]
    aef0:	ebfff921 	bl	937c <strlen>
    aef4:	e59d9018 	ldr	r9, [sp, #24]
    aef8:	e1c03fc0 	bic	r3, r0, r0, asr #31
    aefc:	e58d9040 	str	r9, [sp, #64]	; 0x40
    af00:	e1a04000 	mov	r4, r0
    af04:	e58d502c 	str	r5, [sp, #44]	; 0x2c
    af08:	e58d301c 	str	r3, [sp, #28]
    af0c:	e5dd9067 	ldrb	r9, [sp, #103]	; 0x67
    af10:	eafffa67 	b	98b4 <_vfprintf_r+0x4d4>
    af14:	e59d0020 	ldr	r0, [sp, #32]
    af18:	e1a0100a 	mov	r1, sl
    af1c:	e28d2084 	add	r2, sp, #132	; 0x84
    af20:	eb0013d0 	bl	fe68 <__sprint_r>
    af24:	e3500000 	cmp	r0, #0
    af28:	1afffa09 	bne	9754 <_vfprintf_r+0x374>
    af2c:	e59d208c 	ldr	r2, [sp, #140]	; 0x8c
    af30:	e28d60b8 	add	r6, sp, #184	; 0xb8
    af34:	eafffdac 	b	a5ec <_vfprintf_r+0x120c>
    af38:	e59d0020 	ldr	r0, [sp, #32]
    af3c:	e1a0100a 	mov	r1, sl
    af40:	e28d2084 	add	r2, sp, #132	; 0x84
    af44:	eb0013c7 	bl	fe68 <__sprint_r>
    af48:	e3500000 	cmp	r0, #0
    af4c:	1afffa00 	bne	9754 <_vfprintf_r+0x374>
    af50:	e59d406c 	ldr	r4, [sp, #108]	; 0x6c
    af54:	e59d1034 	ldr	r1, [sp, #52]	; 0x34
    af58:	e59d208c 	ldr	r2, [sp, #140]	; 0x8c
    af5c:	e0644001 	rsb	r4, r4, r1
    af60:	e28d60b8 	add	r6, sp, #184	; 0xb8
    af64:	eafffe2e 	b	a824 <_vfprintf_r+0x1444>
    af68:	e59d4018 	ldr	r4, [sp, #24]
    af6c:	e3540006 	cmp	r4, #6
    af70:	23a04006 	movcs	r4, #6
    af74:	e58d502c 	str	r5, [sp, #44]	; 0x2c
    af78:	e1c45fc4 	bic	r5, r4, r4, asr #31
    af7c:	e1a09008 	mov	r9, r8
    af80:	e58d8018 	str	r8, [sp, #24]
    af84:	e58d8040 	str	r8, [sp, #64]	; 0x40
    af88:	e58d501c 	str	r5, [sp, #28]
    af8c:	e59f831c 	ldr	r8, [pc, #796]	; b2b0 <_vfprintf_r+0x1ed0>
    af90:	eafffa47 	b	98b4 <_vfprintf_r+0x4d4>
    af94:	e59d5024 	ldr	r5, [sp, #36]	; 0x24
    af98:	e3a0902d 	mov	r9, #45	; 0x2d
    af9c:	e58d5014 	str	r5, [sp, #20]
    afa0:	e3a05000 	mov	r5, #0
    afa4:	e58d301c 	str	r3, [sp, #28]
    afa8:	e5cd9067 	strb	r9, [sp, #103]	; 0x67
    afac:	e58d5018 	str	r5, [sp, #24]
    afb0:	eafffa41 	b	98bc <_vfprintf_r+0x4dc>
    afb4:	e59d307c 	ldr	r3, [sp, #124]	; 0x7c
    afb8:	e0603003 	rsb	r3, r0, r3
    afbc:	e58d3034 	str	r3, [sp, #52]	; 0x34
    afc0:	e59d306c 	ldr	r3, [sp, #108]	; 0x6c
    afc4:	e3730003 	cmn	r3, #3
    afc8:	ba000025 	blt	b064 <_vfprintf_r+0x1c84>
    afcc:	e59d4018 	ldr	r4, [sp, #24]
    afd0:	e1540003 	cmp	r4, r3
    afd4:	ba000022 	blt	b064 <_vfprintf_r+0x1c84>
    afd8:	e58d3040 	str	r3, [sp, #64]	; 0x40
    afdc:	eafffee2 	b	ab6c <_vfprintf_r+0x178c>
    afe0:	e3a01003 	mov	r1, #3
    afe4:	e28d2070 	add	r2, sp, #112	; 0x70
    afe8:	e28d307c 	add	r3, sp, #124	; 0x7c
    afec:	e88d000c 	stm	sp, {r2, r3}
    aff0:	e59d0020 	ldr	r0, [sp, #32]
    aff4:	eeb00b49 	vmov.f64	d0, d9
    aff8:	e59d2018 	ldr	r2, [sp, #24]
    affc:	e28d306c 	add	r3, sp, #108	; 0x6c
    b000:	eb0001ba 	bl	b6f0 <_dtoa_r>
    b004:	e3550047 	cmp	r5, #71	; 0x47
    b008:	e1a08000 	mov	r8, r0
    b00c:	1a000002 	bne	b01c <_vfprintf_r+0x1c3c>
    b010:	e59d1014 	ldr	r1, [sp, #20]
    b014:	e3110001 	tst	r1, #1
    b018:	0affffe5 	beq	afb4 <_vfprintf_r+0x1bd4>
    b01c:	e59d2018 	ldr	r2, [sp, #24]
    b020:	e3540000 	cmp	r4, #0
    b024:	e0884002 	add	r4, r8, r2
    b028:	0afffeb5 	beq	ab04 <_vfprintf_r+0x1724>
    b02c:	e5d83000 	ldrb	r3, [r8]
    b030:	e3530030 	cmp	r3, #48	; 0x30
    b034:	0a00006c 	beq	b1ec <_vfprintf_r+0x1e0c>
    b038:	e59d306c 	ldr	r3, [sp, #108]	; 0x6c
    b03c:	e0844003 	add	r4, r4, r3
    b040:	eafffeaf 	b	ab04 <_vfprintf_r+0x1724>
    b044:	e1c43fc4 	bic	r3, r4, r4, asr #31
    b048:	e58d301c 	str	r3, [sp, #28]
    b04c:	e59d4018 	ldr	r4, [sp, #24]
    b050:	e58d502c 	str	r5, [sp, #44]	; 0x2c
    b054:	e58d0018 	str	r0, [sp, #24]
    b058:	e58d0040 	str	r0, [sp, #64]	; 0x40
    b05c:	e5dd9067 	ldrb	r9, [sp, #103]	; 0x67
    b060:	eafffa13 	b	98b4 <_vfprintf_r+0x4d4>
    b064:	e59d503c 	ldr	r5, [sp, #60]	; 0x3c
    b068:	e2455002 	sub	r5, r5, #2
    b06c:	e58d503c 	str	r5, [sp, #60]	; 0x3c
    b070:	e2431001 	sub	r1, r3, #1
    b074:	e3510000 	cmp	r1, #0
    b078:	e58d106c 	str	r1, [sp, #108]	; 0x6c
    b07c:	e59d503c 	ldr	r5, [sp, #60]	; 0x3c
    b080:	b2611000 	rsblt	r1, r1, #0
    b084:	b3a0302d 	movlt	r3, #45	; 0x2d
    b088:	a3a0302b 	movge	r3, #43	; 0x2b
    b08c:	e3510009 	cmp	r1, #9
    b090:	e5cd5074 	strb	r5, [sp, #116]	; 0x74
    b094:	e5cd3075 	strb	r3, [sp, #117]	; 0x75
    b098:	ca000027 	bgt	b13c <_vfprintf_r+0x1d5c>
    b09c:	e2811030 	add	r1, r1, #48	; 0x30
    b0a0:	e3a03030 	mov	r3, #48	; 0x30
    b0a4:	e5cd1077 	strb	r1, [sp, #119]	; 0x77
    b0a8:	e5cd3076 	strb	r3, [sp, #118]	; 0x76
    b0ac:	e28d3078 	add	r3, sp, #120	; 0x78
    b0b0:	e59d5034 	ldr	r5, [sp, #52]	; 0x34
    b0b4:	e28d2074 	add	r2, sp, #116	; 0x74
    b0b8:	e0622003 	rsb	r2, r2, r3
    b0bc:	e3550001 	cmp	r5, #1
    b0c0:	e58d2050 	str	r2, [sp, #80]	; 0x50
    b0c4:	e0854002 	add	r4, r5, r2
    b0c8:	da00005f 	ble	b24c <_vfprintf_r+0x1e6c>
    b0cc:	e2844001 	add	r4, r4, #1
    b0d0:	e3a05000 	mov	r5, #0
    b0d4:	e1c43fc4 	bic	r3, r4, r4, asr #31
    b0d8:	e58d5040 	str	r5, [sp, #64]	; 0x40
    b0dc:	eafffeaf 	b	aba0 <_vfprintf_r+0x17c0>
    b0e0:	e59d0020 	ldr	r0, [sp, #32]
    b0e4:	e1a0100a 	mov	r1, sl
    b0e8:	e28d2084 	add	r2, sp, #132	; 0x84
    b0ec:	eb00135d 	bl	fe68 <__sprint_r>
    b0f0:	e3500000 	cmp	r0, #0
    b0f4:	1afff996 	bne	9754 <_vfprintf_r+0x374>
    b0f8:	e59d406c 	ldr	r4, [sp, #108]	; 0x6c
    b0fc:	e59d208c 	ldr	r2, [sp, #140]	; 0x8c
    b100:	e59d3088 	ldr	r3, [sp, #136]	; 0x88
    b104:	e28d60b8 	add	r6, sp, #184	; 0xb8
    b108:	eafffefd 	b	ad04 <_vfprintf_r+0x1924>
    b10c:	e59d3040 	ldr	r3, [sp, #64]	; 0x40
    b110:	e59d5034 	ldr	r5, [sp, #52]	; 0x34
    b114:	e3530000 	cmp	r3, #0
    b118:	d2634002 	rsble	r4, r3, #2
    b11c:	c3a04001 	movgt	r4, #1
    b120:	e0844005 	add	r4, r4, r5
    b124:	e3a05067 	mov	r5, #103	; 0x67
    b128:	e1c43fc4 	bic	r3, r4, r4, asr #31
    b12c:	e58d503c 	str	r5, [sp, #60]	; 0x3c
    b130:	eafffe9a 	b	aba0 <_vfprintf_r+0x17c0>
    b134:	e3a01002 	mov	r1, #2
    b138:	eaffffa9 	b	afe4 <_vfprintf_r+0x1c04>
    b13c:	e28d2082 	add	r2, sp, #130	; 0x82
    b140:	e59f016c 	ldr	r0, [pc, #364]	; b2b4 <_vfprintf_r+0x1ed4>
    b144:	e0c03091 	smull	r3, r0, r1, r0
    b148:	e1a03fc1 	asr	r3, r1, #31
    b14c:	e0633140 	rsb	r3, r3, r0, asr #2
    b150:	e0830103 	add	r0, r3, r3, lsl #2
    b154:	e0410080 	sub	r0, r1, r0, lsl #1
    b158:	e1a01003 	mov	r1, r3
    b15c:	e3510009 	cmp	r1, #9
    b160:	e1a03002 	mov	r3, r2
    b164:	e2802030 	add	r2, r0, #48	; 0x30
    b168:	e5c32000 	strb	r2, [r3]
    b16c:	e2432001 	sub	r2, r3, #1
    b170:	cafffff2 	bgt	b140 <_vfprintf_r+0x1d60>
    b174:	e2811030 	add	r1, r1, #48	; 0x30
    b178:	e28dc083 	add	ip, sp, #131	; 0x83
    b17c:	e20110ff 	and	r1, r1, #255	; 0xff
    b180:	e15c0002 	cmp	ip, r2
    b184:	e5431001 	strb	r1, [r3, #-1]
    b188:	9a000040 	bls	b290 <_vfprintf_r+0x1eb0>
    b18c:	e28d0075 	add	r0, sp, #117	; 0x75
    b190:	e1a02003 	mov	r2, r3
    b194:	ea000000 	b	b19c <_vfprintf_r+0x1dbc>
    b198:	e4d21001 	ldrb	r1, [r2], #1
    b19c:	e152000c 	cmp	r2, ip
    b1a0:	e5e01001 	strb	r1, [r0, #1]!
    b1a4:	1afffffb 	bne	b198 <_vfprintf_r+0x1db8>
    b1a8:	e28d40f8 	add	r4, sp, #248	; 0xf8
    b1ac:	e0633084 	rsb	r3, r3, r4, lsl #1
    b1b0:	e24330f6 	sub	r3, r3, #246	; 0xf6
    b1b4:	eaffffbd 	b	b0b0 <_vfprintf_r+0x1cd0>
    b1b8:	e59d306c 	ldr	r3, [sp, #108]	; 0x6c
    b1bc:	e3530000 	cmp	r3, #0
    b1c0:	e58d3040 	str	r3, [sp, #64]	; 0x40
    b1c4:	e59d4018 	ldr	r4, [sp, #24]
    b1c8:	da000014 	ble	b220 <_vfprintf_r+0x1e40>
    b1cc:	e3540000 	cmp	r4, #0
    b1d0:	1a00000c 	bne	b208 <_vfprintf_r+0x1e28>
    b1d4:	e59d5014 	ldr	r5, [sp, #20]
    b1d8:	e3150001 	tst	r5, #1
    b1dc:	1a000009 	bne	b208 <_vfprintf_r+0x1e28>
    b1e0:	e1c33fc3 	bic	r3, r3, r3, asr #31
    b1e4:	e59d4040 	ldr	r4, [sp, #64]	; 0x40
    b1e8:	eafffe6c 	b	aba0 <_vfprintf_r+0x17c0>
    b1ec:	eeb59b40 	vcmp.f64	d9, #0.0
    b1f0:	eef1fa10 	vmrs	APSR_nzcv, fpscr
    b1f4:	0affff8f 	beq	b038 <_vfprintf_r+0x1c58>
    b1f8:	e59d0018 	ldr	r0, [sp, #24]
    b1fc:	e2603001 	rsb	r3, r0, #1
    b200:	e58d306c 	str	r3, [sp, #108]	; 0x6c
    b204:	eaffff8c 	b	b03c <_vfprintf_r+0x1c5c>
    b208:	e59d5018 	ldr	r5, [sp, #24]
    b20c:	e59d3040 	ldr	r3, [sp, #64]	; 0x40
    b210:	e2854001 	add	r4, r5, #1
    b214:	e0834004 	add	r4, r3, r4
    b218:	e1c43fc4 	bic	r3, r4, r4, asr #31
    b21c:	eafffe5f 	b	aba0 <_vfprintf_r+0x17c0>
    b220:	e3540000 	cmp	r4, #0
    b224:	1a000004 	bne	b23c <_vfprintf_r+0x1e5c>
    b228:	e59d5014 	ldr	r5, [sp, #20]
    b22c:	e3150001 	tst	r5, #1
    b230:	03a03001 	moveq	r3, #1
    b234:	01a04003 	moveq	r4, r3
    b238:	0afffe58 	beq	aba0 <_vfprintf_r+0x17c0>
    b23c:	e59d5018 	ldr	r5, [sp, #24]
    b240:	e2854002 	add	r4, r5, #2
    b244:	e1c43fc4 	bic	r3, r4, r4, asr #31
    b248:	eafffe54 	b	aba0 <_vfprintf_r+0x17c0>
    b24c:	e59d5014 	ldr	r5, [sp, #20]
    b250:	e2153001 	ands	r3, r5, #1
    b254:	1affff9c 	bne	b0cc <_vfprintf_r+0x1cec>
    b258:	e58d3040 	str	r3, [sp, #64]	; 0x40
    b25c:	e1c43fc4 	bic	r3, r4, r4, asr #31
    b260:	eafffe4e 	b	aba0 <_vfprintf_r+0x17c0>
    b264:	e59d402c 	ldr	r4, [sp, #44]	; 0x2c
    b268:	e59d502c 	ldr	r5, [sp, #44]	; 0x2c
    b26c:	e5944000 	ldr	r4, [r4]
    b270:	e2853004 	add	r3, r5, #4
    b274:	e3540000 	cmp	r4, #0
    b278:	e5d78001 	ldrb	r8, [r7, #1]
    b27c:	e58d4018 	str	r4, [sp, #24]
    b280:	e58d302c 	str	r3, [sp, #44]	; 0x2c
    b284:	e1a07000 	mov	r7, r0
    b288:	aafff8b1 	bge	9554 <_vfprintf_r+0x174>
    b28c:	eafff8ae 	b	954c <_vfprintf_r+0x16c>
    b290:	e28d3076 	add	r3, sp, #118	; 0x76
    b294:	eaffff85 	b	b0b0 <_vfprintf_r+0x1cd0>
    b298:	e59d306c 	ldr	r3, [sp, #108]	; 0x6c
    b29c:	eaffff73 	b	b070 <_vfprintf_r+0x1c90>
    b2a0:	00012718 	.word	0x00012718
    b2a4:	00012768 	.word	0x00012768
    b2a8:	00012734 	.word	0x00012734
    b2ac:	00012730 	.word	0x00012730
    b2b0:	00012760 	.word	0x00012760
    b2b4:	66666667 	.word	0x66666667

0000b2b8 <vfprintf>:
    b2b8:	e59fc01c 	ldr	ip, [pc, #28]	; b2dc <vfprintf+0x24>
    b2bc:	e52d4004 	push	{r4}		; (str r4, [sp, #-4]!)
    b2c0:	e1a04001 	mov	r4, r1
    b2c4:	e1a03002 	mov	r3, r2
    b2c8:	e1a01000 	mov	r1, r0
    b2cc:	e1a02004 	mov	r2, r4
    b2d0:	e59c0000 	ldr	r0, [ip]
    b2d4:	e49d4004 	pop	{r4}		; (ldr r4, [sp], #4)
    b2d8:	eafff840 	b	93e0 <_vfprintf_r>
    b2dc:	00012e30 	.word	0x00012e30

0000b2e0 <__sbprintf>:
    b2e0:	e92d4ff0 	push	{r4, r5, r6, r7, r8, r9, sl, fp, lr}
    b2e4:	e24dde46 	sub	sp, sp, #1120	; 0x460
    b2e8:	e24dd00c 	sub	sp, sp, #12
    b2ec:	e1d150bc 	ldrh	r5, [r1, #12]
    b2f0:	e59fc0b0 	ldr	ip, [pc, #176]	; b3a8 <__sbprintf+0xc8>
    b2f4:	e28dbe46 	add	fp, sp, #1120	; 0x460
    b2f8:	e5916024 	ldr	r6, [r1, #36]	; 0x24
    b2fc:	e591a064 	ldr	sl, [r1, #100]	; 0x64
    b300:	e1d190be 	ldrh	r9, [r1, #14]
    b304:	e591701c 	ldr	r7, [r1, #28]
    b308:	e3c55002 	bic	r5, r5, #2
    b30c:	e28bb008 	add	fp, fp, #8
    b310:	e59f8094 	ldr	r8, [pc, #148]	; b3ac <__sbprintf+0xcc>
    b314:	e28de068 	add	lr, sp, #104	; 0x68
    b318:	e18b50bc 	strh	r5, [fp, ip]
    b31c:	e1a04001 	mov	r4, r1
    b320:	e3a0cb01 	mov	ip, #1024	; 0x400
    b324:	e3a05000 	mov	r5, #0
    b328:	e1a0100d 	mov	r1, sp
    b32c:	e58d6024 	str	r6, [sp, #36]	; 0x24
    b330:	e58d5018 	str	r5, [sp, #24]
    b334:	e58da064 	str	sl, [sp, #100]	; 0x64
    b338:	e18b90b8 	strh	r9, [fp, r8]
    b33c:	e58d701c 	str	r7, [sp, #28]
    b340:	e58de000 	str	lr, [sp]
    b344:	e58de010 	str	lr, [sp, #16]
    b348:	e58dc008 	str	ip, [sp, #8]
    b34c:	e58dc014 	str	ip, [sp, #20]
    b350:	e1a06000 	mov	r6, r0
    b354:	ebfff821 	bl	93e0 <_vfprintf_r>
    b358:	e2505000 	subs	r5, r0, #0
    b35c:	ba000004 	blt	b374 <__sbprintf+0x94>
    b360:	e1a00006 	mov	r0, r6
    b364:	e1a0100d 	mov	r1, sp
    b368:	eb000645 	bl	cc84 <_fflush_r>
    b36c:	e3500000 	cmp	r0, #0
    b370:	13e05000 	mvnne	r5, #0
    b374:	e28d2e46 	add	r2, sp, #1120	; 0x460
    b378:	e59f3028 	ldr	r3, [pc, #40]	; b3a8 <__sbprintf+0xc8>
    b37c:	e2822008 	add	r2, r2, #8
    b380:	e19230b3 	ldrh	r3, [r2, r3]
    b384:	e3130040 	tst	r3, #64	; 0x40
    b388:	11d430bc 	ldrhne	r3, [r4, #12]
    b38c:	e1a00005 	mov	r0, r5
    b390:	13833040 	orrne	r3, r3, #64	; 0x40
    b394:	11c430bc 	strhne	r3, [r4, #12]
    b398:	e28dde46 	add	sp, sp, #1120	; 0x460
    b39c:	e28dd00c 	add	sp, sp, #12
    b3a0:	e8bd4ff0 	pop	{r4, r5, r6, r7, r8, r9, sl, fp, lr}
    b3a4:	e12fff1e 	bx	lr
    b3a8:	fffffba4 	.word	0xfffffba4
    b3ac:	fffffba6 	.word	0xfffffba6

0000b3b0 <__swsetup_r>:
    b3b0:	e92d4038 	push	{r3, r4, r5, lr}
    b3b4:	e59f314c 	ldr	r3, [pc, #332]	; b508 <__swsetup_r+0x158>
    b3b8:	e5933000 	ldr	r3, [r3]
    b3bc:	e3530000 	cmp	r3, #0
    b3c0:	e1a05000 	mov	r5, r0
    b3c4:	e1a04001 	mov	r4, r1
    b3c8:	0a000002 	beq	b3d8 <__swsetup_r+0x28>
    b3cc:	e5932038 	ldr	r2, [r3, #56]	; 0x38
    b3d0:	e3520000 	cmp	r2, #0
    b3d4:	0a000032 	beq	b4a4 <__swsetup_r+0xf4>
    b3d8:	e1d4c0bc 	ldrh	ip, [r4, #12]
    b3dc:	e31c0008 	tst	ip, #8
    b3e0:	e1a0300c 	mov	r3, ip
    b3e4:	0a00000c 	beq	b41c <__swsetup_r+0x6c>
    b3e8:	e5942010 	ldr	r2, [r4, #16]
    b3ec:	e3520000 	cmp	r2, #0
    b3f0:	0a000012 	beq	b440 <__swsetup_r+0x90>
    b3f4:	e2131001 	ands	r1, r3, #1
    b3f8:	1a000019 	bne	b464 <__swsetup_r+0xb4>
    b3fc:	e3130002 	tst	r3, #2
    b400:	05941014 	ldreq	r1, [r4, #20]
    b404:	e3520000 	cmp	r2, #0
    b408:	e5841008 	str	r1, [r4, #8]
    b40c:	13a00000 	movne	r0, #0
    b410:	0a00001b 	beq	b484 <__swsetup_r+0xd4>
    b414:	e8bd4038 	pop	{r3, r4, r5, lr}
    b418:	e12fff1e 	bx	lr
    b41c:	e31c0010 	tst	ip, #16
    b420:	0a000032 	beq	b4f0 <__swsetup_r+0x140>
    b424:	e31c0004 	tst	ip, #4
    b428:	1a000020 	bne	b4b0 <__swsetup_r+0x100>
    b42c:	e5942010 	ldr	r2, [r4, #16]
    b430:	e38c3008 	orr	r3, ip, #8
    b434:	e3520000 	cmp	r2, #0
    b438:	e1c430bc 	strh	r3, [r4, #12]
    b43c:	1affffec 	bne	b3f4 <__swsetup_r+0x44>
    b440:	e2031d0a 	and	r1, r3, #640	; 0x280
    b444:	e3510c02 	cmp	r1, #512	; 0x200
    b448:	0affffe9 	beq	b3f4 <__swsetup_r+0x44>
    b44c:	e1a00005 	mov	r0, r5
    b450:	e1a01004 	mov	r1, r4
    b454:	eb00098d 	bl	da90 <__smakebuf_r>
    b458:	e1d430bc 	ldrh	r3, [r4, #12]
    b45c:	e5942010 	ldr	r2, [r4, #16]
    b460:	eaffffe3 	b	b3f4 <__swsetup_r+0x44>
    b464:	e5941014 	ldr	r1, [r4, #20]
    b468:	e3a03000 	mov	r3, #0
    b46c:	e2611000 	rsb	r1, r1, #0
    b470:	e3520000 	cmp	r2, #0
    b474:	e5841018 	str	r1, [r4, #24]
    b478:	e5843008 	str	r3, [r4, #8]
    b47c:	13a00000 	movne	r0, #0
    b480:	1affffe3 	bne	b414 <__swsetup_r+0x64>
    b484:	e1d430bc 	ldrh	r3, [r4, #12]
    b488:	e3130080 	tst	r3, #128	; 0x80
    b48c:	13833040 	orrne	r3, r3, #64	; 0x40
    b490:	11c430bc 	strhne	r3, [r4, #12]
    b494:	13e00000 	mvnne	r0, #0
    b498:	01a00002 	moveq	r0, r2
    b49c:	e8bd4038 	pop	{r3, r4, r5, lr}
    b4a0:	e12fff1e 	bx	lr
    b4a4:	e1a00003 	mov	r0, r3
    b4a8:	eb000640 	bl	cdb0 <__sinit>
    b4ac:	eaffffc9 	b	b3d8 <__swsetup_r+0x28>
    b4b0:	e5941030 	ldr	r1, [r4, #48]	; 0x30
    b4b4:	e3510000 	cmp	r1, #0
    b4b8:	0a000007 	beq	b4dc <__swsetup_r+0x12c>
    b4bc:	e2843040 	add	r3, r4, #64	; 0x40
    b4c0:	e1510003 	cmp	r1, r3
    b4c4:	0a000002 	beq	b4d4 <__swsetup_r+0x124>
    b4c8:	e1a00005 	mov	r0, r5
    b4cc:	eb000725 	bl	d168 <_free_r>
    b4d0:	e1d4c0bc 	ldrh	ip, [r4, #12]
    b4d4:	e3a03000 	mov	r3, #0
    b4d8:	e5843030 	str	r3, [r4, #48]	; 0x30
    b4dc:	e5942010 	ldr	r2, [r4, #16]
    b4e0:	e3a03000 	mov	r3, #0
    b4e4:	e3ccc024 	bic	ip, ip, #36	; 0x24
    b4e8:	e884000c 	stm	r4, {r2, r3}
    b4ec:	eaffffcf 	b	b430 <__swsetup_r+0x80>
    b4f0:	e38cc040 	orr	ip, ip, #64	; 0x40
    b4f4:	e3a03009 	mov	r3, #9
    b4f8:	e5853000 	str	r3, [r5]
    b4fc:	e3e00000 	mvn	r0, #0
    b500:	e1c4c0bc 	strh	ip, [r4, #12]
    b504:	eaffffc2 	b	b414 <__swsetup_r+0x64>
    b508:	00012e30 	.word	0x00012e30

0000b50c <quorem>:
    b50c:	e92d4ff0 	push	{r4, r5, r6, r7, r8, r9, sl, fp, lr}
    b510:	e5903010 	ldr	r3, [r0, #16]
    b514:	e5915010 	ldr	r5, [r1, #16]
    b518:	e1550003 	cmp	r5, r3
    b51c:	e1a09000 	mov	r9, r0
    b520:	e24dd00c 	sub	sp, sp, #12
    b524:	e1a0a001 	mov	sl, r1
    b528:	c3a00000 	movgt	r0, #0
    b52c:	ca00006b 	bgt	b6e0 <quorem+0x1d4>
    b530:	e2455001 	sub	r5, r5, #1
    b534:	e2814014 	add	r4, r1, #20
    b538:	e7941105 	ldr	r1, [r4, r5, lsl #2]
    b53c:	e2898014 	add	r8, r9, #20
    b540:	e2811001 	add	r1, r1, #1
    b544:	e7980105 	ldr	r0, [r8, r5, lsl #2]
    b548:	eb00192d 	bl	11a04 <__aeabi_uidiv>
    b54c:	e1a02105 	lsl	r2, r5, #2
    b550:	e0883002 	add	r3, r8, r2
    b554:	e2507000 	subs	r7, r0, #0
    b558:	e58d2000 	str	r2, [sp]
    b55c:	e0846002 	add	r6, r4, r2
    b560:	e58d3004 	str	r3, [sp, #4]
    b564:	0a000030 	beq	b62c <quorem+0x120>
    b568:	e3a0c000 	mov	ip, #0
    b56c:	e1a0000c 	mov	r0, ip
    b570:	e1a02004 	mov	r2, r4
    b574:	e1a03008 	mov	r3, r8
    b578:	e492e004 	ldr	lr, [r2], #4
    b57c:	e1a0b80e 	lsl	fp, lr, #16
    b580:	e1a0182e 	lsr	r1, lr, #16
    b584:	e1a0b82b 	lsr	fp, fp, #16
    b588:	e02bcb97 	mla	fp, r7, fp, ip
    b58c:	e0010197 	mul	r1, r7, r1
    b590:	e593e000 	ldr	lr, [r3]
    b594:	e081182b 	add	r1, r1, fp, lsr #16
    b598:	e1a0b80b 	lsl	fp, fp, #16
    b59c:	e040082b 	sub	r0, r0, fp, lsr #16
    b5a0:	e1a0c80e 	lsl	ip, lr, #16
    b5a4:	e1a0b801 	lsl	fp, r1, #16
    b5a8:	e080c82c 	add	ip, r0, ip, lsr #16
    b5ac:	e1a0082b 	lsr	r0, fp, #16
    b5b0:	e060082e 	rsb	r0, r0, lr, lsr #16
    b5b4:	e1a0b80c 	lsl	fp, ip, #16
    b5b8:	e080084c 	add	r0, r0, ip, asr #16
    b5bc:	e1a0c82b 	lsr	ip, fp, #16
    b5c0:	e18cc800 	orr	ip, ip, r0, lsl #16
    b5c4:	e1560002 	cmp	r6, r2
    b5c8:	e483c004 	str	ip, [r3], #4
    b5cc:	e1a00840 	asr	r0, r0, #16
    b5d0:	e1a0c821 	lsr	ip, r1, #16
    b5d4:	2affffe7 	bcs	b578 <quorem+0x6c>
    b5d8:	e59d2000 	ldr	r2, [sp]
    b5dc:	e7983002 	ldr	r3, [r8, r2]
    b5e0:	e3530000 	cmp	r3, #0
    b5e4:	1a000010 	bne	b62c <quorem+0x120>
    b5e8:	e59d2004 	ldr	r2, [sp, #4]
    b5ec:	e2423004 	sub	r3, r2, #4
    b5f0:	e1580003 	cmp	r8, r3
    b5f4:	2a00000b 	bcs	b628 <quorem+0x11c>
    b5f8:	e5123004 	ldr	r3, [r2, #-4]
    b5fc:	e3530000 	cmp	r3, #0
    b600:	1a000008 	bne	b628 <quorem+0x11c>
    b604:	e2423008 	sub	r3, r2, #8
    b608:	ea000003 	b	b61c <quorem+0x110>
    b60c:	e5932000 	ldr	r2, [r3]
    b610:	e3520000 	cmp	r2, #0
    b614:	e2433004 	sub	r3, r3, #4
    b618:	1a000002 	bne	b628 <quorem+0x11c>
    b61c:	e1580003 	cmp	r8, r3
    b620:	e2455001 	sub	r5, r5, #1
    b624:	3afffff8 	bcc	b60c <quorem+0x100>
    b628:	e5895010 	str	r5, [r9, #16]
    b62c:	e1a0100a 	mov	r1, sl
    b630:	e1a00009 	mov	r0, r9
    b634:	eb000e30 	bl	eefc <__mcmp>
    b638:	e3500000 	cmp	r0, #0
    b63c:	ba000026 	blt	b6dc <quorem+0x1d0>
    b640:	e2877001 	add	r7, r7, #1
    b644:	e1a03008 	mov	r3, r8
    b648:	e3a02000 	mov	r2, #0
    b64c:	e494c004 	ldr	ip, [r4], #4
    b650:	e5930000 	ldr	r0, [r3]
    b654:	e1a0180c 	lsl	r1, ip, #16
    b658:	e0422821 	sub	r2, r2, r1, lsr #16
    b65c:	e1a01800 	lsl	r1, r0, #16
    b660:	e0821821 	add	r1, r2, r1, lsr #16
    b664:	e1a0c82c 	lsr	ip, ip, #16
    b668:	e06c2820 	rsb	r2, ip, r0, lsr #16
    b66c:	e1a0a801 	lsl	sl, r1, #16
    b670:	e0822841 	add	r2, r2, r1, asr #16
    b674:	e1a0182a 	lsr	r1, sl, #16
    b678:	e1811802 	orr	r1, r1, r2, lsl #16
    b67c:	e1560004 	cmp	r6, r4
    b680:	e4831004 	str	r1, [r3], #4
    b684:	e1a02842 	asr	r2, r2, #16
    b688:	2affffef 	bcs	b64c <quorem+0x140>
    b68c:	e7983105 	ldr	r3, [r8, r5, lsl #2]
    b690:	e3530000 	cmp	r3, #0
    b694:	e0883105 	add	r3, r8, r5, lsl #2
    b698:	1a00000f 	bne	b6dc <quorem+0x1d0>
    b69c:	e2432004 	sub	r2, r3, #4
    b6a0:	e1580002 	cmp	r8, r2
    b6a4:	2a00000b 	bcs	b6d8 <quorem+0x1cc>
    b6a8:	e5132004 	ldr	r2, [r3, #-4]
    b6ac:	e3520000 	cmp	r2, #0
    b6b0:	1a000008 	bne	b6d8 <quorem+0x1cc>
    b6b4:	e2433008 	sub	r3, r3, #8
    b6b8:	ea000003 	b	b6cc <quorem+0x1c0>
    b6bc:	e5932000 	ldr	r2, [r3]
    b6c0:	e3520000 	cmp	r2, #0
    b6c4:	e2433004 	sub	r3, r3, #4
    b6c8:	1a000002 	bne	b6d8 <quorem+0x1cc>
    b6cc:	e1580003 	cmp	r8, r3
    b6d0:	e2455001 	sub	r5, r5, #1
    b6d4:	3afffff8 	bcc	b6bc <quorem+0x1b0>
    b6d8:	e5895010 	str	r5, [r9, #16]
    b6dc:	e1a00007 	mov	r0, r7
    b6e0:	e28dd00c 	add	sp, sp, #12
    b6e4:	e8bd4ff0 	pop	{r4, r5, r6, r7, r8, r9, sl, fp, lr}
    b6e8:	e12fff1e 	bx	lr
    b6ec:	00000000 	andeq	r0, r0, r0

0000b6f0 <_dtoa_r>:
    b6f0:	e92d4ff0 	push	{r4, r5, r6, r7, r8, r9, sl, fp, lr}
    b6f4:	ed2d8b02 	vpush	{d8}
    b6f8:	e590c040 	ldr	ip, [r0, #64]	; 0x40
    b6fc:	e24dd044 	sub	sp, sp, #68	; 0x44
    b700:	e35c0000 	cmp	ip, #0
    b704:	e1a04000 	mov	r4, r0
    b708:	e1a09001 	mov	r9, r1
    b70c:	e1a05002 	mov	r5, r2
    b710:	e58d300c 	str	r3, [sp, #12]
    b714:	e59d6070 	ldr	r6, [sp, #112]	; 0x70
    b718:	ec5bab10 	vmov	sl, fp, d0
    b71c:	0a000008 	beq	b744 <_dtoa_r+0x54>
    b720:	e5903044 	ldr	r3, [r0, #68]	; 0x44
    b724:	e3a02001 	mov	r2, #1
    b728:	e1a02312 	lsl	r2, r2, r3
    b72c:	e58c3004 	str	r3, [ip, #4]
    b730:	e58c2008 	str	r2, [ip, #8]
    b734:	e1a0100c 	mov	r1, ip
    b738:	eb000c34 	bl	e810 <_Bfree>
    b73c:	e3a03000 	mov	r3, #0
    b740:	e5843040 	str	r3, [r4, #64]	; 0x40
    b744:	e35b0000 	cmp	fp, #0
    b748:	b3cb3102 	biclt	r3, fp, #-2147483648	; 0x80000000
    b74c:	b3a02001 	movlt	r2, #1
    b750:	a3a03000 	movge	r3, #0
    b754:	b5862000 	strlt	r2, [r6]
    b758:	a5863000 	strge	r3, [r6]
    b75c:	b1a06003 	movlt	r6, r3
    b760:	b1a0b003 	movlt	fp, r3
    b764:	e59f33f4 	ldr	r3, [pc, #1012]	; bb60 <_dtoa_r+0x470>
    b768:	a1a0600b 	movge	r6, fp
    b76c:	e1a02003 	mov	r2, r3
    b770:	e0063003 	and	r3, r6, r3
    b774:	e1530002 	cmp	r3, r2
    b778:	0a000010 	beq	b7c0 <_dtoa_r+0xd0>
    b77c:	ec4bab18 	vmov	d8, sl, fp
    b780:	eeb58b40 	vcmp.f64	d8, #0.0
    b784:	eef1fa10 	vmrs	APSR_nzcv, fpscr
    b788:	1a00001f 	bne	b80c <_dtoa_r+0x11c>
    b78c:	e59d6074 	ldr	r6, [sp, #116]	; 0x74
    b790:	e59dc00c 	ldr	ip, [sp, #12]
    b794:	e3a03001 	mov	r3, #1
    b798:	e3560000 	cmp	r6, #0
    b79c:	e58c3000 	str	r3, [ip]
    b7a0:	0a000085 	beq	b9bc <_dtoa_r+0x2cc>
    b7a4:	e59f03b8 	ldr	r0, [pc, #952]	; bb64 <_dtoa_r+0x474>
    b7a8:	e5860000 	str	r0, [r6]
    b7ac:	e2400001 	sub	r0, r0, #1
    b7b0:	e28dd044 	add	sp, sp, #68	; 0x44
    b7b4:	ecbd8b02 	vpop	{d8}
    b7b8:	e8bd4ff0 	pop	{r4, r5, r6, r7, r8, r9, sl, fp, lr}
    b7bc:	e12fff1e 	bx	lr
    b7c0:	e59f33a0 	ldr	r3, [pc, #928]	; bb68 <_dtoa_r+0x478>
    b7c4:	e59dc00c 	ldr	ip, [sp, #12]
    b7c8:	e35a0000 	cmp	sl, #0
    b7cc:	e58c3000 	str	r3, [ip]
    b7d0:	0a000065 	beq	b96c <_dtoa_r+0x27c>
    b7d4:	e59f0390 	ldr	r0, [pc, #912]	; bb6c <_dtoa_r+0x47c>
    b7d8:	e59d6074 	ldr	r6, [sp, #116]	; 0x74
    b7dc:	e3560000 	cmp	r6, #0
    b7e0:	0afffff2 	beq	b7b0 <_dtoa_r+0xc0>
    b7e4:	e5d03003 	ldrb	r3, [r0, #3]
    b7e8:	e59dc074 	ldr	ip, [sp, #116]	; 0x74
    b7ec:	e3530000 	cmp	r3, #0
    b7f0:	12803008 	addne	r3, r0, #8
    b7f4:	02803003 	addeq	r3, r0, #3
    b7f8:	e58c3000 	str	r3, [ip]
    b7fc:	e28dd044 	add	sp, sp, #68	; 0x44
    b800:	ecbd8b02 	vpop	{d8}
    b804:	e8bd4ff0 	pop	{r4, r5, r6, r7, r8, r9, sl, fp, lr}
    b808:	e12fff1e 	bx	lr
    b80c:	e1a00004 	mov	r0, r4
    b810:	ec4bab10 	vmov	d0, sl, fp
    b814:	e28d103c 	add	r1, sp, #60	; 0x3c
    b818:	e28d2038 	add	r2, sp, #56	; 0x38
    b81c:	eb000e6f 	bl	f1e0 <__d2b>
    b820:	e1b07a26 	lsrs	r7, r6, #20
    b824:	e1a08000 	mov	r8, r0
    b828:	1a000057 	bne	b98c <_dtoa_r+0x29c>
    b82c:	e28d0038 	add	r0, sp, #56	; 0x38
    b830:	e8900003 	ldm	r0, {r0, r1}
    b834:	e3e03e41 	mvn	r3, #1040	; 0x410
    b838:	e0801001 	add	r1, r0, r1
    b83c:	e1510003 	cmp	r1, r3
    b840:	ba000184 	blt	be58 <_dtoa_r+0x768>
    b844:	e2812e41 	add	r2, r1, #1040	; 0x410
    b848:	e2822002 	add	r2, r2, #2
    b84c:	e1a0223a 	lsr	r2, sl, r2
    b850:	e283301f 	add	r3, r3, #31
    b854:	e0613003 	rsb	r3, r1, r3
    b858:	e1822316 	orr	r2, r2, r6, lsl r3
    b85c:	ee072a90 	vmov	s15, r2
    b860:	eeb84b67 	vcvt.f64.u32	d4, s15
    b864:	ec532b14 	vmov	r2, r3, d4
    b868:	e3a06001 	mov	r6, #1
    b86c:	e58d6034 	str	r6, [sp, #52]	; 0x34
    b870:	e2417001 	sub	r7, r1, #1
    b874:	e243361f 	sub	r3, r3, #32505856	; 0x1f00000
    b878:	e1a01000 	mov	r1, r0
    b87c:	ec432b14 	vmov	d4, r2, r3
    b880:	ed9f5bac 	vldr	d5, [pc, #688]	; bb38 <_dtoa_r+0x448>
    b884:	ed9f6bad 	vldr	d6, [pc, #692]	; bb40 <_dtoa_r+0x450>
    b888:	ee345b45 	vsub.f64	d5, d4, d5
    b88c:	ed9f7bad 	vldr	d7, [pc, #692]	; bb48 <_dtoa_r+0x458>
    b890:	ee047a90 	vmov	s9, r7
    b894:	ee057b06 	vmla.f64	d7, d5, d6
    b898:	eeb85be4 	vcvt.f64.s32	d5, s9
    b89c:	ed9f6bab 	vldr	d6, [pc, #684]	; bb50 <_dtoa_r+0x460>
    b8a0:	ee057b06 	vmla.f64	d7, d5, d6
    b8a4:	eeb57bc0 	vcmpe.f64	d7, #0.0
    b8a8:	eebd5bc7 	vcvt.s32.f64	s10, d7
    b8ac:	eef1fa10 	vmrs	APSR_nzcv, fpscr
    b8b0:	ed8d5a02 	vstr	s10, [sp, #8]
    b8b4:	4a000160 	bmi	be3c <_dtoa_r+0x74c>
    b8b8:	e59dc008 	ldr	ip, [sp, #8]
    b8bc:	e35c0016 	cmp	ip, #22
    b8c0:	83a06001 	movhi	r6, #1
    b8c4:	858d6030 	strhi	r6, [sp, #48]	; 0x30
    b8c8:	8a00000b 	bhi	b8fc <_dtoa_r+0x20c>
    b8cc:	e59f32a8 	ldr	r3, [pc, #680]	; bb7c <_dtoa_r+0x48c>
    b8d0:	e083318c 	add	r3, r3, ip, lsl #3
    b8d4:	ed937b00 	vldr	d7, [r3]
    b8d8:	ec4bab14 	vmov	d4, sl, fp
    b8dc:	eeb47bc4 	vcmpe.f64	d7, d4
    b8e0:	eef1fa10 	vmrs	APSR_nzcv, fpscr
    b8e4:	c24cc001 	subgt	ip, ip, #1
    b8e8:	c3a03000 	movgt	r3, #0
    b8ec:	d3a0c000 	movle	ip, #0
    b8f0:	c58dc008 	strgt	ip, [sp, #8]
    b8f4:	c58d3030 	strgt	r3, [sp, #48]	; 0x30
    b8f8:	d58dc030 	strle	ip, [sp, #48]	; 0x30
    b8fc:	e0677001 	rsb	r7, r7, r1
    b900:	e2577001 	subs	r7, r7, #1
    b904:	e59d6008 	ldr	r6, [sp, #8]
    b908:	42677000 	rsbmi	r7, r7, #0
    b90c:	53a03000 	movpl	r3, #0
    b910:	458d701c 	strmi	r7, [sp, #28]
    b914:	558d301c 	strpl	r3, [sp, #28]
    b918:	43a07000 	movmi	r7, #0
    b91c:	e3560000 	cmp	r6, #0
    b920:	ba00013c 	blt	be18 <_dtoa_r+0x728>
    b924:	e3a0c000 	mov	ip, #0
    b928:	e58d602c 	str	r6, [sp, #44]	; 0x2c
    b92c:	e58dc010 	str	ip, [sp, #16]
    b930:	e0877006 	add	r7, r7, r6
    b934:	e3590009 	cmp	r9, #9
    b938:	8a000021 	bhi	b9c4 <_dtoa_r+0x2d4>
    b93c:	e3590005 	cmp	r9, #5
    b940:	c2499004 	subgt	r9, r9, #4
    b944:	e2493002 	sub	r3, r9, #2
    b948:	c3a06000 	movgt	r6, #0
    b94c:	d3a06001 	movle	r6, #1
    b950:	e3530003 	cmp	r3, #3
    b954:	979ff103 	ldrls	pc, [pc, r3, lsl #2]
    b958:	ea00001a 	b	b9c8 <_dtoa_r+0x2d8>
    b95c:	0000c114 	.word	0x0000c114
    b960:	0000bef4 	.word	0x0000bef4
    b964:	0000c140 	.word	0x0000c140
    b968:	0000c6e0 	.word	0x0000c6e0
    b96c:	e3c604ff 	bic	r0, r6, #-16777216	; 0xff000000
    b970:	e3c0060f 	bic	r0, r0, #15728640	; 0xf00000
    b974:	e59f21f4 	ldr	r2, [pc, #500]	; bb70 <_dtoa_r+0x480>
    b978:	e59f31ec 	ldr	r3, [pc, #492]	; bb6c <_dtoa_r+0x47c>
    b97c:	e3500000 	cmp	r0, #0
    b980:	01a00002 	moveq	r0, r2
    b984:	11a00003 	movne	r0, r3
    b988:	eaffff92 	b	b7d8 <_dtoa_r+0xe8>
    b98c:	e1a0300b 	mov	r3, fp
    b990:	e3c314ff 	bic	r1, r3, #-16777216	; 0xff000000
    b994:	e3c1160f 	bic	r1, r1, #15728640	; 0xf00000
    b998:	e38115ff 	orr	r1, r1, #1069547520	; 0x3fc00000
    b99c:	e2477fff 	sub	r7, r7, #1020	; 0x3fc
    b9a0:	e3a06000 	mov	r6, #0
    b9a4:	e3813603 	orr	r3, r1, #3145728	; 0x300000
    b9a8:	e1a0200a 	mov	r2, sl
    b9ac:	e2477003 	sub	r7, r7, #3
    b9b0:	e59d1038 	ldr	r1, [sp, #56]	; 0x38
    b9b4:	e58d6034 	str	r6, [sp, #52]	; 0x34
    b9b8:	eaffffaf 	b	b87c <_dtoa_r+0x18c>
    b9bc:	e59f01b0 	ldr	r0, [pc, #432]	; bb74 <_dtoa_r+0x484>
    b9c0:	eaffff7a 	b	b7b0 <_dtoa_r+0xc0>
    b9c4:	e3a09000 	mov	r9, #0
    b9c8:	e3a05000 	mov	r5, #0
    b9cc:	e5845044 	str	r5, [r4, #68]	; 0x44
    b9d0:	e1a01005 	mov	r1, r5
    b9d4:	e1a00004 	mov	r0, r4
    b9d8:	eb000b69 	bl	e784 <_Balloc>
    b9dc:	e3e06000 	mvn	r6, #0
    b9e0:	e3a0c001 	mov	ip, #1
    b9e4:	e58d0014 	str	r0, [sp, #20]
    b9e8:	e58d6024 	str	r6, [sp, #36]	; 0x24
    b9ec:	e5840040 	str	r0, [r4, #64]	; 0x40
    b9f0:	e58d6018 	str	r6, [sp, #24]
    b9f4:	e58dc020 	str	ip, [sp, #32]
    b9f8:	e59d303c 	ldr	r3, [sp, #60]	; 0x3c
    b9fc:	e3530000 	cmp	r3, #0
    ba00:	ba00005f 	blt	bb84 <_dtoa_r+0x494>
    ba04:	e59d6008 	ldr	r6, [sp, #8]
    ba08:	e356000e 	cmp	r6, #14
    ba0c:	ca00005c 	bgt	bb84 <_dtoa_r+0x494>
    ba10:	e59dc018 	ldr	ip, [sp, #24]
    ba14:	e59f3160 	ldr	r3, [pc, #352]	; bb7c <_dtoa_r+0x48c>
    ba18:	e1a02fa5 	lsr	r2, r5, #31
    ba1c:	e35c0000 	cmp	ip, #0
    ba20:	c3a02000 	movgt	r2, #0
    ba24:	d2022001 	andle	r2, r2, #1
    ba28:	e0833186 	add	r3, r3, r6, lsl #3
    ba2c:	e3520000 	cmp	r2, #0
    ba30:	ed936b00 	vldr	d6, [r3]
    ba34:	1a000293 	bne	c488 <_dtoa_r+0xd98>
    ba38:	ec4bab17 	vmov	d7, sl, fp
    ba3c:	ee875b06 	vdiv.f64	d5, d7, d6
    ba40:	eefd3bc5 	vcvt.s32.f64	s7, d5
    ba44:	ee130a90 	vmov	r0, s7
    ba48:	eeb84be3 	vcvt.f64.s32	d4, s7
    ba4c:	e59d6014 	ldr	r6, [sp, #20]
    ba50:	e35c0001 	cmp	ip, #1
    ba54:	e59dc014 	ldr	ip, [sp, #20]
    ba58:	e2803030 	add	r3, r0, #48	; 0x30
    ba5c:	e2866001 	add	r6, r6, #1
    ba60:	e5cc3000 	strb	r3, [ip]
    ba64:	e58d6028 	str	r6, [sp, #40]	; 0x28
    ba68:	ee047b46 	vmls.f64	d7, d4, d6
    ba6c:	e1a03006 	mov	r3, r6
    ba70:	0a000018 	beq	bad8 <_dtoa_r+0x3e8>
    ba74:	ed9f4b37 	vldr	d4, [pc, #220]	; bb58 <_dtoa_r+0x468>
    ba78:	ee277b04 	vmul.f64	d7, d7, d4
    ba7c:	eeb57b40 	vcmp.f64	d7, #0.0
    ba80:	eef1fa10 	vmrs	APSR_nzcv, fpscr
    ba84:	0a0003de 	beq	ca04 <_dtoa_r+0x1314>
    ba88:	e28d6014 	add	r6, sp, #20
    ba8c:	e8961040 	ldm	r6, {r6, ip}
    ba90:	e086900c 	add	r9, r6, ip
    ba94:	e2862002 	add	r2, r6, #2
    ba98:	ea000004 	b	bab0 <_dtoa_r+0x3c0>
    ba9c:	ee277b04 	vmul.f64	d7, d7, d4
    baa0:	eeb57b40 	vcmp.f64	d7, #0.0
    baa4:	eef1fa10 	vmrs	APSR_nzcv, fpscr
    baa8:	e2822001 	add	r2, r2, #1
    baac:	0a000334 	beq	c784 <_dtoa_r+0x1094>
    bab0:	ee875b06 	vdiv.f64	d5, d7, d6
    bab4:	eefd3bc5 	vcvt.s32.f64	s7, d5
    bab8:	ee131a90 	vmov	r1, s7
    babc:	eeb85be3 	vcvt.f64.s32	d5, s7
    bac0:	e2813030 	add	r3, r1, #48	; 0x30
    bac4:	e1520009 	cmp	r2, r9
    bac8:	e5423001 	strb	r3, [r2, #-1]
    bacc:	ee057b46 	vmls.f64	d7, d5, d6
    bad0:	e1a03002 	mov	r3, r2
    bad4:	1afffff0 	bne	ba9c <_dtoa_r+0x3ac>
    bad8:	ee377b07 	vadd.f64	d7, d7, d7
    badc:	eeb46bc7 	vcmpe.f64	d6, d7
    bae0:	eef1fa10 	vmrs	APSR_nzcv, fpscr
    bae4:	5a000388 	bpl	c90c <_dtoa_r+0x121c>
    bae8:	e59d5014 	ldr	r5, [sp, #20]
    baec:	e59de008 	ldr	lr, [sp, #8]
    baf0:	e5532001 	ldrb	r2, [r3, #-1]
    baf4:	e59dc028 	ldr	ip, [sp, #40]	; 0x28
    baf8:	ea000003 	b	bb0c <_dtoa_r+0x41c>
    bafc:	e153000c 	cmp	r3, ip
    bb00:	0a000322 	beq	c790 <_dtoa_r+0x10a0>
    bb04:	e5532002 	ldrb	r2, [r3, #-2]
    bb08:	e1a03001 	mov	r3, r1
    bb0c:	e3520039 	cmp	r2, #57	; 0x39
    bb10:	e1a00003 	mov	r0, r3
    bb14:	e2431001 	sub	r1, r3, #1
    bb18:	0afffff7 	beq	bafc <_dtoa_r+0x40c>
    bb1c:	e58d3014 	str	r3, [sp, #20]
    bb20:	e58de008 	str	lr, [sp, #8]
    bb24:	e2823001 	add	r3, r2, #1
    bb28:	e20330ff 	and	r3, r3, #255	; 0xff
    bb2c:	e5c13000 	strb	r3, [r1]
    bb30:	ea0000a3 	b	bdc4 <_dtoa_r+0x6d4>
    bb34:	e1a00000 	nop			; (mov r0, r0)
    bb38:	00000000 	.word	0x00000000
    bb3c:	3ff80000 	.word	0x3ff80000
    bb40:	636f4361 	.word	0x636f4361
    bb44:	3fd287a7 	.word	0x3fd287a7
    bb48:	8b60c8b3 	.word	0x8b60c8b3
    bb4c:	3fc68a28 	.word	0x3fc68a28
    bb50:	509f79fb 	.word	0x509f79fb
    bb54:	3fd34413 	.word	0x3fd34413
    bb58:	00000000 	.word	0x00000000
    bb5c:	40240000 	.word	0x40240000
    bb60:	7ff00000 	.word	0x7ff00000
    bb64:	00012769 	.word	0x00012769
    bb68:	0000270f 	.word	0x0000270f
    bb6c:	0001288c 	.word	0x0001288c
    bb70:	00012880 	.word	0x00012880
    bb74:	00012768 	.word	0x00012768
    bb78:	fffffbee 	.word	0xfffffbee
    bb7c:	000128a8 	.word	0x000128a8
    bb80:	00012970 	.word	0x00012970
    bb84:	e59d6020 	ldr	r6, [sp, #32]
    bb88:	e3560000 	cmp	r6, #0
    bb8c:	1a0000b6 	bne	be6c <_dtoa_r+0x77c>
    bb90:	e59d301c 	ldr	r3, [sp, #28]
    bb94:	e59dc010 	ldr	ip, [sp, #16]
    bb98:	e58d3028 	str	r3, [sp, #40]	; 0x28
    bb9c:	e59d6020 	ldr	r6, [sp, #32]
    bba0:	e59d0028 	ldr	r0, [sp, #40]	; 0x28
    bba4:	e3570000 	cmp	r7, #0
    bba8:	c3500000 	cmpgt	r0, #0
    bbac:	da000008 	ble	bbd4 <_dtoa_r+0x4e4>
    bbb0:	e1a03000 	mov	r3, r0
    bbb4:	e59d101c 	ldr	r1, [sp, #28]
    bbb8:	e1530007 	cmp	r3, r7
    bbbc:	a1a03007 	movge	r3, r7
    bbc0:	e0631001 	rsb	r1, r3, r1
    bbc4:	e0630000 	rsb	r0, r3, r0
    bbc8:	e58d101c 	str	r1, [sp, #28]
    bbcc:	e58d0028 	str	r0, [sp, #40]	; 0x28
    bbd0:	e0637007 	rsb	r7, r3, r7
    bbd4:	e59d3010 	ldr	r3, [sp, #16]
    bbd8:	e3530000 	cmp	r3, #0
    bbdc:	da000019 	ble	bc48 <_dtoa_r+0x558>
    bbe0:	e59d0020 	ldr	r0, [sp, #32]
    bbe4:	e3500000 	cmp	r0, #0
    bbe8:	0a0002cb 	beq	c71c <_dtoa_r+0x102c>
    bbec:	e35c0000 	cmp	ip, #0
    bbf0:	da000011 	ble	bc3c <_dtoa_r+0x54c>
    bbf4:	e1a0200c 	mov	r2, ip
    bbf8:	e1a01006 	mov	r1, r6
    bbfc:	e1a00004 	mov	r0, r4
    bc00:	e58dc004 	str	ip, [sp, #4]
    bc04:	eb000c38 	bl	ecec <__pow5mult>
    bc08:	e1a06000 	mov	r6, r0
    bc0c:	e1a02008 	mov	r2, r8
    bc10:	e1a01006 	mov	r1, r6
    bc14:	e1a00004 	mov	r0, r4
    bc18:	eb000bb9 	bl	eb04 <__multiply>
    bc1c:	e1a01008 	mov	r1, r8
    bc20:	e1a03000 	mov	r3, r0
    bc24:	e1a00004 	mov	r0, r4
    bc28:	e58d3000 	str	r3, [sp]
    bc2c:	eb000af7 	bl	e810 <_Bfree>
    bc30:	e59d3000 	ldr	r3, [sp]
    bc34:	e59dc004 	ldr	ip, [sp, #4]
    bc38:	e1a08003 	mov	r8, r3
    bc3c:	e59d3010 	ldr	r3, [sp, #16]
    bc40:	e053200c 	subs	r2, r3, ip
    bc44:	1a0002e5 	bne	c7e0 <_dtoa_r+0x10f0>
    bc48:	e1a00004 	mov	r0, r4
    bc4c:	e3a01001 	mov	r1, #1
    bc50:	eb000ba2 	bl	eae0 <__i2b>
    bc54:	e59dc02c 	ldr	ip, [sp, #44]	; 0x2c
    bc58:	e35c0000 	cmp	ip, #0
    bc5c:	e58d0010 	str	r0, [sp, #16]
    bc60:	da000004 	ble	bc78 <_dtoa_r+0x588>
    bc64:	e1a01000 	mov	r1, r0
    bc68:	e1a0200c 	mov	r2, ip
    bc6c:	e1a00004 	mov	r0, r4
    bc70:	eb000c1d 	bl	ecec <__pow5mult>
    bc74:	e58d0010 	str	r0, [sp, #16]
    bc78:	e3590001 	cmp	r9, #1
    bc7c:	da00020e 	ble	c4bc <_dtoa_r+0xdcc>
    bc80:	e3a0c000 	mov	ip, #0
    bc84:	e58dc034 	str	ip, [sp, #52]	; 0x34
    bc88:	e59d302c 	ldr	r3, [sp, #44]	; 0x2c
    bc8c:	e3530000 	cmp	r3, #0
    bc90:	03a00001 	moveq	r0, #1
    bc94:	1a0001f4 	bne	c46c <_dtoa_r+0xd7c>
    bc98:	e0803007 	add	r3, r0, r7
    bc9c:	e213301f 	ands	r3, r3, #31
    bca0:	0a00017a 	beq	c290 <_dtoa_r+0xba0>
    bca4:	e2632020 	rsb	r2, r3, #32
    bca8:	e3520004 	cmp	r2, #4
    bcac:	da00035f 	ble	ca30 <_dtoa_r+0x1340>
    bcb0:	e263301c 	rsb	r3, r3, #28
    bcb4:	e59dc01c 	ldr	ip, [sp, #28]
    bcb8:	e08cc003 	add	ip, ip, r3
    bcbc:	e58dc01c 	str	ip, [sp, #28]
    bcc0:	e59dc028 	ldr	ip, [sp, #40]	; 0x28
    bcc4:	e08cc003 	add	ip, ip, r3
    bcc8:	e58dc028 	str	ip, [sp, #40]	; 0x28
    bccc:	e0877003 	add	r7, r7, r3
    bcd0:	e59d301c 	ldr	r3, [sp, #28]
    bcd4:	e3530000 	cmp	r3, #0
    bcd8:	da000004 	ble	bcf0 <_dtoa_r+0x600>
    bcdc:	e1a01008 	mov	r1, r8
    bce0:	e1a02003 	mov	r2, r3
    bce4:	e1a00004 	mov	r0, r4
    bce8:	eb000c40 	bl	edf0 <__lshift>
    bcec:	e1a08000 	mov	r8, r0
    bcf0:	e3570000 	cmp	r7, #0
    bcf4:	da000004 	ble	bd0c <_dtoa_r+0x61c>
    bcf8:	e59d1010 	ldr	r1, [sp, #16]
    bcfc:	e1a02007 	mov	r2, r7
    bd00:	e1a00004 	mov	r0, r4
    bd04:	eb000c39 	bl	edf0 <__lshift>
    bd08:	e58d0010 	str	r0, [sp, #16]
    bd0c:	e59dc030 	ldr	ip, [sp, #48]	; 0x30
    bd10:	e35c0000 	cmp	ip, #0
    bd14:	1a0001b7 	bne	c3f8 <_dtoa_r+0xd08>
    bd18:	e59dc018 	ldr	ip, [sp, #24]
    bd1c:	e3590002 	cmp	r9, #2
    bd20:	d3a03000 	movle	r3, #0
    bd24:	c3a03001 	movgt	r3, #1
    bd28:	e35c0000 	cmp	ip, #0
    bd2c:	c3a03000 	movgt	r3, #0
    bd30:	e3530000 	cmp	r3, #0
    bd34:	0a00011c 	beq	c1ac <_dtoa_r+0xabc>
    bd38:	e59dc018 	ldr	ip, [sp, #24]
    bd3c:	e35c0000 	cmp	ip, #0
    bd40:	1a000114 	bne	c198 <_dtoa_r+0xaa8>
    bd44:	e59d1010 	ldr	r1, [sp, #16]
    bd48:	e1a0300c 	mov	r3, ip
    bd4c:	e3a02005 	mov	r2, #5
    bd50:	e1a00004 	mov	r0, r4
    bd54:	eb000ab4 	bl	e82c <__multadd>
    bd58:	e58d0010 	str	r0, [sp, #16]
    bd5c:	e59d1010 	ldr	r1, [sp, #16]
    bd60:	e1a00008 	mov	r0, r8
    bd64:	eb000c64 	bl	eefc <__mcmp>
    bd68:	e3500000 	cmp	r0, #0
    bd6c:	da000109 	ble	c198 <_dtoa_r+0xaa8>
    bd70:	e59dc008 	ldr	ip, [sp, #8]
    bd74:	e28cc001 	add	ip, ip, #1
    bd78:	e58dc008 	str	ip, [sp, #8]
    bd7c:	e59dc014 	ldr	ip, [sp, #20]
    bd80:	e3a03031 	mov	r3, #49	; 0x31
    bd84:	e5cc3000 	strb	r3, [ip]
    bd88:	e1a0500c 	mov	r5, ip
    bd8c:	e28cc001 	add	ip, ip, #1
    bd90:	e58dc014 	str	ip, [sp, #20]
    bd94:	e3a0a000 	mov	sl, #0
    bd98:	e59d1010 	ldr	r1, [sp, #16]
    bd9c:	e1a00004 	mov	r0, r4
    bda0:	eb000a9a 	bl	e810 <_Bfree>
    bda4:	e3560000 	cmp	r6, #0
    bda8:	0a000005 	beq	bdc4 <_dtoa_r+0x6d4>
    bdac:	e15a0006 	cmp	sl, r6
    bdb0:	135a0000 	cmpne	sl, #0
    bdb4:	1a000137 	bne	c298 <_dtoa_r+0xba8>
    bdb8:	e1a01006 	mov	r1, r6
    bdbc:	e1a00004 	mov	r0, r4
    bdc0:	eb000a92 	bl	e810 <_Bfree>
    bdc4:	e1a00004 	mov	r0, r4
    bdc8:	e1a01008 	mov	r1, r8
    bdcc:	eb000a8f 	bl	e810 <_Bfree>
    bdd0:	e59d6008 	ldr	r6, [sp, #8]
    bdd4:	e59dc074 	ldr	ip, [sp, #116]	; 0x74
    bdd8:	e2863001 	add	r3, r6, #1
    bddc:	e35c0000 	cmp	ip, #0
    bde0:	e59d6014 	ldr	r6, [sp, #20]
    bde4:	e59dc00c 	ldr	ip, [sp, #12]
    bde8:	e3a02000 	mov	r2, #0
    bdec:	e5c62000 	strb	r2, [r6]
    bdf0:	01a00005 	moveq	r0, r5
    bdf4:	e58c3000 	str	r3, [ip]
    bdf8:	0afffe6c 	beq	b7b0 <_dtoa_r+0xc0>
    bdfc:	e59dc074 	ldr	ip, [sp, #116]	; 0x74
    be00:	e1a00005 	mov	r0, r5
    be04:	e58c6000 	str	r6, [ip]
    be08:	e28dd044 	add	sp, sp, #68	; 0x44
    be0c:	ecbd8b02 	vpop	{d8}
    be10:	e8bd4ff0 	pop	{r4, r5, r6, r7, r8, r9, sl, fp, lr}
    be14:	e12fff1e 	bx	lr
    be18:	e59d301c 	ldr	r3, [sp, #28]
    be1c:	e59d6008 	ldr	r6, [sp, #8]
    be20:	e0663003 	rsb	r3, r6, r3
    be24:	e58d301c 	str	r3, [sp, #28]
    be28:	e266c000 	rsb	ip, r6, #0
    be2c:	e3a03000 	mov	r3, #0
    be30:	e58dc010 	str	ip, [sp, #16]
    be34:	e58d302c 	str	r3, [sp, #44]	; 0x2c
    be38:	eafffebd 	b	b934 <_dtoa_r+0x244>
    be3c:	eeb86bc5 	vcvt.f64.s32	d6, s10
    be40:	eeb46b47 	vcmp.f64	d6, d7
    be44:	eef1fa10 	vmrs	APSR_nzcv, fpscr
    be48:	1e156a10 	vmovne	r6, s10
    be4c:	12466001 	subne	r6, r6, #1
    be50:	158d6008 	strne	r6, [sp, #8]
    be54:	eafffe97 	b	b8b8 <_dtoa_r+0x1c8>
    be58:	e51f32e8 	ldr	r3, [pc, #-744]	; bb78 <_dtoa_r+0x488>
    be5c:	e0613003 	rsb	r3, r1, r3
    be60:	e1a0331a 	lsl	r3, sl, r3
    be64:	ee073a90 	vmov	s15, r3
    be68:	eafffe7c 	b	b860 <_dtoa_r+0x170>
    be6c:	e3590001 	cmp	r9, #1
    be70:	da000267 	ble	c814 <_dtoa_r+0x1124>
    be74:	e59dc018 	ldr	ip, [sp, #24]
    be78:	e59d3010 	ldr	r3, [sp, #16]
    be7c:	e24c6001 	sub	r6, ip, #1
    be80:	e1530006 	cmp	r3, r6
    be84:	b59dc010 	ldrlt	ip, [sp, #16]
    be88:	b06c3006 	rsblt	r3, ip, r6
    be8c:	b59dc02c 	ldrlt	ip, [sp, #44]	; 0x2c
    be90:	a066c003 	rsbge	ip, r6, r3
    be94:	b58d6010 	strlt	r6, [sp, #16]
    be98:	e59d6018 	ldr	r6, [sp, #24]
    be9c:	b08cc003 	addlt	ip, ip, r3
    bea0:	b58dc02c 	strlt	ip, [sp, #44]	; 0x2c
    bea4:	b3a0c000 	movlt	ip, #0
    bea8:	e3560000 	cmp	r6, #0
    beac:	b59d301c 	ldrlt	r3, [sp, #28]
    beb0:	a59d601c 	ldrge	r6, [sp, #28]
    beb4:	b0666003 	rsblt	r6, r6, r3
    beb8:	b58d6028 	strlt	r6, [sp, #40]	; 0x28
    bebc:	a58d6028 	strge	r6, [sp, #40]	; 0x28
    bec0:	a59d3018 	ldrge	r3, [sp, #24]
    bec4:	b3a03000 	movlt	r3, #0
    bec8:	e59d601c 	ldr	r6, [sp, #28]
    becc:	e1a00004 	mov	r0, r4
    bed0:	e0866003 	add	r6, r6, r3
    bed4:	e3a01001 	mov	r1, #1
    bed8:	e58d601c 	str	r6, [sp, #28]
    bedc:	e58dc004 	str	ip, [sp, #4]
    bee0:	e0877003 	add	r7, r7, r3
    bee4:	eb000afd 	bl	eae0 <__i2b>
    bee8:	e59dc004 	ldr	ip, [sp, #4]
    beec:	e1a06000 	mov	r6, r0
    bef0:	eaffff2a 	b	bba0 <_dtoa_r+0x4b0>
    bef4:	e3a0c000 	mov	ip, #0
    bef8:	e58dc020 	str	ip, [sp, #32]
    befc:	e59dc008 	ldr	ip, [sp, #8]
    bf00:	e085c00c 	add	ip, r5, ip
    bf04:	e58dc024 	str	ip, [sp, #36]	; 0x24
    bf08:	e28cc001 	add	ip, ip, #1
    bf0c:	e35c0000 	cmp	ip, #0
    bf10:	e58dc018 	str	ip, [sp, #24]
    bf14:	da0001f4 	ble	c6ec <_dtoa_r+0xffc>
    bf18:	e59dc018 	ldr	ip, [sp, #24]
    bf1c:	e35c000e 	cmp	ip, #14
    bf20:	83a06000 	movhi	r6, #0
    bf24:	92066001 	andls	r6, r6, #1
    bf28:	e3a01000 	mov	r1, #0
    bf2c:	e35c0017 	cmp	ip, #23
    bf30:	e5841044 	str	r1, [r4, #68]	; 0x44
    bf34:	9a000008 	bls	bf5c <_dtoa_r+0x86c>
    bf38:	e3a02001 	mov	r2, #1
    bf3c:	e3a03004 	mov	r3, #4
    bf40:	e1a03083 	lsl	r3, r3, #1
    bf44:	e2830014 	add	r0, r3, #20
    bf48:	e150000c 	cmp	r0, ip
    bf4c:	e1a01002 	mov	r1, r2
    bf50:	e2822001 	add	r2, r2, #1
    bf54:	9afffff9 	bls	bf40 <_dtoa_r+0x850>
    bf58:	e5841044 	str	r1, [r4, #68]	; 0x44
    bf5c:	e1a00004 	mov	r0, r4
    bf60:	eb000a07 	bl	e784 <_Balloc>
    bf64:	e3560000 	cmp	r6, #0
    bf68:	e58d0014 	str	r0, [sp, #20]
    bf6c:	e5840040 	str	r0, [r4, #64]	; 0x40
    bf70:	0afffea0 	beq	b9f8 <_dtoa_r+0x308>
    bf74:	e59d6008 	ldr	r6, [sp, #8]
    bf78:	e3560000 	cmp	r6, #0
    bf7c:	ec4bab13 	vmov	d3, sl, fp
    bf80:	da0000ca 	ble	c2b0 <_dtoa_r+0xbc0>
    bf84:	e51f1410 	ldr	r1, [pc, #-1040]	; bb7c <_dtoa_r+0x48c>
    bf88:	e1a03246 	asr	r3, r6, #4
    bf8c:	e206200f 	and	r2, r6, #15
    bf90:	e3130010 	tst	r3, #16
    bf94:	e0812182 	add	r2, r1, r2, lsl #3
    bf98:	ed927b00 	vldr	d7, [r2]
    bf9c:	151f2424 	ldrne	r2, [pc, #-1060]	; bb80 <_dtoa_r+0x490>
    bfa0:	1d925b08 	vldrne	d5, [r2, #32]
    bfa4:	1203300f 	andne	r3, r3, #15
    bfa8:	1e835b05 	vdivne.f64	d5, d3, d5
    bfac:	13a01003 	movne	r1, #3
    bfb0:	0eb05b43 	vmoveq.f64	d5, d3
    bfb4:	03a01002 	moveq	r1, #2
    bfb8:	e3530000 	cmp	r3, #0
    bfbc:	0a000007 	beq	bfe0 <_dtoa_r+0x8f0>
    bfc0:	e51f2448 	ldr	r2, [pc, #-1096]	; bb80 <_dtoa_r+0x490>
    bfc4:	e3130001 	tst	r3, #1
    bfc8:	1d926b00 	vldrne	d6, [r2]
    bfcc:	12811001 	addne	r1, r1, #1
    bfd0:	1e277b06 	vmulne.f64	d7, d7, d6
    bfd4:	e1b030c3 	asrs	r3, r3, #1
    bfd8:	e2822008 	add	r2, r2, #8
    bfdc:	1afffff8 	bne	bfc4 <_dtoa_r+0x8d4>
    bfe0:	ee857b07 	vdiv.f64	d7, d5, d7
    bfe4:	e59d3030 	ldr	r3, [sp, #48]	; 0x30
    bfe8:	e3530000 	cmp	r3, #0
    bfec:	0a000003 	beq	c000 <_dtoa_r+0x910>
    bff0:	ed9f6bf4 	vldr	d6, [pc, #976]	; c3c8 <_dtoa_r+0xcd8>
    bff4:	eeb47bc6 	vcmpe.f64	d7, d6
    bff8:	eef1fa10 	vmrs	APSR_nzcv, fpscr
    bffc:	4a0001cc 	bmi	c734 <_dtoa_r+0x1044>
    c000:	ee041a10 	vmov	s8, r1
    c004:	ed9f6bf1 	vldr	d6, [pc, #964]	; c3d0 <_dtoa_r+0xce0>
    c008:	eeb85bc4 	vcvt.f64.s32	d5, s8
    c00c:	eeb04b46 	vmov.f64	d4, d6
    c010:	ee054b07 	vmla.f64	d4, d5, d7
    c014:	ec532b14 	vmov	r2, r3, d4
    c018:	e59d6018 	ldr	r6, [sp, #24]
    c01c:	e3560000 	cmp	r6, #0
    c020:	e243350d 	sub	r3, r3, #54525952	; 0x3400000
    c024:	0a00004f 	beq	c168 <_dtoa_r+0xa78>
    c028:	e59de008 	ldr	lr, [sp, #8]
    c02c:	e59d1018 	ldr	r1, [sp, #24]
    c030:	e59dc020 	ldr	ip, [sp, #32]
    c034:	e35c0000 	cmp	ip, #0
    c038:	0a0000b7 	beq	c31c <_dtoa_r+0xc2c>
    c03c:	e59f03ac 	ldr	r0, [pc, #940]	; c3f0 <_dtoa_r+0xd00>
    c040:	e0800181 	add	r0, r0, r1, lsl #3
    c044:	eefd2bc7 	vcvt.s32.f64	s5, d7
    c048:	ed106b02 	vldr	d6, [r0, #-8]
    c04c:	ed9f4be1 	vldr	d4, [pc, #900]	; c3d8 <_dtoa_r+0xce8>
    c050:	eeb85be2 	vcvt.f64.s32	d5, s5
    c054:	ee846b06 	vdiv.f64	d6, d4, d6
    c058:	ec432b14 	vmov	d4, r2, r3
    c05c:	ee377b45 	vsub.f64	d7, d7, d5
    c060:	ee366b44 	vsub.f64	d6, d6, d4
    c064:	eeb46bc7 	vcmpe.f64	d6, d7
    c068:	ee120a90 	vmov	r0, s5
    c06c:	eef1fa10 	vmrs	APSR_nzcv, fpscr
    c070:	e59d6014 	ldr	r6, [sp, #20]
    c074:	e2802030 	add	r2, r0, #48	; 0x30
    c078:	e59dc014 	ldr	ip, [sp, #20]
    c07c:	e2866001 	add	r6, r6, #1
    c080:	e20220ff 	and	r2, r2, #255	; 0xff
    c084:	e58d6028 	str	r6, [sp, #40]	; 0x28
    c088:	e5cc2000 	strb	r2, [ip]
    c08c:	e1a03006 	mov	r3, r6
    c090:	ca000261 	bgt	ca1c <_dtoa_r+0x132c>
    c094:	ed9f2bcb 	vldr	d2, [pc, #812]	; c3c8 <_dtoa_r+0xcd8>
    c098:	ee325b47 	vsub.f64	d5, d2, d7
    c09c:	eeb46bc5 	vcmpe.f64	d6, d5
    c0a0:	eef1fa10 	vmrs	APSR_nzcv, fpscr
    c0a4:	ca000206 	bgt	c8c4 <_dtoa_r+0x11d4>
    c0a8:	e3510001 	cmp	r1, #1
    c0ac:	da00007d 	ble	c2a8 <_dtoa_r+0xbb8>
    c0b0:	e08c1001 	add	r1, ip, r1
    c0b4:	ed9f5bc9 	vldr	d5, [pc, #804]	; c3e0 <_dtoa_r+0xcf0>
    c0b8:	ea000005 	b	c0d4 <_dtoa_r+0x9e4>
    c0bc:	ee324b47 	vsub.f64	d4, d2, d7
    c0c0:	eeb44bc6 	vcmpe.f64	d4, d6
    c0c4:	eef1fa10 	vmrs	APSR_nzcv, fpscr
    c0c8:	4a0001fd 	bmi	c8c4 <_dtoa_r+0x11d4>
    c0cc:	e1530001 	cmp	r3, r1
    c0d0:	0a000074 	beq	c2a8 <_dtoa_r+0xbb8>
    c0d4:	ee277b05 	vmul.f64	d7, d7, d5
    c0d8:	eefd1bc7 	vcvt.s32.f64	s3, d7
    c0dc:	eeb84be1 	vcvt.f64.s32	d4, s3
    c0e0:	ee266b05 	vmul.f64	d6, d6, d5
    c0e4:	ee377b44 	vsub.f64	d7, d7, d4
    c0e8:	eeb47bc6 	vcmpe.f64	d7, d6
    c0ec:	ee110a90 	vmov	r0, s3
    c0f0:	eef1fa10 	vmrs	APSR_nzcv, fpscr
    c0f4:	e2802030 	add	r2, r0, #48	; 0x30
    c0f8:	e20220ff 	and	r2, r2, #255	; 0xff
    c0fc:	e4c32001 	strb	r2, [r3], #1
    c100:	5affffed 	bpl	c0bc <_dtoa_r+0x9cc>
    c104:	e59d5014 	ldr	r5, [sp, #20]
    c108:	e58de008 	str	lr, [sp, #8]
    c10c:	e58d3014 	str	r3, [sp, #20]
    c110:	eaffff2b 	b	bdc4 <_dtoa_r+0x6d4>
    c114:	e3a0c000 	mov	ip, #0
    c118:	e58dc020 	str	ip, [sp, #32]
    c11c:	e3550000 	cmp	r5, #0
    c120:	da000178 	ble	c708 <_dtoa_r+0x1018>
    c124:	e355000e 	cmp	r5, #14
    c128:	83a06000 	movhi	r6, #0
    c12c:	92066001 	andls	r6, r6, #1
    c130:	e1a0c005 	mov	ip, r5
    c134:	e58d5024 	str	r5, [sp, #36]	; 0x24
    c138:	e58d5018 	str	r5, [sp, #24]
    c13c:	eaffff79 	b	bf28 <_dtoa_r+0x838>
    c140:	e3a0c001 	mov	ip, #1
    c144:	e58dc020 	str	ip, [sp, #32]
    c148:	eafffff3 	b	c11c <_dtoa_r+0xa2c>
    c14c:	ee041a10 	vmov	s8, r1
    c150:	ed9f6b9e 	vldr	d6, [pc, #632]	; c3d0 <_dtoa_r+0xce0>
    c154:	eeb85bc4 	vcvt.f64.s32	d5, s8
    c158:	eeb04b46 	vmov.f64	d4, d6
    c15c:	ee074b05 	vmla.f64	d4, d7, d5
    c160:	ec532b14 	vmov	r2, r3, d4
    c164:	e243350d 	sub	r3, r3, #54525952	; 0x3400000
    c168:	ed9f5b9e 	vldr	d5, [pc, #632]	; c3e8 <_dtoa_r+0xcf8>
    c16c:	ec432b16 	vmov	d6, r2, r3
    c170:	ee377b45 	vsub.f64	d7, d7, d5
    c174:	eeb47bc6 	vcmpe.f64	d7, d6
    c178:	eef1fa10 	vmrs	APSR_nzcv, fpscr
    c17c:	ca000062 	bgt	c30c <_dtoa_r+0xc1c>
    c180:	eeb16b46 	vneg.f64	d6, d6
    c184:	eeb47bc6 	vcmpe.f64	d7, d6
    c188:	eef1fa10 	vmrs	APSR_nzcv, fpscr
    c18c:	5a000045 	bpl	c2a8 <_dtoa_r+0xbb8>
    c190:	e3a06000 	mov	r6, #0
    c194:	e58d6010 	str	r6, [sp, #16]
    c198:	e1e05005 	mvn	r5, r5
    c19c:	e58d5008 	str	r5, [sp, #8]
    c1a0:	e3a0a000 	mov	sl, #0
    c1a4:	e59d5014 	ldr	r5, [sp, #20]
    c1a8:	eafffefa 	b	bd98 <_dtoa_r+0x6a8>
    c1ac:	e59dc020 	ldr	ip, [sp, #32]
    c1b0:	e35c0000 	cmp	ip, #0
    c1b4:	1a0000e3 	bne	c548 <_dtoa_r+0xe58>
    c1b8:	e28da010 	add	sl, sp, #16
    c1bc:	e3a05000 	mov	r5, #0
    c1c0:	e59d9018 	ldr	r9, [sp, #24]
    c1c4:	e89a0c00 	ldm	sl, {sl, fp}
    c1c8:	ea000005 	b	c1e4 <_dtoa_r+0xaf4>
    c1cc:	e1a01008 	mov	r1, r8
    c1d0:	e1a00004 	mov	r0, r4
    c1d4:	e3a0200a 	mov	r2, #10
    c1d8:	e3a03000 	mov	r3, #0
    c1dc:	eb000992 	bl	e82c <__multadd>
    c1e0:	e1a08000 	mov	r8, r0
    c1e4:	e1a00008 	mov	r0, r8
    c1e8:	e1a0100a 	mov	r1, sl
    c1ec:	ebfffcc6 	bl	b50c <quorem>
    c1f0:	e2800030 	add	r0, r0, #48	; 0x30
    c1f4:	e7cb0005 	strb	r0, [fp, r5]
    c1f8:	e2855001 	add	r5, r5, #1
    c1fc:	e1550009 	cmp	r5, r9
    c200:	bafffff1 	blt	c1cc <_dtoa_r+0xadc>
    c204:	e28db014 	add	fp, sp, #20
    c208:	e89b1800 	ldm	fp, {fp, ip}
    c20c:	e1a07000 	mov	r7, r0
    c210:	e35c0001 	cmp	ip, #1
    c214:	a08bb00c 	addge	fp, fp, ip
    c218:	b28bb001 	addlt	fp, fp, #1
    c21c:	e3a0a000 	mov	sl, #0
    c220:	e1a01008 	mov	r1, r8
    c224:	e3a02001 	mov	r2, #1
    c228:	e1a00004 	mov	r0, r4
    c22c:	eb000aef 	bl	edf0 <__lshift>
    c230:	e59d1010 	ldr	r1, [sp, #16]
    c234:	e1a08000 	mov	r8, r0
    c238:	eb000b2f 	bl	eefc <__mcmp>
    c23c:	e3500000 	cmp	r0, #0
    c240:	da0001a1 	ble	c8cc <_dtoa_r+0x11dc>
    c244:	e59dc014 	ldr	ip, [sp, #20]
    c248:	e28cc001 	add	ip, ip, #1
    c24c:	e55b3001 	ldrb	r3, [fp, #-1]
    c250:	e58dc028 	str	ip, [sp, #40]	; 0x28
    c254:	e1a0900b 	mov	r9, fp
    c258:	e59d1028 	ldr	r1, [sp, #40]	; 0x28
    c25c:	ea000003 	b	c270 <_dtoa_r+0xb80>
    c260:	e1590001 	cmp	r9, r1
    c264:	0a000162 	beq	c7f4 <_dtoa_r+0x1104>
    c268:	e5593002 	ldrb	r3, [r9, #-2]
    c26c:	e1a09002 	mov	r9, r2
    c270:	e3530039 	cmp	r3, #57	; 0x39
    c274:	e2492001 	sub	r2, r9, #1
    c278:	0afffff8 	beq	c260 <_dtoa_r+0xb70>
    c27c:	e2833001 	add	r3, r3, #1
    c280:	e59d5014 	ldr	r5, [sp, #20]
    c284:	e5c23000 	strb	r3, [r2]
    c288:	e58d9014 	str	r9, [sp, #20]
    c28c:	eafffec1 	b	bd98 <_dtoa_r+0x6a8>
    c290:	e3a0301c 	mov	r3, #28
    c294:	eafffe86 	b	bcb4 <_dtoa_r+0x5c4>
    c298:	e1a0100a 	mov	r1, sl
    c29c:	e1a00004 	mov	r0, r4
    c2a0:	eb00095a 	bl	e810 <_Bfree>
    c2a4:	eafffec3 	b	bdb8 <_dtoa_r+0x6c8>
    c2a8:	ec5bab13 	vmov	sl, fp, d3
    c2ac:	eafffdd1 	b	b9f8 <_dtoa_r+0x308>
    c2b0:	e59dc008 	ldr	ip, [sp, #8]
    c2b4:	e26c3000 	rsb	r3, ip, #0
    c2b8:	e3530000 	cmp	r3, #0
    c2bc:	0eb07b43 	vmoveq.f64	d7, d3
    c2c0:	03a01002 	moveq	r1, #2
    c2c4:	0affff46 	beq	bfe4 <_dtoa_r+0x8f4>
    c2c8:	e59f2120 	ldr	r2, [pc, #288]	; c3f0 <_dtoa_r+0xd00>
    c2cc:	e203100f 	and	r1, r3, #15
    c2d0:	e0822181 	add	r2, r2, r1, lsl #3
    c2d4:	ed927b00 	vldr	d7, [r2]
    c2d8:	e1b03243 	asrs	r3, r3, #4
    c2dc:	ee237b07 	vmul.f64	d7, d3, d7
    c2e0:	0a0001cb 	beq	ca14 <_dtoa_r+0x1324>
    c2e4:	e59f2108 	ldr	r2, [pc, #264]	; c3f4 <_dtoa_r+0xd04>
    c2e8:	e3a01002 	mov	r1, #2
    c2ec:	e3130001 	tst	r3, #1
    c2f0:	1d926b00 	vldrne	d6, [r2]
    c2f4:	12811001 	addne	r1, r1, #1
    c2f8:	1e277b06 	vmulne.f64	d7, d7, d6
    c2fc:	e1b030c3 	asrs	r3, r3, #1
    c300:	e2822008 	add	r2, r2, #8
    c304:	1afffff8 	bne	c2ec <_dtoa_r+0xbfc>
    c308:	eaffff35 	b	bfe4 <_dtoa_r+0x8f4>
    c30c:	e3a0c000 	mov	ip, #0
    c310:	e58dc010 	str	ip, [sp, #16]
    c314:	e1a0600c 	mov	r6, ip
    c318:	eafffe94 	b	bd70 <_dtoa_r+0x680>
    c31c:	eefd5bc7 	vcvt.s32.f64	s11, d7
    c320:	ee156a90 	vmov	r6, s11
    c324:	e59fc0c4 	ldr	ip, [pc, #196]	; c3f0 <_dtoa_r+0xd00>
    c328:	e2410001 	sub	r0, r1, #1
    c32c:	e08cc180 	add	ip, ip, r0, lsl #3
    c330:	ed9c4b00 	vldr	d4, [ip]
    c334:	eeb86be5 	vcvt.f64.s32	d6, s11
    c338:	ec432b15 	vmov	d5, r2, r3
    c33c:	e286c030 	add	ip, r6, #48	; 0x30
    c340:	e59d6014 	ldr	r6, [sp, #20]
    c344:	e2866001 	add	r6, r6, #1
    c348:	e58d6028 	str	r6, [sp, #40]	; 0x28
    c34c:	e59d6014 	ldr	r6, [sp, #20]
    c350:	e3510001 	cmp	r1, #1
    c354:	ee244b05 	vmul.f64	d4, d4, d5
    c358:	ee377b46 	vsub.f64	d7, d7, d6
    c35c:	e5c6c000 	strb	ip, [r6]
    c360:	e59d3028 	ldr	r3, [sp, #40]	; 0x28
    c364:	0a00000f 	beq	c3a8 <_dtoa_r+0xcb8>
    c368:	ed9f5b1c 	vldr	d5, [pc, #112]	; c3e0 <_dtoa_r+0xcf0>
    c36c:	e59dc014 	ldr	ip, [sp, #20]
    c370:	e24c3001 	sub	r3, ip, #1
    c374:	e0831001 	add	r1, r3, r1
    c378:	e1a0300c 	mov	r3, ip
    c37c:	ee277b05 	vmul.f64	d7, d7, d5
    c380:	eefd2bc7 	vcvt.s32.f64	s5, d7
    c384:	ee126a90 	vmov	r6, s5
    c388:	eeb86be2 	vcvt.f64.s32	d6, s5
    c38c:	e2862030 	add	r2, r6, #48	; 0x30
    c390:	e5e32001 	strb	r2, [r3, #1]!
    c394:	e1530001 	cmp	r3, r1
    c398:	ee377b46 	vsub.f64	d7, d7, d6
    c39c:	1afffff6 	bne	c37c <_dtoa_r+0xc8c>
    c3a0:	e59dc028 	ldr	ip, [sp, #40]	; 0x28
    c3a4:	e08c3000 	add	r3, ip, r0
    c3a8:	ed9f6b0a 	vldr	d6, [pc, #40]	; c3d8 <_dtoa_r+0xce8>
    c3ac:	ee345b06 	vadd.f64	d5, d4, d6
    c3b0:	eeb45bc7 	vcmpe.f64	d5, d7
    c3b4:	eef1fa10 	vmrs	APSR_nzcv, fpscr
    c3b8:	5a0000fb 	bpl	c7ac <_dtoa_r+0x10bc>
    c3bc:	e59d5014 	ldr	r5, [sp, #20]
    c3c0:	e5532001 	ldrb	r2, [r3, #-1]
    c3c4:	eafffdca 	b	baf4 <_dtoa_r+0x404>
    c3c8:	00000000 	.word	0x00000000
    c3cc:	3ff00000 	.word	0x3ff00000
    c3d0:	00000000 	.word	0x00000000
    c3d4:	401c0000 	.word	0x401c0000
    c3d8:	00000000 	.word	0x00000000
    c3dc:	3fe00000 	.word	0x3fe00000
    c3e0:	00000000 	.word	0x00000000
    c3e4:	40240000 	.word	0x40240000
    c3e8:	00000000 	.word	0x00000000
    c3ec:	40140000 	.word	0x40140000
    c3f0:	000128a8 	.word	0x000128a8
    c3f4:	00012970 	.word	0x00012970
    c3f8:	e1a00008 	mov	r0, r8
    c3fc:	e59d1010 	ldr	r1, [sp, #16]
    c400:	eb000abd 	bl	eefc <__mcmp>
    c404:	e3500000 	cmp	r0, #0
    c408:	aafffe42 	bge	bd18 <_dtoa_r+0x628>
    c40c:	e1a01008 	mov	r1, r8
    c410:	e1a00004 	mov	r0, r4
    c414:	e3a0200a 	mov	r2, #10
    c418:	e3a03000 	mov	r3, #0
    c41c:	eb000902 	bl	e82c <__multadd>
    c420:	e59dc020 	ldr	ip, [sp, #32]
    c424:	e35c0000 	cmp	ip, #0
    c428:	e59dc008 	ldr	ip, [sp, #8]
    c42c:	e24cc001 	sub	ip, ip, #1
    c430:	e1a08000 	mov	r8, r0
    c434:	e58dc008 	str	ip, [sp, #8]
    c438:	1a000033 	bne	c50c <_dtoa_r+0xe1c>
    c43c:	e59dc024 	ldr	ip, [sp, #36]	; 0x24
    c440:	e35c0000 	cmp	ip, #0
    c444:	c3a03000 	movgt	r3, #0
    c448:	d3a03001 	movle	r3, #1
    c44c:	e3590002 	cmp	r9, #2
    c450:	d3a03000 	movle	r3, #0
    c454:	e3530000 	cmp	r3, #0
    c458:	058dc018 	streq	ip, [sp, #24]
    c45c:	0affff55 	beq	c1b8 <_dtoa_r+0xac8>
    c460:	e59dc024 	ldr	ip, [sp, #36]	; 0x24
    c464:	e58dc018 	str	ip, [sp, #24]
    c468:	eafffe32 	b	bd38 <_dtoa_r+0x648>
    c46c:	e59dc010 	ldr	ip, [sp, #16]
    c470:	e59c3010 	ldr	r3, [ip, #16]
    c474:	e08c3103 	add	r3, ip, r3, lsl #2
    c478:	e5930010 	ldr	r0, [r3, #16]
    c47c:	eb00095b 	bl	e9f0 <__hi0bits>
    c480:	e2600020 	rsb	r0, r0, #32
    c484:	eafffe03 	b	bc98 <_dtoa_r+0x5a8>
    c488:	e59d6018 	ldr	r6, [sp, #24]
    c48c:	e3560000 	cmp	r6, #0
    c490:	1a000119 	bne	c8fc <_dtoa_r+0x120c>
    c494:	ed9f7be9 	vldr	d7, [pc, #932]	; c840 <_dtoa_r+0x1150>
    c498:	ec4bab14 	vmov	d4, sl, fp
    c49c:	ee266b07 	vmul.f64	d6, d6, d7
    c4a0:	eeb46bc4 	vcmpe.f64	d6, d4
    c4a4:	eef1fa10 	vmrs	APSR_nzcv, fpscr
    c4a8:	b58d6010 	strlt	r6, [sp, #16]
    c4ac:	bafffe2f 	blt	bd70 <_dtoa_r+0x680>
    c4b0:	e59d6018 	ldr	r6, [sp, #24]
    c4b4:	e58d6010 	str	r6, [sp, #16]
    c4b8:	eaffff36 	b	c198 <_dtoa_r+0xaa8>
    c4bc:	e35a0000 	cmp	sl, #0
    c4c0:	1afffdee 	bne	bc80 <_dtoa_r+0x590>
    c4c4:	e3cb34ff 	bic	r3, fp, #-16777216	; 0xff000000
    c4c8:	e3c3360f 	bic	r3, r3, #15728640	; 0xf00000
    c4cc:	e3530000 	cmp	r3, #0
    c4d0:	158da034 	strne	sl, [sp, #52]	; 0x34
    c4d4:	1afffdeb 	bne	bc88 <_dtoa_r+0x598>
    c4d8:	e3cb3102 	bic	r3, fp, #-2147483648	; 0x80000000
    c4dc:	e1a03a23 	lsr	r3, r3, #20
    c4e0:	e1a03a03 	lsl	r3, r3, #20
    c4e4:	e3530000 	cmp	r3, #0
    c4e8:	058d3034 	streq	r3, [sp, #52]	; 0x34
    c4ec:	0afffde5 	beq	bc88 <_dtoa_r+0x598>
    c4f0:	e59d301c 	ldr	r3, [sp, #28]
    c4f4:	e3a0c001 	mov	ip, #1
    c4f8:	e2833001 	add	r3, r3, #1
    c4fc:	e58d301c 	str	r3, [sp, #28]
    c500:	e2877001 	add	r7, r7, #1
    c504:	e58dc034 	str	ip, [sp, #52]	; 0x34
    c508:	eafffdde 	b	bc88 <_dtoa_r+0x598>
    c50c:	e3a03000 	mov	r3, #0
    c510:	e1a01006 	mov	r1, r6
    c514:	e1a00004 	mov	r0, r4
    c518:	e3a0200a 	mov	r2, #10
    c51c:	eb0008c2 	bl	e82c <__multadd>
    c520:	e59dc024 	ldr	ip, [sp, #36]	; 0x24
    c524:	e35c0000 	cmp	ip, #0
    c528:	c3a03000 	movgt	r3, #0
    c52c:	d3a03001 	movle	r3, #1
    c530:	e3590002 	cmp	r9, #2
    c534:	d3a03000 	movle	r3, #0
    c538:	e3530000 	cmp	r3, #0
    c53c:	e1a06000 	mov	r6, r0
    c540:	058dc018 	streq	ip, [sp, #24]
    c544:	1affffc5 	bne	c460 <_dtoa_r+0xd70>
    c548:	e59dc028 	ldr	ip, [sp, #40]	; 0x28
    c54c:	e35c0000 	cmp	ip, #0
    c550:	da000004 	ble	c568 <_dtoa_r+0xe78>
    c554:	e1a01006 	mov	r1, r6
    c558:	e1a0200c 	mov	r2, ip
    c55c:	e1a00004 	mov	r0, r4
    c560:	eb000a22 	bl	edf0 <__lshift>
    c564:	e1a06000 	mov	r6, r0
    c568:	e59dc034 	ldr	ip, [sp, #52]	; 0x34
    c56c:	e35c0000 	cmp	ip, #0
    c570:	01a0c006 	moveq	ip, r6
    c574:	1a0000ee 	bne	c934 <_dtoa_r+0x1244>
    c578:	e28d1014 	add	r1, sp, #20
    c57c:	e59d0014 	ldr	r0, [sp, #20]
    c580:	e8910006 	ldm	r1, {r1, r2}
    c584:	e2800001 	add	r0, r0, #1
    c588:	e0811002 	add	r1, r1, r2
    c58c:	e20a3001 	and	r3, sl, #1
    c590:	e1a07009 	mov	r7, r9
    c594:	e58d0028 	str	r0, [sp, #40]	; 0x28
    c598:	e58d102c 	str	r1, [sp, #44]	; 0x2c
    c59c:	e58d3024 	str	r3, [sp, #36]	; 0x24
    c5a0:	e1a05000 	mov	r5, r0
    c5a4:	e1a0900c 	mov	r9, ip
    c5a8:	ea000008 	b	c5d0 <_dtoa_r+0xee0>
    c5ac:	eb00089e 	bl	e82c <__multadd>
    c5b0:	e1a01009 	mov	r1, r9
    c5b4:	e1a06000 	mov	r6, r0
    c5b8:	e3a0200a 	mov	r2, #10
    c5bc:	e1a00004 	mov	r0, r4
    c5c0:	e3a03000 	mov	r3, #0
    c5c4:	eb000898 	bl	e82c <__multadd>
    c5c8:	e1a09000 	mov	r9, r0
    c5cc:	e2855001 	add	r5, r5, #1
    c5d0:	e59d1010 	ldr	r1, [sp, #16]
    c5d4:	e1a00008 	mov	r0, r8
    c5d8:	ebfffbcb 	bl	b50c <quorem>
    c5dc:	e1a01006 	mov	r1, r6
    c5e0:	e58d0018 	str	r0, [sp, #24]
    c5e4:	e1a00008 	mov	r0, r8
    c5e8:	eb000a43 	bl	eefc <__mcmp>
    c5ec:	e1a02009 	mov	r2, r9
    c5f0:	e1a0a000 	mov	sl, r0
    c5f4:	e59d1010 	ldr	r1, [sp, #16]
    c5f8:	e1a00004 	mov	r0, r4
    c5fc:	eb000a56 	bl	ef5c <__mdiff>
    c600:	e59dc018 	ldr	ip, [sp, #24]
    c604:	e590200c 	ldr	r2, [r0, #12]
    c608:	e28cc030 	add	ip, ip, #48	; 0x30
    c60c:	e58dc01c 	str	ip, [sp, #28]
    c610:	e3520000 	cmp	r2, #0
    c614:	e245c001 	sub	ip, r5, #1
    c618:	e1a03000 	mov	r3, r0
    c61c:	e58dc020 	str	ip, [sp, #32]
    c620:	1a00002c 	bne	c6d8 <_dtoa_r+0xfe8>
    c624:	e1a01003 	mov	r1, r3
    c628:	e1a00008 	mov	r0, r8
    c62c:	e58d3000 	str	r3, [sp]
    c630:	eb000a31 	bl	eefc <__mcmp>
    c634:	e59d3000 	ldr	r3, [sp]
    c638:	e1a0b000 	mov	fp, r0
    c63c:	e1a00004 	mov	r0, r4
    c640:	e1a01003 	mov	r1, r3
    c644:	eb000871 	bl	e810 <_Bfree>
    c648:	e19b0007 	orrs	r0, fp, r7
    c64c:	1a000002 	bne	c65c <_dtoa_r+0xf6c>
    c650:	e59dc024 	ldr	ip, [sp, #36]	; 0x24
    c654:	e35c0000 	cmp	ip, #0
    c658:	0a0000de 	beq	c9d8 <_dtoa_r+0x12e8>
    c65c:	e35a0000 	cmp	sl, #0
    c660:	ba00007c 	blt	c858 <_dtoa_r+0x1168>
    c664:	e19aa007 	orrs	sl, sl, r7
    c668:	1a000002 	bne	c678 <_dtoa_r+0xf88>
    c66c:	e59dc024 	ldr	ip, [sp, #36]	; 0x24
    c670:	e35c0000 	cmp	ip, #0
    c674:	0a000077 	beq	c858 <_dtoa_r+0x1168>
    c678:	e35b0000 	cmp	fp, #0
    c67c:	ca0000bc 	bgt	c974 <_dtoa_r+0x1284>
    c680:	e59dc02c 	ldr	ip, [sp, #44]	; 0x2c
    c684:	e59d201c 	ldr	r2, [sp, #28]
    c688:	e155000c 	cmp	r5, ip
    c68c:	e5452001 	strb	r2, [r5, #-1]
    c690:	e1a0b005 	mov	fp, r5
    c694:	0a0000c3 	beq	c9a8 <_dtoa_r+0x12b8>
    c698:	e1a01008 	mov	r1, r8
    c69c:	e3a0200a 	mov	r2, #10
    c6a0:	e3a03000 	mov	r3, #0
    c6a4:	e1a00004 	mov	r0, r4
    c6a8:	eb00085f 	bl	e82c <__multadd>
    c6ac:	e1560009 	cmp	r6, r9
    c6b0:	e1a08000 	mov	r8, r0
    c6b4:	e1a01006 	mov	r1, r6
    c6b8:	e1a00004 	mov	r0, r4
    c6bc:	e3a0200a 	mov	r2, #10
    c6c0:	e3a03000 	mov	r3, #0
    c6c4:	1affffb8 	bne	c5ac <_dtoa_r+0xebc>
    c6c8:	eb000857 	bl	e82c <__multadd>
    c6cc:	e1a06000 	mov	r6, r0
    c6d0:	e1a09000 	mov	r9, r0
    c6d4:	eaffffbc 	b	c5cc <_dtoa_r+0xedc>
    c6d8:	e3a0b001 	mov	fp, #1
    c6dc:	eaffffd6 	b	c63c <_dtoa_r+0xf4c>
    c6e0:	e3a0c001 	mov	ip, #1
    c6e4:	e58dc020 	str	ip, [sp, #32]
    c6e8:	eafffe03 	b	befc <_dtoa_r+0x80c>
    c6ec:	e35c000e 	cmp	ip, #14
    c6f0:	83a03000 	movhi	r3, #0
    c6f4:	93a03001 	movls	r3, #1
    c6f8:	e3a01000 	mov	r1, #0
    c6fc:	e0036006 	and	r6, r3, r6
    c700:	e5841044 	str	r1, [r4, #68]	; 0x44
    c704:	eafffe14 	b	bf5c <_dtoa_r+0x86c>
    c708:	e3a03001 	mov	r3, #1
    c70c:	e58d3024 	str	r3, [sp, #36]	; 0x24
    c710:	e58d3018 	str	r3, [sp, #24]
    c714:	e1a05003 	mov	r5, r3
    c718:	eafffff6 	b	c6f8 <_dtoa_r+0x1008>
    c71c:	e1a01008 	mov	r1, r8
    c720:	e59d2010 	ldr	r2, [sp, #16]
    c724:	e1a00004 	mov	r0, r4
    c728:	eb00096f 	bl	ecec <__pow5mult>
    c72c:	e1a08000 	mov	r8, r0
    c730:	eafffd44 	b	bc48 <_dtoa_r+0x558>
    c734:	e59d6018 	ldr	r6, [sp, #24]
    c738:	e3560000 	cmp	r6, #0
    c73c:	0afffe82 	beq	c14c <_dtoa_r+0xa5c>
    c740:	e59dc024 	ldr	ip, [sp, #36]	; 0x24
    c744:	e35c0000 	cmp	ip, #0
    c748:	dafffed6 	ble	c2a8 <_dtoa_r+0xbb8>
    c74c:	ed9f6b3d 	vldr	d6, [pc, #244]	; c848 <_dtoa_r+0x1158>
    c750:	e2811001 	add	r1, r1, #1
    c754:	ee041a10 	vmov	s8, r1
    c758:	ee277b06 	vmul.f64	d7, d7, d6
    c75c:	ed9f6b3b 	vldr	d6, [pc, #236]	; c850 <_dtoa_r+0x1160>
    c760:	eeb85bc4 	vcvt.f64.s32	d5, s8
    c764:	eeb04b46 	vmov.f64	d4, d6
    c768:	ee074b05 	vmla.f64	d4, d7, d5
    c76c:	ec532b14 	vmov	r2, r3, d4
    c770:	e59d6008 	ldr	r6, [sp, #8]
    c774:	e243350d 	sub	r3, r3, #54525952	; 0x3400000
    c778:	e246e001 	sub	lr, r6, #1
    c77c:	e1a0100c 	mov	r1, ip
    c780:	eafffe2a 	b	c030 <_dtoa_r+0x940>
    c784:	e59d5014 	ldr	r5, [sp, #20]
    c788:	e58d3014 	str	r3, [sp, #20]
    c78c:	eafffd8c 	b	bdc4 <_dtoa_r+0x6d4>
    c790:	e3a03030 	mov	r3, #48	; 0x30
    c794:	e28ee001 	add	lr, lr, #1
    c798:	e5c13000 	strb	r3, [r1]
    c79c:	e58d0014 	str	r0, [sp, #20]
    c7a0:	e58de008 	str	lr, [sp, #8]
    c7a4:	e3a03031 	mov	r3, #49	; 0x31
    c7a8:	eafffcdf 	b	bb2c <_dtoa_r+0x43c>
    c7ac:	ee366b44 	vsub.f64	d6, d6, d4
    c7b0:	eeb46bc7 	vcmpe.f64	d6, d7
    c7b4:	eef1fa10 	vmrs	APSR_nzcv, fpscr
    c7b8:	dafffeba 	ble	c2a8 <_dtoa_r+0xbb8>
    c7bc:	e5531001 	ldrb	r1, [r3, #-1]
    c7c0:	e3510030 	cmp	r1, #48	; 0x30
    c7c4:	e1a02003 	mov	r2, r3
    c7c8:	e2433001 	sub	r3, r3, #1
    c7cc:	0afffffa 	beq	c7bc <_dtoa_r+0x10cc>
    c7d0:	e59d5014 	ldr	r5, [sp, #20]
    c7d4:	e58de008 	str	lr, [sp, #8]
    c7d8:	e58d2014 	str	r2, [sp, #20]
    c7dc:	eafffd78 	b	bdc4 <_dtoa_r+0x6d4>
    c7e0:	e1a01008 	mov	r1, r8
    c7e4:	e1a00004 	mov	r0, r4
    c7e8:	eb00093f 	bl	ecec <__pow5mult>
    c7ec:	e1a08000 	mov	r8, r0
    c7f0:	eafffd14 	b	bc48 <_dtoa_r+0x558>
    c7f4:	e59dc008 	ldr	ip, [sp, #8]
    c7f8:	e3a03031 	mov	r3, #49	; 0x31
    c7fc:	e28cc001 	add	ip, ip, #1
    c800:	e59d5014 	ldr	r5, [sp, #20]
    c804:	e58dc008 	str	ip, [sp, #8]
    c808:	e58d9014 	str	r9, [sp, #20]
    c80c:	e5c23000 	strb	r3, [r2]
    c810:	eafffd60 	b	bd98 <_dtoa_r+0x6a8>
    c814:	e59dc034 	ldr	ip, [sp, #52]	; 0x34
    c818:	e35c0000 	cmp	ip, #0
    c81c:	059d3038 	ldreq	r3, [sp, #56]	; 0x38
    c820:	e59d601c 	ldr	r6, [sp, #28]
    c824:	12833e43 	addne	r3, r3, #1072	; 0x430
    c828:	12833003 	addne	r3, r3, #3
    c82c:	159dc010 	ldrne	ip, [sp, #16]
    c830:	059dc010 	ldreq	ip, [sp, #16]
    c834:	02633036 	rsbeq	r3, r3, #54	; 0x36
    c838:	e58d6028 	str	r6, [sp, #40]	; 0x28
    c83c:	eafffda1 	b	bec8 <_dtoa_r+0x7d8>
    c840:	00000000 	.word	0x00000000
    c844:	40140000 	.word	0x40140000
    c848:	00000000 	.word	0x00000000
    c84c:	40240000 	.word	0x40240000
    c850:	00000000 	.word	0x00000000
    c854:	401c0000 	.word	0x401c0000
    c858:	e35b0000 	cmp	fp, #0
    c85c:	e59d701c 	ldr	r7, [sp, #28]
    c860:	e1a0c009 	mov	ip, r9
    c864:	da00000e 	ble	c8a4 <_dtoa_r+0x11b4>
    c868:	e1a01008 	mov	r1, r8
    c86c:	e3a02001 	mov	r2, #1
    c870:	e1a00004 	mov	r0, r4
    c874:	e58d9004 	str	r9, [sp, #4]
    c878:	eb00095c 	bl	edf0 <__lshift>
    c87c:	e59d1010 	ldr	r1, [sp, #16]
    c880:	e1a08000 	mov	r8, r0
    c884:	eb00099c 	bl	eefc <__mcmp>
    c888:	e3500000 	cmp	r0, #0
    c88c:	e59dc004 	ldr	ip, [sp, #4]
    c890:	da000057 	ble	c9f4 <_dtoa_r+0x1304>
    c894:	e3570039 	cmp	r7, #57	; 0x39
    c898:	0a000046 	beq	c9b8 <_dtoa_r+0x12c8>
    c89c:	e59d3018 	ldr	r3, [sp, #24]
    c8a0:	e2837031 	add	r7, r3, #49	; 0x31
    c8a4:	e1a0a006 	mov	sl, r6
    c8a8:	e59d6020 	ldr	r6, [sp, #32]
    c8ac:	e59d5014 	ldr	r5, [sp, #20]
    c8b0:	e2866001 	add	r6, r6, #1
    c8b4:	e5467001 	strb	r7, [r6, #-1]
    c8b8:	e58d6014 	str	r6, [sp, #20]
    c8bc:	e1a0600c 	mov	r6, ip
    c8c0:	eafffd34 	b	bd98 <_dtoa_r+0x6a8>
    c8c4:	e59d5014 	ldr	r5, [sp, #20]
    c8c8:	eafffc89 	b	baf4 <_dtoa_r+0x404>
    c8cc:	1a000001 	bne	c8d8 <_dtoa_r+0x11e8>
    c8d0:	e3170001 	tst	r7, #1
    c8d4:	1afffe5a 	bne	c244 <_dtoa_r+0xb54>
    c8d8:	e1a0900b 	mov	r9, fp
    c8dc:	e5592001 	ldrb	r2, [r9, #-1]
    c8e0:	e3520030 	cmp	r2, #48	; 0x30
    c8e4:	e1a03009 	mov	r3, r9
    c8e8:	e2499001 	sub	r9, r9, #1
    c8ec:	0afffffa 	beq	c8dc <_dtoa_r+0x11ec>
    c8f0:	e59d5014 	ldr	r5, [sp, #20]
    c8f4:	e58d3014 	str	r3, [sp, #20]
    c8f8:	eafffd26 	b	bd98 <_dtoa_r+0x6a8>
    c8fc:	e3a0c000 	mov	ip, #0
    c900:	e58dc010 	str	ip, [sp, #16]
    c904:	e1a0600c 	mov	r6, ip
    c908:	eafffe22 	b	c198 <_dtoa_r+0xaa8>
    c90c:	eeb46b47 	vcmp.f64	d6, d7
    c910:	eef1fa10 	vmrs	APSR_nzcv, fpscr
    c914:	1affff9a 	bne	c784 <_dtoa_r+0x1094>
    c918:	ee130a90 	vmov	r0, s7
    c91c:	e3100001 	tst	r0, #1
    c920:	e59d5014 	ldr	r5, [sp, #20]
    c924:	0affff97 	beq	c788 <_dtoa_r+0x1098>
    c928:	e59de008 	ldr	lr, [sp, #8]
    c92c:	e5532001 	ldrb	r2, [r3, #-1]
    c930:	eafffc6f 	b	baf4 <_dtoa_r+0x404>
    c934:	e5961004 	ldr	r1, [r6, #4]
    c938:	e1a00004 	mov	r0, r4
    c93c:	eb000790 	bl	e784 <_Balloc>
    c940:	e5962010 	ldr	r2, [r6, #16]
    c944:	e2822002 	add	r2, r2, #2
    c948:	e1a05000 	mov	r5, r0
    c94c:	e1a02102 	lsl	r2, r2, #2
    c950:	e286100c 	add	r1, r6, #12
    c954:	e280000c 	add	r0, r0, #12
    c958:	eb0006c1 	bl	e464 <memcpy>
    c95c:	e1a00004 	mov	r0, r4
    c960:	e1a01005 	mov	r1, r5
    c964:	e3a02001 	mov	r2, #1
    c968:	eb000920 	bl	edf0 <__lshift>
    c96c:	e1a0c000 	mov	ip, r0
    c970:	eaffff00 	b	c578 <_dtoa_r+0xe88>
    c974:	e59d701c 	ldr	r7, [sp, #28]
    c978:	e3570039 	cmp	r7, #57	; 0x39
    c97c:	e1a0c009 	mov	ip, r9
    c980:	0a00000c 	beq	c9b8 <_dtoa_r+0x12c8>
    c984:	e59d3020 	ldr	r3, [sp, #32]
    c988:	e2877001 	add	r7, r7, #1
    c98c:	e1a0a006 	mov	sl, r6
    c990:	e2836001 	add	r6, r3, #1
    c994:	e59d5014 	ldr	r5, [sp, #20]
    c998:	e5c37000 	strb	r7, [r3]
    c99c:	e58d6014 	str	r6, [sp, #20]
    c9a0:	e1a06009 	mov	r6, r9
    c9a4:	eafffcfb 	b	bd98 <_dtoa_r+0x6a8>
    c9a8:	e1a0a006 	mov	sl, r6
    c9ac:	e59d701c 	ldr	r7, [sp, #28]
    c9b0:	e1a06009 	mov	r6, r9
    c9b4:	eafffe19 	b	c220 <_dtoa_r+0xb30>
    c9b8:	e1a0a006 	mov	sl, r6
    c9bc:	e59d6020 	ldr	r6, [sp, #32]
    c9c0:	e3a03039 	mov	r3, #57	; 0x39
    c9c4:	e5c63000 	strb	r3, [r6]
    c9c8:	e1a0600c 	mov	r6, ip
    c9cc:	e59dc020 	ldr	ip, [sp, #32]
    c9d0:	e28cb001 	add	fp, ip, #1
    c9d4:	eafffe1e 	b	c254 <_dtoa_r+0xb64>
    c9d8:	e59d701c 	ldr	r7, [sp, #28]
    c9dc:	e3570039 	cmp	r7, #57	; 0x39
    c9e0:	e1a0c009 	mov	ip, r9
    c9e4:	0afffff3 	beq	c9b8 <_dtoa_r+0x12c8>
    c9e8:	e35a0000 	cmp	sl, #0
    c9ec:	caffffaa 	bgt	c89c <_dtoa_r+0x11ac>
    c9f0:	eaffffab 	b	c8a4 <_dtoa_r+0x11b4>
    c9f4:	1affffaa 	bne	c8a4 <_dtoa_r+0x11b4>
    c9f8:	e3170001 	tst	r7, #1
    c9fc:	0affffa8 	beq	c8a4 <_dtoa_r+0x11b4>
    ca00:	eaffffa3 	b	c894 <_dtoa_r+0x11a4>
    ca04:	e59dc028 	ldr	ip, [sp, #40]	; 0x28
    ca08:	e59d5014 	ldr	r5, [sp, #20]
    ca0c:	e58dc014 	str	ip, [sp, #20]
    ca10:	eafffceb 	b	bdc4 <_dtoa_r+0x6d4>
    ca14:	e3a01002 	mov	r1, #2
    ca18:	eafffd71 	b	bfe4 <_dtoa_r+0x8f4>
    ca1c:	e59d6028 	ldr	r6, [sp, #40]	; 0x28
    ca20:	e59d5014 	ldr	r5, [sp, #20]
    ca24:	e58de008 	str	lr, [sp, #8]
    ca28:	e58d6014 	str	r6, [sp, #20]
    ca2c:	eafffce4 	b	bdc4 <_dtoa_r+0x6d4>
    ca30:	1263303c 	rsbne	r3, r3, #60	; 0x3c
    ca34:	0afffca5 	beq	bcd0 <_dtoa_r+0x5e0>
    ca38:	eafffc9d 	b	bcb4 <_dtoa_r+0x5c4>
    ca3c:	e1a00000 	nop			; (mov r0, r0)

0000ca40 <__sflush_r>:
    ca40:	e92d40f8 	push	{r3, r4, r5, r6, r7, lr}
    ca44:	e1d130bc 	ldrh	r3, [r1, #12]
    ca48:	e3130008 	tst	r3, #8
    ca4c:	e1a05001 	mov	r5, r1
    ca50:	e1a07000 	mov	r7, r0
    ca54:	1a000030 	bne	cb1c <__sflush_r+0xdc>
    ca58:	e5912004 	ldr	r2, [r1, #4]
    ca5c:	e3833b02 	orr	r3, r3, #2048	; 0x800
    ca60:	e3520000 	cmp	r2, #0
    ca64:	e1c130bc 	strh	r3, [r1, #12]
    ca68:	da00004b 	ble	cb9c <__sflush_r+0x15c>
    ca6c:	e595c028 	ldr	ip, [r5, #40]	; 0x28
    ca70:	e35c0000 	cmp	ip, #0
    ca74:	0a00004b 	beq	cba8 <__sflush_r+0x168>
    ca78:	e3a01000 	mov	r1, #0
    ca7c:	e2136a01 	ands	r6, r3, #4096	; 0x1000
    ca80:	e5974000 	ldr	r4, [r7]
    ca84:	e5871000 	str	r1, [r7]
    ca88:	0a000049 	beq	cbb4 <__sflush_r+0x174>
    ca8c:	e5952050 	ldr	r2, [r5, #80]	; 0x50
    ca90:	e3130004 	tst	r3, #4
    ca94:	0a000005 	beq	cab0 <__sflush_r+0x70>
    ca98:	e5951030 	ldr	r1, [r5, #48]	; 0x30
    ca9c:	e5953004 	ldr	r3, [r5, #4]
    caa0:	e3510000 	cmp	r1, #0
    caa4:	e0632002 	rsb	r2, r3, r2
    caa8:	1595303c 	ldrne	r3, [r5, #60]	; 0x3c
    caac:	10632002 	rsbne	r2, r3, r2
    cab0:	e1a00007 	mov	r0, r7
    cab4:	e595101c 	ldr	r1, [r5, #28]
    cab8:	e3a03000 	mov	r3, #0
    cabc:	e1a0e00f 	mov	lr, pc
    cac0:	e12fff1c 	bx	ip
    cac4:	e3700001 	cmn	r0, #1
    cac8:	0a000045 	beq	cbe4 <__sflush_r+0x1a4>
    cacc:	e1d530bc 	ldrh	r3, [r5, #12]
    cad0:	e5951010 	ldr	r1, [r5, #16]
    cad4:	e3c33b02 	bic	r3, r3, #2048	; 0x800
    cad8:	e3a02000 	mov	r2, #0
    cadc:	e3130a01 	tst	r3, #4096	; 0x1000
    cae0:	e1c530bc 	strh	r3, [r5, #12]
    cae4:	e8850006 	stm	r5, {r1, r2}
    cae8:	1a000048 	bne	cc10 <__sflush_r+0x1d0>
    caec:	e5951030 	ldr	r1, [r5, #48]	; 0x30
    caf0:	e3510000 	cmp	r1, #0
    caf4:	e5874000 	str	r4, [r7]
    caf8:	0a00002a 	beq	cba8 <__sflush_r+0x168>
    cafc:	e2853040 	add	r3, r5, #64	; 0x40
    cb00:	e1510003 	cmp	r1, r3
    cb04:	11a00007 	movne	r0, r7
    cb08:	1b000196 	blne	d168 <_free_r>
    cb0c:	e3a00000 	mov	r0, #0
    cb10:	e5850030 	str	r0, [r5, #48]	; 0x30
    cb14:	e8bd40f8 	pop	{r3, r4, r5, r6, r7, lr}
    cb18:	e12fff1e 	bx	lr
    cb1c:	e5916010 	ldr	r6, [r1, #16]
    cb20:	e3560000 	cmp	r6, #0
    cb24:	0a00001f 	beq	cba8 <__sflush_r+0x168>
    cb28:	e5914000 	ldr	r4, [r1]
    cb2c:	e3130003 	tst	r3, #3
    cb30:	05913014 	ldreq	r3, [r1, #20]
    cb34:	e0664004 	rsb	r4, r6, r4
    cb38:	13a03000 	movne	r3, #0
    cb3c:	e3540000 	cmp	r4, #0
    cb40:	e5816000 	str	r6, [r1]
    cb44:	e5813008 	str	r3, [r1, #8]
    cb48:	ca000003 	bgt	cb5c <__sflush_r+0x11c>
    cb4c:	ea000015 	b	cba8 <__sflush_r+0x168>
    cb50:	e3540000 	cmp	r4, #0
    cb54:	e0866000 	add	r6, r6, r0
    cb58:	da000012 	ble	cba8 <__sflush_r+0x168>
    cb5c:	e1a03004 	mov	r3, r4
    cb60:	e1a00007 	mov	r0, r7
    cb64:	e595101c 	ldr	r1, [r5, #28]
    cb68:	e1a02006 	mov	r2, r6
    cb6c:	e595c024 	ldr	ip, [r5, #36]	; 0x24
    cb70:	e1a0e00f 	mov	lr, pc
    cb74:	e12fff1c 	bx	ip
    cb78:	e3500000 	cmp	r0, #0
    cb7c:	e0604004 	rsb	r4, r0, r4
    cb80:	cafffff2 	bgt	cb50 <__sflush_r+0x110>
    cb84:	e1d530bc 	ldrh	r3, [r5, #12]
    cb88:	e3833040 	orr	r3, r3, #64	; 0x40
    cb8c:	e1c530bc 	strh	r3, [r5, #12]
    cb90:	e3e00000 	mvn	r0, #0
    cb94:	e8bd40f8 	pop	{r3, r4, r5, r6, r7, lr}
    cb98:	e12fff1e 	bx	lr
    cb9c:	e591203c 	ldr	r2, [r1, #60]	; 0x3c
    cba0:	e3520000 	cmp	r2, #0
    cba4:	caffffb0 	bgt	ca6c <__sflush_r+0x2c>
    cba8:	e3a00000 	mov	r0, #0
    cbac:	e8bd40f8 	pop	{r3, r4, r5, r6, r7, lr}
    cbb0:	e12fff1e 	bx	lr
    cbb4:	e1a02006 	mov	r2, r6
    cbb8:	e1a00007 	mov	r0, r7
    cbbc:	e595101c 	ldr	r1, [r5, #28]
    cbc0:	e3a03001 	mov	r3, #1
    cbc4:	e1a0e00f 	mov	lr, pc
    cbc8:	e12fff1c 	bx	ip
    cbcc:	e3700001 	cmn	r0, #1
    cbd0:	e1a02000 	mov	r2, r0
    cbd4:	0a00001a 	beq	cc44 <__sflush_r+0x204>
    cbd8:	e1d530bc 	ldrh	r3, [r5, #12]
    cbdc:	e595c028 	ldr	ip, [r5, #40]	; 0x28
    cbe0:	eaffffaa 	b	ca90 <__sflush_r+0x50>
    cbe4:	e5973000 	ldr	r3, [r7]
    cbe8:	e3530000 	cmp	r3, #0
    cbec:	1a000009 	bne	cc18 <__sflush_r+0x1d8>
    cbf0:	e1d520bc 	ldrh	r2, [r5, #12]
    cbf4:	e5951010 	ldr	r1, [r5, #16]
    cbf8:	e3c22b02 	bic	r2, r2, #2048	; 0x800
    cbfc:	e3120a01 	tst	r2, #4096	; 0x1000
    cc00:	e5853004 	str	r3, [r5, #4]
    cc04:	e1c520bc 	strh	r2, [r5, #12]
    cc08:	e5851000 	str	r1, [r5]
    cc0c:	0affffb6 	beq	caec <__sflush_r+0xac>
    cc10:	e5850050 	str	r0, [r5, #80]	; 0x50
    cc14:	eaffffb4 	b	caec <__sflush_r+0xac>
    cc18:	e353001d 	cmp	r3, #29
    cc1c:	0a000001 	beq	cc28 <__sflush_r+0x1e8>
    cc20:	e3530016 	cmp	r3, #22
    cc24:	1a000012 	bne	cc74 <__sflush_r+0x234>
    cc28:	e1d510bc 	ldrh	r1, [r5, #12]
    cc2c:	e5952010 	ldr	r2, [r5, #16]
    cc30:	e3c11b02 	bic	r1, r1, #2048	; 0x800
    cc34:	e3a03000 	mov	r3, #0
    cc38:	e1c510bc 	strh	r1, [r5, #12]
    cc3c:	e885000c 	stm	r5, {r2, r3}
    cc40:	eaffffa9 	b	caec <__sflush_r+0xac>
    cc44:	e5973000 	ldr	r3, [r7]
    cc48:	e3530000 	cmp	r3, #0
    cc4c:	0affffe1 	beq	cbd8 <__sflush_r+0x198>
    cc50:	e353001d 	cmp	r3, #29
    cc54:	13530016 	cmpne	r3, #22
    cc58:	11d530bc 	ldrhne	r3, [r5, #12]
    cc5c:	13833040 	orrne	r3, r3, #64	; 0x40
    cc60:	05874000 	streq	r4, [r7]
    cc64:	01a00006 	moveq	r0, r6
    cc68:	11a00002 	movne	r0, r2
    cc6c:	11c530bc 	strhne	r3, [r5, #12]
    cc70:	eaffffc7 	b	cb94 <__sflush_r+0x154>
    cc74:	e1d530bc 	ldrh	r3, [r5, #12]
    cc78:	e3833040 	orr	r3, r3, #64	; 0x40
    cc7c:	e1c530bc 	strh	r3, [r5, #12]
    cc80:	eaffffc3 	b	cb94 <__sflush_r+0x154>

0000cc84 <_fflush_r>:
    cc84:	e92d4010 	push	{r4, lr}
    cc88:	e2504000 	subs	r4, r0, #0
    cc8c:	e24dd008 	sub	sp, sp, #8
    cc90:	0a000002 	beq	cca0 <_fflush_r+0x1c>
    cc94:	e5943038 	ldr	r3, [r4, #56]	; 0x38
    cc98:	e3530000 	cmp	r3, #0
    cc9c:	0a000009 	beq	ccc8 <_fflush_r+0x44>
    cca0:	e1d100fc 	ldrsh	r0, [r1, #12]
    cca4:	e3500000 	cmp	r0, #0
    cca8:	1a000002 	bne	ccb8 <_fflush_r+0x34>
    ccac:	e28dd008 	add	sp, sp, #8
    ccb0:	e8bd4010 	pop	{r4, lr}
    ccb4:	e12fff1e 	bx	lr
    ccb8:	e1a00004 	mov	r0, r4
    ccbc:	e28dd008 	add	sp, sp, #8
    ccc0:	e8bd4010 	pop	{r4, lr}
    ccc4:	eaffff5d 	b	ca40 <__sflush_r>
    ccc8:	e58d1004 	str	r1, [sp, #4]
    cccc:	eb000037 	bl	cdb0 <__sinit>
    ccd0:	e59d1004 	ldr	r1, [sp, #4]
    ccd4:	eafffff1 	b	cca0 <_fflush_r+0x1c>

0000ccd8 <fflush>:
    ccd8:	e2501000 	subs	r1, r0, #0
    ccdc:	e92d4008 	push	{r3, lr}
    cce0:	159f3020 	ldrne	r3, [pc, #32]	; cd08 <fflush+0x30>
    cce4:	15930000 	ldrne	r0, [r3]
    cce8:	18bd4008 	popne	{r3, lr}
    ccec:	1affffe4 	bne	cc84 <_fflush_r>
    ccf0:	e59f3014 	ldr	r3, [pc, #20]	; cd0c <fflush+0x34>
    ccf4:	e59f1014 	ldr	r1, [pc, #20]	; cd10 <fflush+0x38>
    ccf8:	e5930000 	ldr	r0, [r3]
    ccfc:	eb00030c 	bl	d934 <_fwalk_reent>
    cd00:	e8bd4008 	pop	{r3, lr}
    cd04:	e12fff1e 	bx	lr
    cd08:	00012e30 	.word	0x00012e30
    cd0c:	00012894 	.word	0x00012894
    cd10:	0000cc84 	.word	0x0000cc84

0000cd14 <__fp_lock>:
    cd14:	e3a00000 	mov	r0, #0
    cd18:	e12fff1e 	bx	lr

0000cd1c <__fp_unlock>:
    cd1c:	e3a00000 	mov	r0, #0
    cd20:	e12fff1e 	bx	lr

0000cd24 <_cleanup_r>:
    cd24:	e92d4008 	push	{r3, lr}
    cd28:	e59f1008 	ldr	r1, [pc, #8]	; cd38 <_cleanup_r+0x14>
    cd2c:	eb0002df 	bl	d8b0 <_fwalk>
    cd30:	e8bd4008 	pop	{r3, lr}
    cd34:	e12fff1e 	bx	lr
    cd38:	00011484 	.word	0x00011484

0000cd3c <__sfmoreglue>:
    cd3c:	e2413001 	sub	r3, r1, #1
    cd40:	e92d4070 	push	{r4, r5, r6, lr}
    cd44:	e0835083 	add	r5, r3, r3, lsl #1
    cd48:	e0833105 	add	r3, r3, r5, lsl #2
    cd4c:	e1a05183 	lsl	r5, r3, #3
    cd50:	e1a06001 	mov	r6, r1
    cd54:	e2851074 	add	r1, r5, #116	; 0x74
    cd58:	eb0003a9 	bl	dc04 <_malloc_r>
    cd5c:	e2504000 	subs	r4, r0, #0
    cd60:	0a000006 	beq	cd80 <__sfmoreglue+0x44>
    cd64:	e3a01000 	mov	r1, #0
    cd68:	e284000c 	add	r0, r4, #12
    cd6c:	e5846004 	str	r6, [r4, #4]
    cd70:	e2852068 	add	r2, r5, #104	; 0x68
    cd74:	e5841000 	str	r1, [r4]
    cd78:	e5840008 	str	r0, [r4, #8]
    cd7c:	eb000641 	bl	e688 <memset>
    cd80:	e1a00004 	mov	r0, r4
    cd84:	e8bd4070 	pop	{r4, r5, r6, lr}
    cd88:	e12fff1e 	bx	lr

0000cd8c <_cleanup>:
    cd8c:	e92d4008 	push	{r3, lr}
    cd90:	e59f3010 	ldr	r3, [pc, #16]	; cda8 <_cleanup+0x1c>
    cd94:	e59f1010 	ldr	r1, [pc, #16]	; cdac <_cleanup+0x20>
    cd98:	e5930000 	ldr	r0, [r3]
    cd9c:	eb0002c3 	bl	d8b0 <_fwalk>
    cda0:	e8bd4008 	pop	{r3, lr}
    cda4:	e12fff1e 	bx	lr
    cda8:	00012894 	.word	0x00012894
    cdac:	00011484 	.word	0x00011484

0000cdb0 <__sinit>:
    cdb0:	e92d4ff0 	push	{r4, r5, r6, r7, r8, r9, sl, fp, lr}
    cdb4:	e5904038 	ldr	r4, [r0, #56]	; 0x38
    cdb8:	e3540000 	cmp	r4, #0
    cdbc:	e24dd00c 	sub	sp, sp, #12
    cdc0:	e1a07000 	mov	r7, r0
    cdc4:	1a00004b 	bne	cef8 <__sinit+0x148>
    cdc8:	e5975004 	ldr	r5, [r7, #4]
    cdcc:	e59f0130 	ldr	r0, [pc, #304]	; cf04 <__sinit+0x154>
    cdd0:	e3a03004 	mov	r3, #4
    cdd4:	e3a01003 	mov	r1, #3
    cdd8:	e2872fbb 	add	r2, r7, #748	; 0x2ec
    cddc:	e587003c 	str	r0, [r7, #60]	; 0x3c
    cde0:	e58712e4 	str	r1, [r7, #740]	; 0x2e4
    cde4:	e58722e8 	str	r2, [r7, #744]	; 0x2e8
    cde8:	e58742e0 	str	r4, [r7, #736]	; 0x2e0
    cdec:	e285005c 	add	r0, r5, #92	; 0x5c
    cdf0:	e1c530bc 	strh	r3, [r5, #12]
    cdf4:	e5854000 	str	r4, [r5]
    cdf8:	e5854004 	str	r4, [r5, #4]
    cdfc:	e5854008 	str	r4, [r5, #8]
    ce00:	e5854064 	str	r4, [r5, #100]	; 0x64
    ce04:	e1c540be 	strh	r4, [r5, #14]
    ce08:	e5854010 	str	r4, [r5, #16]
    ce0c:	e5854014 	str	r4, [r5, #20]
    ce10:	e5854018 	str	r4, [r5, #24]
    ce14:	e1a01004 	mov	r1, r4
    ce18:	e3a02008 	mov	r2, #8
    ce1c:	eb000619 	bl	e688 <memset>
    ce20:	e59fb0e0 	ldr	fp, [pc, #224]	; cf08 <__sinit+0x158>
    ce24:	e5976008 	ldr	r6, [r7, #8]
    ce28:	e59fa0dc 	ldr	sl, [pc, #220]	; cf0c <__sinit+0x15c>
    ce2c:	e59f90dc 	ldr	r9, [pc, #220]	; cf10 <__sinit+0x160>
    ce30:	e59f80dc 	ldr	r8, [pc, #220]	; cf14 <__sinit+0x164>
    ce34:	e3a03001 	mov	r3, #1
    ce38:	e3a02009 	mov	r2, #9
    ce3c:	e585501c 	str	r5, [r5, #28]
    ce40:	e585b020 	str	fp, [r5, #32]
    ce44:	e585a024 	str	sl, [r5, #36]	; 0x24
    ce48:	e5859028 	str	r9, [r5, #40]	; 0x28
    ce4c:	e585802c 	str	r8, [r5, #44]	; 0x2c
    ce50:	e1a01004 	mov	r1, r4
    ce54:	e1c630be 	strh	r3, [r6, #14]
    ce58:	e1c620bc 	strh	r2, [r6, #12]
    ce5c:	e5864000 	str	r4, [r6]
    ce60:	e5864004 	str	r4, [r6, #4]
    ce64:	e5864008 	str	r4, [r6, #8]
    ce68:	e5864064 	str	r4, [r6, #100]	; 0x64
    ce6c:	e5864010 	str	r4, [r6, #16]
    ce70:	e5864014 	str	r4, [r6, #20]
    ce74:	e5864018 	str	r4, [r6, #24]
    ce78:	e3a02008 	mov	r2, #8
    ce7c:	e286005c 	add	r0, r6, #92	; 0x5c
    ce80:	e58d3004 	str	r3, [sp, #4]
    ce84:	eb0005ff 	bl	e688 <memset>
    ce88:	e597500c 	ldr	r5, [r7, #12]
    ce8c:	e3a00012 	mov	r0, #18
    ce90:	e3a02002 	mov	r2, #2
    ce94:	e586601c 	str	r6, [r6, #28]
    ce98:	e586b020 	str	fp, [r6, #32]
    ce9c:	e586a024 	str	sl, [r6, #36]	; 0x24
    cea0:	e5869028 	str	r9, [r6, #40]	; 0x28
    cea4:	e586802c 	str	r8, [r6, #44]	; 0x2c
    cea8:	e1a01004 	mov	r1, r4
    ceac:	e1c500bc 	strh	r0, [r5, #12]
    ceb0:	e1c520be 	strh	r2, [r5, #14]
    ceb4:	e5854000 	str	r4, [r5]
    ceb8:	e5854004 	str	r4, [r5, #4]
    cebc:	e5854008 	str	r4, [r5, #8]
    cec0:	e5854064 	str	r4, [r5, #100]	; 0x64
    cec4:	e5854010 	str	r4, [r5, #16]
    cec8:	e5854014 	str	r4, [r5, #20]
    cecc:	e5854018 	str	r4, [r5, #24]
    ced0:	e285005c 	add	r0, r5, #92	; 0x5c
    ced4:	e3a02008 	mov	r2, #8
    ced8:	eb0005ea 	bl	e688 <memset>
    cedc:	e59d3004 	ldr	r3, [sp, #4]
    cee0:	e585501c 	str	r5, [r5, #28]
    cee4:	e585b020 	str	fp, [r5, #32]
    cee8:	e585a024 	str	sl, [r5, #36]	; 0x24
    ceec:	e5859028 	str	r9, [r5, #40]	; 0x28
    cef0:	e585802c 	str	r8, [r5, #44]	; 0x2c
    cef4:	e5873038 	str	r3, [r7, #56]	; 0x38
    cef8:	e28dd00c 	add	sp, sp, #12
    cefc:	e8bd4ff0 	pop	{r4, r5, r6, r7, r8, r9, sl, fp, lr}
    cf00:	e12fff1e 	bx	lr
    cf04:	0000cd24 	.word	0x0000cd24
    cf08:	0000fab4 	.word	0x0000fab4
    cf0c:	0000faf0 	.word	0x0000faf0
    cf10:	0000fb48 	.word	0x0000fb48
    cf14:	0000fb78 	.word	0x0000fb78

0000cf18 <__sfp>:
    cf18:	e59f30ec 	ldr	r3, [pc, #236]	; d00c <__sfp+0xf4>
    cf1c:	e92d4070 	push	{r4, r5, r6, lr}
    cf20:	e5935000 	ldr	r5, [r3]
    cf24:	e5953038 	ldr	r3, [r5, #56]	; 0x38
    cf28:	e3530000 	cmp	r3, #0
    cf2c:	e1a06000 	mov	r6, r0
    cf30:	0a00002f 	beq	cff4 <__sfp+0xdc>
    cf34:	e2855e2e 	add	r5, r5, #736	; 0x2e0
    cf38:	e5953004 	ldr	r3, [r5, #4]
    cf3c:	e2533001 	subs	r3, r3, #1
    cf40:	e5954008 	ldr	r4, [r5, #8]
    cf44:	5a000004 	bpl	cf5c <__sfp+0x44>
    cf48:	ea00001d 	b	cfc4 <__sfp+0xac>
    cf4c:	e2433001 	sub	r3, r3, #1
    cf50:	e3730001 	cmn	r3, #1
    cf54:	e2844068 	add	r4, r4, #104	; 0x68
    cf58:	0a000019 	beq	cfc4 <__sfp+0xac>
    cf5c:	e1d420fc 	ldrsh	r2, [r4, #12]
    cf60:	e3520000 	cmp	r2, #0
    cf64:	1afffff8 	bne	cf4c <__sfp+0x34>
    cf68:	e3a05000 	mov	r5, #0
    cf6c:	e3e02000 	mvn	r2, #0
    cf70:	e3a03001 	mov	r3, #1
    cf74:	e1c420be 	strh	r2, [r4, #14]
    cf78:	e1c430bc 	strh	r3, [r4, #12]
    cf7c:	e5845064 	str	r5, [r4, #100]	; 0x64
    cf80:	e5845000 	str	r5, [r4]
    cf84:	e5845008 	str	r5, [r4, #8]
    cf88:	e5845004 	str	r5, [r4, #4]
    cf8c:	e5845010 	str	r5, [r4, #16]
    cf90:	e5845014 	str	r5, [r4, #20]
    cf94:	e5845018 	str	r5, [r4, #24]
    cf98:	e1a01005 	mov	r1, r5
    cf9c:	e284005c 	add	r0, r4, #92	; 0x5c
    cfa0:	e3a02008 	mov	r2, #8
    cfa4:	eb0005b7 	bl	e688 <memset>
    cfa8:	e5845030 	str	r5, [r4, #48]	; 0x30
    cfac:	e5845034 	str	r5, [r4, #52]	; 0x34
    cfb0:	e5845044 	str	r5, [r4, #68]	; 0x44
    cfb4:	e5845048 	str	r5, [r4, #72]	; 0x48
    cfb8:	e1a00004 	mov	r0, r4
    cfbc:	e8bd4070 	pop	{r4, r5, r6, lr}
    cfc0:	e12fff1e 	bx	lr
    cfc4:	e5953000 	ldr	r3, [r5]
    cfc8:	e3530000 	cmp	r3, #0
    cfcc:	11a05003 	movne	r5, r3
    cfd0:	1affffd8 	bne	cf38 <__sfp+0x20>
    cfd4:	e1a00006 	mov	r0, r6
    cfd8:	e3a01004 	mov	r1, #4
    cfdc:	ebffff56 	bl	cd3c <__sfmoreglue>
    cfe0:	e3500000 	cmp	r0, #0
    cfe4:	e5850000 	str	r0, [r5]
    cfe8:	0a000004 	beq	d000 <__sfp+0xe8>
    cfec:	e1a05000 	mov	r5, r0
    cff0:	eaffffd0 	b	cf38 <__sfp+0x20>
    cff4:	e1a00005 	mov	r0, r5
    cff8:	ebffff6c 	bl	cdb0 <__sinit>
    cffc:	eaffffcc 	b	cf34 <__sfp+0x1c>
    d000:	e3a0300c 	mov	r3, #12
    d004:	e5863000 	str	r3, [r6]
    d008:	eaffffeb 	b	cfbc <__sfp+0xa4>
    d00c:	00012894 	.word	0x00012894

0000d010 <__sfp_lock_acquire>:
    d010:	e12fff1e 	bx	lr

0000d014 <__sfp_lock_release>:
    d014:	e12fff1e 	bx	lr

0000d018 <__sinit_lock_acquire>:
    d018:	e12fff1e 	bx	lr

0000d01c <__sinit_lock_release>:
    d01c:	e12fff1e 	bx	lr

0000d020 <__fp_lock_all>:
    d020:	e92d4008 	push	{r3, lr}
    d024:	e59f3010 	ldr	r3, [pc, #16]	; d03c <__fp_lock_all+0x1c>
    d028:	e59f1010 	ldr	r1, [pc, #16]	; d040 <__fp_lock_all+0x20>
    d02c:	e5930000 	ldr	r0, [r3]
    d030:	eb00021e 	bl	d8b0 <_fwalk>
    d034:	e8bd4008 	pop	{r3, lr}
    d038:	e12fff1e 	bx	lr
    d03c:	00012e30 	.word	0x00012e30
    d040:	0000cd14 	.word	0x0000cd14

0000d044 <__fp_unlock_all>:
    d044:	e92d4008 	push	{r3, lr}
    d048:	e59f3010 	ldr	r3, [pc, #16]	; d060 <__fp_unlock_all+0x1c>
    d04c:	e59f1010 	ldr	r1, [pc, #16]	; d064 <__fp_unlock_all+0x20>
    d050:	e5930000 	ldr	r0, [r3]
    d054:	eb000215 	bl	d8b0 <_fwalk>
    d058:	e8bd4008 	pop	{r3, lr}
    d05c:	e12fff1e 	bx	lr
    d060:	00012e30 	.word	0x00012e30
    d064:	0000cd1c 	.word	0x0000cd1c

0000d068 <_malloc_trim_r>:
    d068:	e92d40f8 	push	{r3, r4, r5, r6, r7, lr}
    d06c:	e59f50e8 	ldr	r5, [pc, #232]	; d15c <_malloc_trim_r+0xf4>
    d070:	e1a07001 	mov	r7, r1
    d074:	e1a04000 	mov	r4, r0
    d078:	eb0005bf 	bl	e77c <__malloc_lock>
    d07c:	e5953008 	ldr	r3, [r5, #8]
    d080:	e5936004 	ldr	r6, [r3, #4]
    d084:	e3c66003 	bic	r6, r6, #3
    d088:	e0677006 	rsb	r7, r7, r6
    d08c:	e2877efe 	add	r7, r7, #4064	; 0xfe0
    d090:	e287700f 	add	r7, r7, #15
    d094:	e1a07627 	lsr	r7, r7, #12
    d098:	e2477001 	sub	r7, r7, #1
    d09c:	e1a07607 	lsl	r7, r7, #12
    d0a0:	e3570a01 	cmp	r7, #4096	; 0x1000
    d0a4:	ba000006 	blt	d0c4 <_malloc_trim_r+0x5c>
    d0a8:	e1a00004 	mov	r0, r4
    d0ac:	e3a01000 	mov	r1, #0
    d0b0:	eb000a6e 	bl	fa70 <_sbrk_r>
    d0b4:	e5953008 	ldr	r3, [r5, #8]
    d0b8:	e0833006 	add	r3, r3, r6
    d0bc:	e1500003 	cmp	r0, r3
    d0c0:	0a000004 	beq	d0d8 <_malloc_trim_r+0x70>
    d0c4:	e1a00004 	mov	r0, r4
    d0c8:	eb0005ac 	bl	e780 <__malloc_unlock>
    d0cc:	e3a00000 	mov	r0, #0
    d0d0:	e8bd40f8 	pop	{r3, r4, r5, r6, r7, lr}
    d0d4:	e12fff1e 	bx	lr
    d0d8:	e1a00004 	mov	r0, r4
    d0dc:	e2671000 	rsb	r1, r7, #0
    d0e0:	eb000a62 	bl	fa70 <_sbrk_r>
    d0e4:	e3700001 	cmn	r0, #1
    d0e8:	0a00000c 	beq	d120 <_malloc_trim_r+0xb8>
    d0ec:	e59f306c 	ldr	r3, [pc, #108]	; d160 <_malloc_trim_r+0xf8>
    d0f0:	e5951008 	ldr	r1, [r5, #8]
    d0f4:	e5932000 	ldr	r2, [r3]
    d0f8:	e0676006 	rsb	r6, r7, r6
    d0fc:	e3866001 	orr	r6, r6, #1
    d100:	e1a00004 	mov	r0, r4
    d104:	e0677002 	rsb	r7, r7, r2
    d108:	e5816004 	str	r6, [r1, #4]
    d10c:	e5837000 	str	r7, [r3]
    d110:	eb00059a 	bl	e780 <__malloc_unlock>
    d114:	e3a00001 	mov	r0, #1
    d118:	e8bd40f8 	pop	{r3, r4, r5, r6, r7, lr}
    d11c:	e12fff1e 	bx	lr
    d120:	e1a00004 	mov	r0, r4
    d124:	e3a01000 	mov	r1, #0
    d128:	eb000a50 	bl	fa70 <_sbrk_r>
    d12c:	e5953008 	ldr	r3, [r5, #8]
    d130:	e0632000 	rsb	r2, r3, r0
    d134:	e352000f 	cmp	r2, #15
    d138:	daffffe1 	ble	d0c4 <_malloc_trim_r+0x5c>
    d13c:	e59f1020 	ldr	r1, [pc, #32]	; d164 <_malloc_trim_r+0xfc>
    d140:	e591c000 	ldr	ip, [r1]
    d144:	e59f1014 	ldr	r1, [pc, #20]	; d160 <_malloc_trim_r+0xf8>
    d148:	e3822001 	orr	r2, r2, #1
    d14c:	e06c0000 	rsb	r0, ip, r0
    d150:	e5832004 	str	r2, [r3, #4]
    d154:	e5810000 	str	r0, [r1]
    d158:	eaffffd9 	b	d0c4 <_malloc_trim_r+0x5c>
    d15c:	00012eb0 	.word	0x00012eb0
    d160:	000132e8 	.word	0x000132e8
    d164:	000132bc 	.word	0x000132bc

0000d168 <_free_r>:
    d168:	e92d40f8 	push	{r3, r4, r5, r6, r7, lr}
    d16c:	e2514000 	subs	r4, r1, #0
    d170:	e1a06000 	mov	r6, r0
    d174:	0a000046 	beq	d294 <_free_r+0x12c>
    d178:	eb00057f 	bl	e77c <__malloc_lock>
    d17c:	e514e004 	ldr	lr, [r4, #-4]
    d180:	e59f1238 	ldr	r1, [pc, #568]	; d3c0 <_free_r+0x258>
    d184:	e3ce3001 	bic	r3, lr, #1
    d188:	e244c008 	sub	ip, r4, #8
    d18c:	e08c2003 	add	r2, ip, r3
    d190:	e5910008 	ldr	r0, [r1, #8]
    d194:	e5925004 	ldr	r5, [r2, #4]
    d198:	e1500002 	cmp	r0, r2
    d19c:	e3c55003 	bic	r5, r5, #3
    d1a0:	0a00004a 	beq	d2d0 <_free_r+0x168>
    d1a4:	e21ee001 	ands	lr, lr, #1
    d1a8:	e5825004 	str	r5, [r2, #4]
    d1ac:	13a0e000 	movne	lr, #0
    d1b0:	1a000009 	bne	d1dc <_free_r+0x74>
    d1b4:	e5144008 	ldr	r4, [r4, #-8]
    d1b8:	e064c00c 	rsb	ip, r4, ip
    d1bc:	e59c0008 	ldr	r0, [ip, #8]
    d1c0:	e2817008 	add	r7, r1, #8
    d1c4:	e1500007 	cmp	r0, r7
    d1c8:	e0833004 	add	r3, r3, r4
    d1cc:	159c400c 	ldrne	r4, [ip, #12]
    d1d0:	1580400c 	strne	r4, [r0, #12]
    d1d4:	15840008 	strne	r0, [r4, #8]
    d1d8:	03a0e001 	moveq	lr, #1
    d1dc:	e0820005 	add	r0, r2, r5
    d1e0:	e5900004 	ldr	r0, [r0, #4]
    d1e4:	e3100001 	tst	r0, #1
    d1e8:	1a000009 	bne	d214 <_free_r+0xac>
    d1ec:	e35e0000 	cmp	lr, #0
    d1f0:	e5920008 	ldr	r0, [r2, #8]
    d1f4:	e0833005 	add	r3, r3, r5
    d1f8:	1a000002 	bne	d208 <_free_r+0xa0>
    d1fc:	e59f41c0 	ldr	r4, [pc, #448]	; d3c4 <_free_r+0x25c>
    d200:	e1500004 	cmp	r0, r4
    d204:	0a000047 	beq	d328 <_free_r+0x1c0>
    d208:	e592200c 	ldr	r2, [r2, #12]
    d20c:	e580200c 	str	r2, [r0, #12]
    d210:	e5820008 	str	r0, [r2, #8]
    d214:	e3832001 	orr	r2, r3, #1
    d218:	e35e0000 	cmp	lr, #0
    d21c:	e58c2004 	str	r2, [ip, #4]
    d220:	e78c3003 	str	r3, [ip, r3]
    d224:	1a000018 	bne	d28c <_free_r+0x124>
    d228:	e3530c02 	cmp	r3, #512	; 0x200
    d22c:	3a00001a 	bcc	d29c <_free_r+0x134>
    d230:	e1a024a3 	lsr	r2, r3, #9
    d234:	e3520004 	cmp	r2, #4
    d238:	8a000042 	bhi	d348 <_free_r+0x1e0>
    d23c:	e1a0e323 	lsr	lr, r3, #6
    d240:	e28ee038 	add	lr, lr, #56	; 0x38
    d244:	e1a0008e 	lsl	r0, lr, #1
    d248:	e0810100 	add	r0, r1, r0, lsl #2
    d24c:	e5902008 	ldr	r2, [r0, #8]
    d250:	e1520000 	cmp	r2, r0
    d254:	e59f1164 	ldr	r1, [pc, #356]	; d3c0 <_free_r+0x258>
    d258:	0a000044 	beq	d370 <_free_r+0x208>
    d25c:	e5921004 	ldr	r1, [r2, #4]
    d260:	e3c11003 	bic	r1, r1, #3
    d264:	e1530001 	cmp	r3, r1
    d268:	2a000002 	bcs	d278 <_free_r+0x110>
    d26c:	e5922008 	ldr	r2, [r2, #8]
    d270:	e1500002 	cmp	r0, r2
    d274:	1afffff8 	bne	d25c <_free_r+0xf4>
    d278:	e592300c 	ldr	r3, [r2, #12]
    d27c:	e58c300c 	str	r3, [ip, #12]
    d280:	e58c2008 	str	r2, [ip, #8]
    d284:	e583c008 	str	ip, [r3, #8]
    d288:	e582c00c 	str	ip, [r2, #12]
    d28c:	e1a00006 	mov	r0, r6
    d290:	eb00053a 	bl	e780 <__malloc_unlock>
    d294:	e8bd40f8 	pop	{r3, r4, r5, r6, r7, lr}
    d298:	e12fff1e 	bx	lr
    d29c:	e5912004 	ldr	r2, [r1, #4]
    d2a0:	e1a031a3 	lsr	r3, r3, #3
    d2a4:	e1a00143 	asr	r0, r3, #2
    d2a8:	e3a0e001 	mov	lr, #1
    d2ac:	e182001e 	orr	r0, r2, lr, lsl r0
    d2b0:	e0813183 	add	r3, r1, r3, lsl #3
    d2b4:	e5932008 	ldr	r2, [r3, #8]
    d2b8:	e5810004 	str	r0, [r1, #4]
    d2bc:	e58c2008 	str	r2, [ip, #8]
    d2c0:	e58c300c 	str	r3, [ip, #12]
    d2c4:	e583c008 	str	ip, [r3, #8]
    d2c8:	e582c00c 	str	ip, [r2, #12]
    d2cc:	eaffffee 	b	d28c <_free_r+0x124>
    d2d0:	e31e0001 	tst	lr, #1
    d2d4:	e0853003 	add	r3, r5, r3
    d2d8:	1a000006 	bne	d2f8 <_free_r+0x190>
    d2dc:	e5142008 	ldr	r2, [r4, #-8]
    d2e0:	e062c00c 	rsb	ip, r2, ip
    d2e4:	e59c000c 	ldr	r0, [ip, #12]
    d2e8:	e59ce008 	ldr	lr, [ip, #8]
    d2ec:	e58e000c 	str	r0, [lr, #12]
    d2f0:	e580e008 	str	lr, [r0, #8]
    d2f4:	e0833002 	add	r3, r3, r2
    d2f8:	e59f20c8 	ldr	r2, [pc, #200]	; d3c8 <_free_r+0x260>
    d2fc:	e5920000 	ldr	r0, [r2]
    d300:	e3832001 	orr	r2, r3, #1
    d304:	e1530000 	cmp	r3, r0
    d308:	e58c2004 	str	r2, [ip, #4]
    d30c:	e581c008 	str	ip, [r1, #8]
    d310:	3affffdd 	bcc	d28c <_free_r+0x124>
    d314:	e59f30b0 	ldr	r3, [pc, #176]	; d3cc <_free_r+0x264>
    d318:	e1a00006 	mov	r0, r6
    d31c:	e5931000 	ldr	r1, [r3]
    d320:	ebffff50 	bl	d068 <_malloc_trim_r>
    d324:	eaffffd8 	b	d28c <_free_r+0x124>
    d328:	e3832001 	orr	r2, r3, #1
    d32c:	e581c014 	str	ip, [r1, #20]
    d330:	e581c010 	str	ip, [r1, #16]
    d334:	e58c000c 	str	r0, [ip, #12]
    d338:	e58c0008 	str	r0, [ip, #8]
    d33c:	e58c2004 	str	r2, [ip, #4]
    d340:	e78c3003 	str	r3, [ip, r3]
    d344:	eaffffd0 	b	d28c <_free_r+0x124>
    d348:	e3520014 	cmp	r2, #20
    d34c:	9282e05b 	addls	lr, r2, #91	; 0x5b
    d350:	91a0008e 	lslls	r0, lr, #1
    d354:	9affffbb 	bls	d248 <_free_r+0xe0>
    d358:	e3520054 	cmp	r2, #84	; 0x54
    d35c:	8a00000a 	bhi	d38c <_free_r+0x224>
    d360:	e1a0e623 	lsr	lr, r3, #12
    d364:	e28ee06e 	add	lr, lr, #110	; 0x6e
    d368:	e1a0008e 	lsl	r0, lr, #1
    d36c:	eaffffb5 	b	d248 <_free_r+0xe0>
    d370:	e5913004 	ldr	r3, [r1, #4]
    d374:	e1a0e14e 	asr	lr, lr, #2
    d378:	e3a00001 	mov	r0, #1
    d37c:	e1830e10 	orr	r0, r3, r0, lsl lr
    d380:	e1a03002 	mov	r3, r2
    d384:	e5810004 	str	r0, [r1, #4]
    d388:	eaffffbb 	b	d27c <_free_r+0x114>
    d38c:	e3520f55 	cmp	r2, #340	; 0x154
    d390:	91a0e7a3 	lsrls	lr, r3, #15
    d394:	928ee077 	addls	lr, lr, #119	; 0x77
    d398:	91a0008e 	lslls	r0, lr, #1
    d39c:	9affffa9 	bls	d248 <_free_r+0xe0>
    d3a0:	e59f0028 	ldr	r0, [pc, #40]	; d3d0 <_free_r+0x268>
    d3a4:	e1520000 	cmp	r2, r0
    d3a8:	91a0e923 	lsrls	lr, r3, #18
    d3ac:	928ee07c 	addls	lr, lr, #124	; 0x7c
    d3b0:	91a0008e 	lslls	r0, lr, #1
    d3b4:	83a000fc 	movhi	r0, #252	; 0xfc
    d3b8:	83a0e07e 	movhi	lr, #126	; 0x7e
    d3bc:	eaffffa1 	b	d248 <_free_r+0xe0>
    d3c0:	00012eb0 	.word	0x00012eb0
    d3c4:	00012eb8 	.word	0x00012eb8
    d3c8:	000132b8 	.word	0x000132b8
    d3cc:	000132e4 	.word	0x000132e4
    d3d0:	00000554 	.word	0x00000554

0000d3d4 <__sfvwrite_r>:
    d3d4:	e92d4ff0 	push	{r4, r5, r6, r7, r8, r9, sl, fp, lr}
    d3d8:	e5923008 	ldr	r3, [r2, #8]
    d3dc:	e3530000 	cmp	r3, #0
    d3e0:	e24dd00c 	sub	sp, sp, #12
    d3e4:	e1a06002 	mov	r6, r2
    d3e8:	e1a0b000 	mov	fp, r0
    d3ec:	e1a04001 	mov	r4, r1
    d3f0:	0a000021 	beq	d47c <__sfvwrite_r+0xa8>
    d3f4:	e1d130bc 	ldrh	r3, [r1, #12]
    d3f8:	e1a03803 	lsl	r3, r3, #16
    d3fc:	e3130702 	tst	r3, #524288	; 0x80000
    d400:	e1a08823 	lsr	r8, r3, #16
    d404:	0a000020 	beq	d48c <__sfvwrite_r+0xb8>
    d408:	e5912010 	ldr	r2, [r1, #16]
    d40c:	e3520000 	cmp	r2, #0
    d410:	0a00001d 	beq	d48c <__sfvwrite_r+0xb8>
    d414:	e2189002 	ands	r9, r8, #2
    d418:	e5965000 	ldr	r5, [r6]
    d41c:	0a000025 	beq	d4b8 <__sfvwrite_r+0xe4>
    d420:	e3a08000 	mov	r8, #0
    d424:	e59f9480 	ldr	r9, [pc, #1152]	; d8ac <__sfvwrite_r+0x4d8>
    d428:	e1a07008 	mov	r7, r8
    d42c:	e3570000 	cmp	r7, #0
    d430:	e1a02008 	mov	r2, r8
    d434:	e1a0000b 	mov	r0, fp
    d438:	0a000046 	beq	d558 <__sfvwrite_r+0x184>
    d43c:	e1570009 	cmp	r7, r9
    d440:	31a03007 	movcc	r3, r7
    d444:	21a03009 	movcs	r3, r9
    d448:	e594101c 	ldr	r1, [r4, #28]
    d44c:	e594c024 	ldr	ip, [r4, #36]	; 0x24
    d450:	e1a0e00f 	mov	lr, pc
    d454:	e12fff1c 	bx	ip
    d458:	e3500000 	cmp	r0, #0
    d45c:	da000046 	ble	d57c <__sfvwrite_r+0x1a8>
    d460:	e5963008 	ldr	r3, [r6, #8]
    d464:	e0603003 	rsb	r3, r0, r3
    d468:	e3530000 	cmp	r3, #0
    d46c:	e0888000 	add	r8, r8, r0
    d470:	e0607007 	rsb	r7, r0, r7
    d474:	e5863008 	str	r3, [r6, #8]
    d478:	1affffeb 	bne	d42c <__sfvwrite_r+0x58>
    d47c:	e3a00000 	mov	r0, #0
    d480:	e28dd00c 	add	sp, sp, #12
    d484:	e8bd4ff0 	pop	{r4, r5, r6, r7, r8, r9, sl, fp, lr}
    d488:	e12fff1e 	bx	lr
    d48c:	e1a0000b 	mov	r0, fp
    d490:	e1a01004 	mov	r1, r4
    d494:	ebfff7c5 	bl	b3b0 <__swsetup_r>
    d498:	e3500000 	cmp	r0, #0
    d49c:	1a0000fc 	bne	d894 <__sfvwrite_r+0x4c0>
    d4a0:	e1d430bc 	ldrh	r3, [r4, #12]
    d4a4:	e1a03803 	lsl	r3, r3, #16
    d4a8:	e1a08823 	lsr	r8, r3, #16
    d4ac:	e2189002 	ands	r9, r8, #2
    d4b0:	e5965000 	ldr	r5, [r6]
    d4b4:	1affffd9 	bne	d420 <__sfvwrite_r+0x4c>
    d4b8:	e2188001 	ands	r8, r8, #1
    d4bc:	1a000035 	bne	d598 <__sfvwrite_r+0x1c4>
    d4c0:	e1a07008 	mov	r7, r8
    d4c4:	e3570000 	cmp	r7, #0
    d4c8:	0a00001e 	beq	d548 <__sfvwrite_r+0x174>
    d4cc:	e3130402 	tst	r3, #33554432	; 0x2000000
    d4d0:	e594a008 	ldr	sl, [r4, #8]
    d4d4:	e1a03823 	lsr	r3, r3, #16
    d4d8:	0a00005f 	beq	d65c <__sfvwrite_r+0x288>
    d4dc:	e157000a 	cmp	r7, sl
    d4e0:	3a000087 	bcc	d704 <__sfvwrite_r+0x330>
    d4e4:	e3130d12 	tst	r3, #1152	; 0x480
    d4e8:	1a000094 	bne	d740 <__sfvwrite_r+0x36c>
    d4ec:	e5940000 	ldr	r0, [r4]
    d4f0:	e1a0900a 	mov	r9, sl
    d4f4:	e1a01008 	mov	r1, r8
    d4f8:	e1a02009 	mov	r2, r9
    d4fc:	eb000414 	bl	e554 <memmove>
    d500:	e5942000 	ldr	r2, [r4]
    d504:	e5941008 	ldr	r1, [r4, #8]
    d508:	e0823009 	add	r3, r2, r9
    d50c:	e06aa001 	rsb	sl, sl, r1
    d510:	e584a008 	str	sl, [r4, #8]
    d514:	e5843000 	str	r3, [r4]
    d518:	e1a02007 	mov	r2, r7
    d51c:	e5963008 	ldr	r3, [r6, #8]
    d520:	e0623003 	rsb	r3, r2, r3
    d524:	e3530000 	cmp	r3, #0
    d528:	e0888002 	add	r8, r8, r2
    d52c:	e0627007 	rsb	r7, r2, r7
    d530:	e5863008 	str	r3, [r6, #8]
    d534:	0affffd0 	beq	d47c <__sfvwrite_r+0xa8>
    d538:	e1d430bc 	ldrh	r3, [r4, #12]
    d53c:	e3570000 	cmp	r7, #0
    d540:	e1a03803 	lsl	r3, r3, #16
    d544:	1affffe0 	bne	d4cc <__sfvwrite_r+0xf8>
    d548:	e5958000 	ldr	r8, [r5]
    d54c:	e5957004 	ldr	r7, [r5, #4]
    d550:	e2855008 	add	r5, r5, #8
    d554:	eaffffda 	b	d4c4 <__sfvwrite_r+0xf0>
    d558:	e5958000 	ldr	r8, [r5]
    d55c:	e5957004 	ldr	r7, [r5, #4]
    d560:	e2855008 	add	r5, r5, #8
    d564:	eaffffb0 	b	d42c <__sfvwrite_r+0x58>
    d568:	e1a0000b 	mov	r0, fp
    d56c:	e1a01004 	mov	r1, r4
    d570:	ebfffdc3 	bl	cc84 <_fflush_r>
    d574:	e3500000 	cmp	r0, #0
    d578:	0a00004b 	beq	d6ac <__sfvwrite_r+0x2d8>
    d57c:	e1d430bc 	ldrh	r3, [r4, #12]
    d580:	e3833040 	orr	r3, r3, #64	; 0x40
    d584:	e3e00000 	mvn	r0, #0
    d588:	e1c430bc 	strh	r3, [r4, #12]
    d58c:	e28dd00c 	add	sp, sp, #12
    d590:	e8bd4ff0 	pop	{r4, r5, r6, r7, r8, r9, sl, fp, lr}
    d594:	e12fff1e 	bx	lr
    d598:	e58d9004 	str	r9, [sp, #4]
    d59c:	e1a0a009 	mov	sl, r9
    d5a0:	e1a08009 	mov	r8, r9
    d5a4:	e3580000 	cmp	r8, #0
    d5a8:	0a000025 	beq	d644 <__sfvwrite_r+0x270>
    d5ac:	e59d3004 	ldr	r3, [sp, #4]
    d5b0:	e3530000 	cmp	r3, #0
    d5b4:	0a000056 	beq	d714 <__sfvwrite_r+0x340>
    d5b8:	e5942010 	ldr	r2, [r4, #16]
    d5bc:	e5940000 	ldr	r0, [r4]
    d5c0:	e1590008 	cmp	r9, r8
    d5c4:	31a03009 	movcc	r3, r9
    d5c8:	21a03008 	movcs	r3, r8
    d5cc:	e1500002 	cmp	r0, r2
    d5d0:	e1a07003 	mov	r7, r3
    d5d4:	e5941008 	ldr	r1, [r4, #8]
    d5d8:	e5942014 	ldr	r2, [r4, #20]
    d5dc:	9a000002 	bls	d5ec <__sfvwrite_r+0x218>
    d5e0:	e081c002 	add	ip, r1, r2
    d5e4:	e153000c 	cmp	r3, ip
    d5e8:	ca00008b 	bgt	d81c <__sfvwrite_r+0x448>
    d5ec:	e1530002 	cmp	r3, r2
    d5f0:	ba00002f 	blt	d6b4 <__sfvwrite_r+0x2e0>
    d5f4:	e1a03002 	mov	r3, r2
    d5f8:	e1a0000b 	mov	r0, fp
    d5fc:	e594101c 	ldr	r1, [r4, #28]
    d600:	e1a0200a 	mov	r2, sl
    d604:	e594c024 	ldr	ip, [r4, #36]	; 0x24
    d608:	e1a0e00f 	mov	lr, pc
    d60c:	e12fff1c 	bx	ip
    d610:	e2507000 	subs	r7, r0, #0
    d614:	daffffd8 	ble	d57c <__sfvwrite_r+0x1a8>
    d618:	e0599007 	subs	r9, r9, r7
    d61c:	0a000031 	beq	d6e8 <__sfvwrite_r+0x314>
    d620:	e5963008 	ldr	r3, [r6, #8]
    d624:	e0673003 	rsb	r3, r7, r3
    d628:	e3530000 	cmp	r3, #0
    d62c:	e08aa007 	add	sl, sl, r7
    d630:	e0678008 	rsb	r8, r7, r8
    d634:	e5863008 	str	r3, [r6, #8]
    d638:	0affff8f 	beq	d47c <__sfvwrite_r+0xa8>
    d63c:	e3580000 	cmp	r8, #0
    d640:	1affffd9 	bne	d5ac <__sfvwrite_r+0x1d8>
    d644:	e3a03000 	mov	r3, #0
    d648:	e595a000 	ldr	sl, [r5]
    d64c:	e5958004 	ldr	r8, [r5, #4]
    d650:	e58d3004 	str	r3, [sp, #4]
    d654:	e2855008 	add	r5, r5, #8
    d658:	eaffffd1 	b	d5a4 <__sfvwrite_r+0x1d0>
    d65c:	e5940000 	ldr	r0, [r4]
    d660:	e5943010 	ldr	r3, [r4, #16]
    d664:	e1500003 	cmp	r0, r3
    d668:	8a000002 	bhi	d678 <__sfvwrite_r+0x2a4>
    d66c:	e5949014 	ldr	r9, [r4, #20]
    d670:	e1570009 	cmp	r7, r9
    d674:	2a000058 	bcs	d7dc <__sfvwrite_r+0x408>
    d678:	e157000a 	cmp	r7, sl
    d67c:	31a0a007 	movcc	sl, r7
    d680:	e1a0200a 	mov	r2, sl
    d684:	e1a01008 	mov	r1, r8
    d688:	eb0003b1 	bl	e554 <memmove>
    d68c:	e5943008 	ldr	r3, [r4, #8]
    d690:	e5942000 	ldr	r2, [r4]
    d694:	e06a3003 	rsb	r3, sl, r3
    d698:	e082200a 	add	r2, r2, sl
    d69c:	e3530000 	cmp	r3, #0
    d6a0:	e5843008 	str	r3, [r4, #8]
    d6a4:	e5842000 	str	r2, [r4]
    d6a8:	0affffae 	beq	d568 <__sfvwrite_r+0x194>
    d6ac:	e1a0200a 	mov	r2, sl
    d6b0:	eaffff99 	b	d51c <__sfvwrite_r+0x148>
    d6b4:	e1a02003 	mov	r2, r3
    d6b8:	e1a0100a 	mov	r1, sl
    d6bc:	e58d3000 	str	r3, [sp]
    d6c0:	eb0003a3 	bl	e554 <memmove>
    d6c4:	e59d3000 	ldr	r3, [sp]
    d6c8:	e5942008 	ldr	r2, [r4, #8]
    d6cc:	e5941000 	ldr	r1, [r4]
    d6d0:	e0632002 	rsb	r2, r3, r2
    d6d4:	e0599007 	subs	r9, r9, r7
    d6d8:	e0813003 	add	r3, r1, r3
    d6dc:	e5842008 	str	r2, [r4, #8]
    d6e0:	e5843000 	str	r3, [r4]
    d6e4:	1affffcd 	bne	d620 <__sfvwrite_r+0x24c>
    d6e8:	e1a0000b 	mov	r0, fp
    d6ec:	e1a01004 	mov	r1, r4
    d6f0:	ebfffd63 	bl	cc84 <_fflush_r>
    d6f4:	e3500000 	cmp	r0, #0
    d6f8:	1affff9f 	bne	d57c <__sfvwrite_r+0x1a8>
    d6fc:	e58d9004 	str	r9, [sp, #4]
    d700:	eaffffc6 	b	d620 <__sfvwrite_r+0x24c>
    d704:	e5940000 	ldr	r0, [r4]
    d708:	e1a0a007 	mov	sl, r7
    d70c:	e1a09007 	mov	r9, r7
    d710:	eaffff77 	b	d4f4 <__sfvwrite_r+0x120>
    d714:	e1a0000a 	mov	r0, sl
    d718:	e3a0100a 	mov	r1, #10
    d71c:	e1a02008 	mov	r2, r8
    d720:	eb00030a 	bl	e350 <memchr>
    d724:	e3500000 	cmp	r0, #0
    d728:	12809001 	addne	r9, r0, #1
    d72c:	e3a03001 	mov	r3, #1
    d730:	106a9009 	rsbne	r9, sl, r9
    d734:	02889001 	addeq	r9, r8, #1
    d738:	e58d3004 	str	r3, [sp, #4]
    d73c:	eaffff9d 	b	d5b8 <__sfvwrite_r+0x1e4>
    d740:	e5941010 	ldr	r1, [r4, #16]
    d744:	e594c000 	ldr	ip, [r4]
    d748:	e594a014 	ldr	sl, [r4, #20]
    d74c:	e061c00c 	rsb	ip, r1, ip
    d750:	e08aa08a 	add	sl, sl, sl, lsl #1
    d754:	e28c2001 	add	r2, ip, #1
    d758:	e08aafaa 	add	sl, sl, sl, lsr #31
    d75c:	e0822007 	add	r2, r2, r7
    d760:	e1a0a0ca 	asr	sl, sl, #1
    d764:	e15a0002 	cmp	sl, r2
    d768:	31a0a002 	movcc	sl, r2
    d76c:	21a0200a 	movcs	r2, sl
    d770:	e3130b01 	tst	r3, #1024	; 0x400
    d774:	0a000038 	beq	d85c <__sfvwrite_r+0x488>
    d778:	e1a01002 	mov	r1, r2
    d77c:	e1a0000b 	mov	r0, fp
    d780:	e58dc000 	str	ip, [sp]
    d784:	eb00011e 	bl	dc04 <_malloc_r>
    d788:	e2509000 	subs	r9, r0, #0
    d78c:	e59dc000 	ldr	ip, [sp]
    d790:	0a000041 	beq	d89c <__sfvwrite_r+0x4c8>
    d794:	e1a0200c 	mov	r2, ip
    d798:	e5941010 	ldr	r1, [r4, #16]
    d79c:	e58dc000 	str	ip, [sp]
    d7a0:	eb00032f 	bl	e464 <memcpy>
    d7a4:	e1d420bc 	ldrh	r2, [r4, #12]
    d7a8:	e3c22d12 	bic	r2, r2, #1152	; 0x480
    d7ac:	e3822080 	orr	r2, r2, #128	; 0x80
    d7b0:	e1c420bc 	strh	r2, [r4, #12]
    d7b4:	e59dc000 	ldr	ip, [sp]
    d7b8:	e089000c 	add	r0, r9, ip
    d7bc:	e06cc00a 	rsb	ip, ip, sl
    d7c0:	e5849010 	str	r9, [r4, #16]
    d7c4:	e584a014 	str	sl, [r4, #20]
    d7c8:	e5840000 	str	r0, [r4]
    d7cc:	e584c008 	str	ip, [r4, #8]
    d7d0:	e1a0a007 	mov	sl, r7
    d7d4:	e1a09007 	mov	r9, r7
    d7d8:	eaffff45 	b	d4f4 <__sfvwrite_r+0x120>
    d7dc:	e3e00102 	mvn	r0, #-2147483648	; 0x80000000
    d7e0:	e1570000 	cmp	r7, r0
    d7e4:	31a00007 	movcc	r0, r7
    d7e8:	e1a01009 	mov	r1, r9
    d7ec:	ebffedd5 	bl	8f48 <__aeabi_idiv>
    d7f0:	e594101c 	ldr	r1, [r4, #28]
    d7f4:	e0030990 	mul	r3, r0, r9
    d7f8:	e1a02008 	mov	r2, r8
    d7fc:	e1a0000b 	mov	r0, fp
    d800:	e594c024 	ldr	ip, [r4, #36]	; 0x24
    d804:	e1a0e00f 	mov	lr, pc
    d808:	e12fff1c 	bx	ip
    d80c:	e3500000 	cmp	r0, #0
    d810:	daffff59 	ble	d57c <__sfvwrite_r+0x1a8>
    d814:	e1a02000 	mov	r2, r0
    d818:	eaffff3f 	b	d51c <__sfvwrite_r+0x148>
    d81c:	e1a0200c 	mov	r2, ip
    d820:	e1a0100a 	mov	r1, sl
    d824:	e58dc000 	str	ip, [sp]
    d828:	eb000349 	bl	e554 <memmove>
    d82c:	e59dc000 	ldr	ip, [sp]
    d830:	e5943000 	ldr	r3, [r4]
    d834:	e083300c 	add	r3, r3, ip
    d838:	e5843000 	str	r3, [r4]
    d83c:	e1a0000b 	mov	r0, fp
    d840:	e1a01004 	mov	r1, r4
    d844:	ebfffd0e 	bl	cc84 <_fflush_r>
    d848:	e3500000 	cmp	r0, #0
    d84c:	e59dc000 	ldr	ip, [sp]
    d850:	1affff49 	bne	d57c <__sfvwrite_r+0x1a8>
    d854:	e1a0700c 	mov	r7, ip
    d858:	eaffff6e 	b	d618 <__sfvwrite_r+0x244>
    d85c:	e1a0000b 	mov	r0, fp
    d860:	e58dc000 	str	ip, [sp]
    d864:	eb00070a 	bl	f494 <_realloc_r>
    d868:	e2509000 	subs	r9, r0, #0
    d86c:	e59dc000 	ldr	ip, [sp]
    d870:	1affffd0 	bne	d7b8 <__sfvwrite_r+0x3e4>
    d874:	e1a0000b 	mov	r0, fp
    d878:	e5941010 	ldr	r1, [r4, #16]
    d87c:	ebfffe39 	bl	d168 <_free_r>
    d880:	e1d430bc 	ldrh	r3, [r4, #12]
    d884:	e3a0200c 	mov	r2, #12
    d888:	e3c33080 	bic	r3, r3, #128	; 0x80
    d88c:	e58b2000 	str	r2, [fp]
    d890:	eaffff3a 	b	d580 <__sfvwrite_r+0x1ac>
    d894:	e3e00000 	mvn	r0, #0
    d898:	eafffef8 	b	d480 <__sfvwrite_r+0xac>
    d89c:	e3a0300c 	mov	r3, #12
    d8a0:	e58b3000 	str	r3, [fp]
    d8a4:	e1d430bc 	ldrh	r3, [r4, #12]
    d8a8:	eaffff34 	b	d580 <__sfvwrite_r+0x1ac>
    d8ac:	7ffffc00 	.word	0x7ffffc00

0000d8b0 <_fwalk>:
    d8b0:	e92d41f0 	push	{r4, r5, r6, r7, r8, lr}
    d8b4:	e2907e2e 	adds	r7, r0, #736	; 0x2e0
    d8b8:	e1a08001 	mov	r8, r1
    d8bc:	0a000018 	beq	d924 <_fwalk+0x74>
    d8c0:	e3a06000 	mov	r6, #0
    d8c4:	e5975004 	ldr	r5, [r7, #4]
    d8c8:	e2555001 	subs	r5, r5, #1
    d8cc:	e5974008 	ldr	r4, [r7, #8]
    d8d0:	4a00000d 	bmi	d90c <_fwalk+0x5c>
    d8d4:	e1d430bc 	ldrh	r3, [r4, #12]
    d8d8:	e3530001 	cmp	r3, #1
    d8dc:	e2455001 	sub	r5, r5, #1
    d8e0:	9a000006 	bls	d900 <_fwalk+0x50>
    d8e4:	e1d430fe 	ldrsh	r3, [r4, #14]
    d8e8:	e3730001 	cmn	r3, #1
    d8ec:	e1a00004 	mov	r0, r4
    d8f0:	0a000002 	beq	d900 <_fwalk+0x50>
    d8f4:	e1a0e00f 	mov	lr, pc
    d8f8:	e12fff18 	bx	r8
    d8fc:	e1866000 	orr	r6, r6, r0
    d900:	e3750001 	cmn	r5, #1
    d904:	e2844068 	add	r4, r4, #104	; 0x68
    d908:	1afffff1 	bne	d8d4 <_fwalk+0x24>
    d90c:	e5977000 	ldr	r7, [r7]
    d910:	e3570000 	cmp	r7, #0
    d914:	1affffea 	bne	d8c4 <_fwalk+0x14>
    d918:	e1a00006 	mov	r0, r6
    d91c:	e8bd41f0 	pop	{r4, r5, r6, r7, r8, lr}
    d920:	e12fff1e 	bx	lr
    d924:	e1a06007 	mov	r6, r7
    d928:	e1a00006 	mov	r0, r6
    d92c:	e8bd41f0 	pop	{r4, r5, r6, r7, r8, lr}
    d930:	e12fff1e 	bx	lr

0000d934 <_fwalk_reent>:
    d934:	e92d43f8 	push	{r3, r4, r5, r6, r7, r8, r9, lr}
    d938:	e2906e2e 	adds	r6, r0, #736	; 0x2e0
    d93c:	e1a08000 	mov	r8, r0
    d940:	e1a09001 	mov	r9, r1
    d944:	0a000019 	beq	d9b0 <_fwalk_reent+0x7c>
    d948:	e3a07000 	mov	r7, #0
    d94c:	e5965004 	ldr	r5, [r6, #4]
    d950:	e2555001 	subs	r5, r5, #1
    d954:	e5964008 	ldr	r4, [r6, #8]
    d958:	4a00000e 	bmi	d998 <_fwalk_reent+0x64>
    d95c:	e1d430bc 	ldrh	r3, [r4, #12]
    d960:	e3530001 	cmp	r3, #1
    d964:	e2455001 	sub	r5, r5, #1
    d968:	9a000007 	bls	d98c <_fwalk_reent+0x58>
    d96c:	e1d430fe 	ldrsh	r3, [r4, #14]
    d970:	e3730001 	cmn	r3, #1
    d974:	e1a01004 	mov	r1, r4
    d978:	e1a00008 	mov	r0, r8
    d97c:	0a000002 	beq	d98c <_fwalk_reent+0x58>
    d980:	e1a0e00f 	mov	lr, pc
    d984:	e12fff19 	bx	r9
    d988:	e1877000 	orr	r7, r7, r0
    d98c:	e3750001 	cmn	r5, #1
    d990:	e2844068 	add	r4, r4, #104	; 0x68
    d994:	1afffff0 	bne	d95c <_fwalk_reent+0x28>
    d998:	e5966000 	ldr	r6, [r6]
    d99c:	e3560000 	cmp	r6, #0
    d9a0:	1affffe9 	bne	d94c <_fwalk_reent+0x18>
    d9a4:	e1a00007 	mov	r0, r7
    d9a8:	e8bd43f8 	pop	{r3, r4, r5, r6, r7, r8, r9, lr}
    d9ac:	e12fff1e 	bx	lr
    d9b0:	e1a07006 	mov	r7, r6
    d9b4:	e1a00007 	mov	r0, r7
    d9b8:	e8bd43f8 	pop	{r3, r4, r5, r6, r7, r8, r9, lr}
    d9bc:	e12fff1e 	bx	lr

0000d9c0 <_setlocale_r>:
    d9c0:	e92d4010 	push	{r4, lr}
    d9c4:	e2524000 	subs	r4, r2, #0
    d9c8:	0a000004 	beq	d9e0 <_setlocale_r+0x20>
    d9cc:	e1a00004 	mov	r0, r4
    d9d0:	e59f104c 	ldr	r1, [pc, #76]	; da24 <_setlocale_r+0x64>
    d9d4:	eb00086c 	bl	fb8c <strcmp>
    d9d8:	e3500000 	cmp	r0, #0
    d9dc:	1a000002 	bne	d9ec <_setlocale_r+0x2c>
    d9e0:	e59f0040 	ldr	r0, [pc, #64]	; da28 <_setlocale_r+0x68>
    d9e4:	e8bd4010 	pop	{r4, lr}
    d9e8:	e12fff1e 	bx	lr
    d9ec:	e1a00004 	mov	r0, r4
    d9f0:	e59f1030 	ldr	r1, [pc, #48]	; da28 <_setlocale_r+0x68>
    d9f4:	eb000864 	bl	fb8c <strcmp>
    d9f8:	e3500000 	cmp	r0, #0
    d9fc:	0afffff7 	beq	d9e0 <_setlocale_r+0x20>
    da00:	e1a00004 	mov	r0, r4
    da04:	e59f1020 	ldr	r1, [pc, #32]	; da2c <_setlocale_r+0x6c>
    da08:	eb00085f 	bl	fb8c <strcmp>
    da0c:	e59f3014 	ldr	r3, [pc, #20]	; da28 <_setlocale_r+0x68>
    da10:	e3500000 	cmp	r0, #0
    da14:	01a00003 	moveq	r0, r3
    da18:	13a00000 	movne	r0, #0
    da1c:	e8bd4010 	pop	{r4, lr}
    da20:	e12fff1e 	bx	lr
    da24:	00012898 	.word	0x00012898
    da28:	00012890 	.word	0x00012890
    da2c:	00012680 	.word	0x00012680

0000da30 <__locale_charset>:
    da30:	e59f0000 	ldr	r0, [pc]	; da38 <__locale_charset+0x8>
    da34:	e12fff1e 	bx	lr
    da38:	00012e8c 	.word	0x00012e8c

0000da3c <__locale_mb_cur_max>:
    da3c:	e59f3004 	ldr	r3, [pc, #4]	; da48 <__locale_mb_cur_max+0xc>
    da40:	e5930000 	ldr	r0, [r3]
    da44:	e12fff1e 	bx	lr
    da48:	00012eac 	.word	0x00012eac

0000da4c <__locale_msgcharset>:
    da4c:	e59f0000 	ldr	r0, [pc]	; da54 <__locale_msgcharset+0x8>
    da50:	e12fff1e 	bx	lr
    da54:	00012e34 	.word	0x00012e34

0000da58 <__locale_cjk_lang>:
    da58:	e3a00000 	mov	r0, #0
    da5c:	e12fff1e 	bx	lr

0000da60 <_localeconv_r>:
    da60:	e59f0000 	ldr	r0, [pc]	; da68 <_localeconv_r+0x8>
    da64:	e12fff1e 	bx	lr
    da68:	00012e54 	.word	0x00012e54

0000da6c <setlocale>:
    da6c:	e59f300c 	ldr	r3, [pc, #12]	; da80 <setlocale+0x14>
    da70:	e1a02001 	mov	r2, r1
    da74:	e1a01000 	mov	r1, r0
    da78:	e5930000 	ldr	r0, [r3]
    da7c:	eaffffcf 	b	d9c0 <_setlocale_r>
    da80:	00012e30 	.word	0x00012e30

0000da84 <localeconv>:
    da84:	e59f0000 	ldr	r0, [pc]	; da8c <localeconv+0x8>
    da88:	e12fff1e 	bx	lr
    da8c:	00012e54 	.word	0x00012e54

0000da90 <__smakebuf_r>:
    da90:	e92d40f0 	push	{r4, r5, r6, r7, lr}
    da94:	e1d130bc 	ldrh	r3, [r1, #12]
    da98:	e3130002 	tst	r3, #2
    da9c:	e24dd044 	sub	sp, sp, #68	; 0x44
    daa0:	e1a04001 	mov	r4, r1
    daa4:	e1a02003 	mov	r2, r3
    daa8:	e1a05000 	mov	r5, r0
    daac:	1a00002c 	bne	db64 <__smakebuf_r+0xd4>
    dab0:	e1d110fe 	ldrsh	r1, [r1, #14]
    dab4:	e3510000 	cmp	r1, #0
    dab8:	ba000011 	blt	db04 <__smakebuf_r+0x74>
    dabc:	e28d2004 	add	r2, sp, #4
    dac0:	eb000ed6 	bl	11620 <_fstat_r>
    dac4:	e3500000 	cmp	r0, #0
    dac8:	ba00000b 	blt	dafc <__smakebuf_r+0x6c>
    dacc:	e59d3008 	ldr	r3, [sp, #8]
    dad0:	e2033a0f 	and	r3, r3, #61440	; 0xf000
    dad4:	e2532a02 	subs	r2, r3, #8192	; 0x2000
    dad8:	e2727000 	rsbs	r7, r2, #0
    dadc:	e0b77002 	adcs	r7, r7, r2
    dae0:	e3530902 	cmp	r3, #32768	; 0x8000
    dae4:	0a000026 	beq	db84 <__smakebuf_r+0xf4>
    dae8:	e1d430bc 	ldrh	r3, [r4, #12]
    daec:	e3833b02 	orr	r3, r3, #2048	; 0x800
    daf0:	e1c430bc 	strh	r3, [r4, #12]
    daf4:	e3a06b01 	mov	r6, #1024	; 0x400
    daf8:	ea000007 	b	db1c <__smakebuf_r+0x8c>
    dafc:	e1d430bc 	ldrh	r3, [r4, #12]
    db00:	e1a02003 	mov	r2, r3
    db04:	e3833b02 	orr	r3, r3, #2048	; 0x800
    db08:	e3120080 	tst	r2, #128	; 0x80
    db0c:	e1c430bc 	strh	r3, [r4, #12]
    db10:	13a06040 	movne	r6, #64	; 0x40
    db14:	03a06b01 	moveq	r6, #1024	; 0x400
    db18:	e3a07000 	mov	r7, #0
    db1c:	e1a00005 	mov	r0, r5
    db20:	e1a01006 	mov	r1, r6
    db24:	eb000036 	bl	dc04 <_malloc_r>
    db28:	e3500000 	cmp	r0, #0
    db2c:	e1d430bc 	ldrh	r3, [r4, #12]
    db30:	0a000027 	beq	dbd4 <__smakebuf_r+0x144>
    db34:	e59f20c0 	ldr	r2, [pc, #192]	; dbfc <__smakebuf_r+0x16c>
    db38:	e3833080 	orr	r3, r3, #128	; 0x80
    db3c:	e3570000 	cmp	r7, #0
    db40:	e585203c 	str	r2, [r5, #60]	; 0x3c
    db44:	e1c430bc 	strh	r3, [r4, #12]
    db48:	e5840000 	str	r0, [r4]
    db4c:	e5840010 	str	r0, [r4, #16]
    db50:	e5846014 	str	r6, [r4, #20]
    db54:	1a000014 	bne	dbac <__smakebuf_r+0x11c>
    db58:	e28dd044 	add	sp, sp, #68	; 0x44
    db5c:	e8bd40f0 	pop	{r4, r5, r6, r7, lr}
    db60:	e12fff1e 	bx	lr
    db64:	e2813043 	add	r3, r1, #67	; 0x43
    db68:	e3a02001 	mov	r2, #1
    db6c:	e5813000 	str	r3, [r1]
    db70:	e5813010 	str	r3, [r1, #16]
    db74:	e5812014 	str	r2, [r1, #20]
    db78:	e28dd044 	add	sp, sp, #68	; 0x44
    db7c:	e8bd40f0 	pop	{r4, r5, r6, r7, lr}
    db80:	e12fff1e 	bx	lr
    db84:	e59f3074 	ldr	r3, [pc, #116]	; dc00 <__smakebuf_r+0x170>
    db88:	e5942028 	ldr	r2, [r4, #40]	; 0x28
    db8c:	e1520003 	cmp	r2, r3
    db90:	1affffd4 	bne	dae8 <__smakebuf_r+0x58>
    db94:	e1d430bc 	ldrh	r3, [r4, #12]
    db98:	e3a06b01 	mov	r6, #1024	; 0x400
    db9c:	e1833006 	orr	r3, r3, r6
    dba0:	e1c430bc 	strh	r3, [r4, #12]
    dba4:	e584604c 	str	r6, [r4, #76]	; 0x4c
    dba8:	eaffffdb 	b	db1c <__smakebuf_r+0x8c>
    dbac:	e1a00005 	mov	r0, r5
    dbb0:	e1d410fe 	ldrsh	r1, [r4, #14]
    dbb4:	eb000ea9 	bl	11660 <_isatty_r>
    dbb8:	e3500000 	cmp	r0, #0
    dbbc:	11d430bc 	ldrhne	r3, [r4, #12]
    dbc0:	13833001 	orrne	r3, r3, #1
    dbc4:	11c430bc 	strhne	r3, [r4, #12]
    dbc8:	e28dd044 	add	sp, sp, #68	; 0x44
    dbcc:	e8bd40f0 	pop	{r4, r5, r6, r7, lr}
    dbd0:	e12fff1e 	bx	lr
    dbd4:	e3130c02 	tst	r3, #512	; 0x200
    dbd8:	1affffde 	bne	db58 <__smakebuf_r+0xc8>
    dbdc:	e2842043 	add	r2, r4, #67	; 0x43
    dbe0:	e3833002 	orr	r3, r3, #2
    dbe4:	e3a01001 	mov	r1, #1
    dbe8:	e1c430bc 	strh	r3, [r4, #12]
    dbec:	e5842000 	str	r2, [r4]
    dbf0:	e5842010 	str	r2, [r4, #16]
    dbf4:	e5841014 	str	r1, [r4, #20]
    dbf8:	eaffffd6 	b	db58 <__smakebuf_r+0xc8>
    dbfc:	0000cd24 	.word	0x0000cd24
    dc00:	0000fb48 	.word	0x0000fb48

0000dc04 <_malloc_r>:
    dc04:	e92d4ff0 	push	{r4, r5, r6, r7, r8, r9, sl, fp, lr}
    dc08:	e281500b 	add	r5, r1, #11
    dc0c:	e3550016 	cmp	r5, #22
    dc10:	83c55007 	bichi	r5, r5, #7
    dc14:	81a03fa5 	lsrhi	r3, r5, #31
    dc18:	93a03000 	movls	r3, #0
    dc1c:	93a05010 	movls	r5, #16
    dc20:	e1550001 	cmp	r5, r1
    dc24:	21a01003 	movcs	r1, r3
    dc28:	33831001 	orrcc	r1, r3, #1
    dc2c:	e3510000 	cmp	r1, #0
    dc30:	13a0300c 	movne	r3, #12
    dc34:	e24dd00c 	sub	sp, sp, #12
    dc38:	e1a06000 	mov	r6, r0
    dc3c:	15803000 	strne	r3, [r0]
    dc40:	13a04000 	movne	r4, #0
    dc44:	1a000015 	bne	dca0 <_malloc_r+0x9c>
    dc48:	eb0002cb 	bl	e77c <__malloc_lock>
    dc4c:	e3550f7e 	cmp	r5, #504	; 0x1f8
    dc50:	2a000016 	bcs	dcb0 <_malloc_r+0xac>
    dc54:	e59f76d8 	ldr	r7, [pc, #1752]	; e334 <_malloc_r+0x730>
    dc58:	e1a0e1a5 	lsr	lr, r5, #3
    dc5c:	e087318e 	add	r3, r7, lr, lsl #3
    dc60:	e593400c 	ldr	r4, [r3, #12]
    dc64:	e1540003 	cmp	r4, r3
    dc68:	0a000149 	beq	e194 <_malloc_r+0x590>
    dc6c:	e5943004 	ldr	r3, [r4, #4]
    dc70:	e3c33003 	bic	r3, r3, #3
    dc74:	e0843003 	add	r3, r4, r3
    dc78:	e593c004 	ldr	ip, [r3, #4]
    dc7c:	e2841008 	add	r1, r4, #8
    dc80:	e8910006 	ldm	r1, {r1, r2}
    dc84:	e38cc001 	orr	ip, ip, #1
    dc88:	e581200c 	str	r2, [r1, #12]
    dc8c:	e1a00006 	mov	r0, r6
    dc90:	e5821008 	str	r1, [r2, #8]
    dc94:	e583c004 	str	ip, [r3, #4]
    dc98:	eb0002b8 	bl	e780 <__malloc_unlock>
    dc9c:	e2844008 	add	r4, r4, #8
    dca0:	e1a00004 	mov	r0, r4
    dca4:	e28dd00c 	add	sp, sp, #12
    dca8:	e8bd4ff0 	pop	{r4, r5, r6, r7, r8, r9, sl, fp, lr}
    dcac:	e12fff1e 	bx	lr
    dcb0:	e1b0e4a5 	lsrs	lr, r5, #9
    dcb4:	03a0107e 	moveq	r1, #126	; 0x7e
    dcb8:	03a0e03f 	moveq	lr, #63	; 0x3f
    dcbc:	1a000061 	bne	de48 <_malloc_r+0x244>
    dcc0:	e59f766c 	ldr	r7, [pc, #1644]	; e334 <_malloc_r+0x730>
    dcc4:	e0871101 	add	r1, r7, r1, lsl #2
    dcc8:	e591400c 	ldr	r4, [r1, #12]
    dccc:	e1510004 	cmp	r1, r4
    dcd0:	1a000005 	bne	dcec <_malloc_r+0xe8>
    dcd4:	ea00000a 	b	dd04 <_malloc_r+0x100>
    dcd8:	e3530000 	cmp	r3, #0
    dcdc:	aa0000e2 	bge	e06c <_malloc_r+0x468>
    dce0:	e594400c 	ldr	r4, [r4, #12]
    dce4:	e1510004 	cmp	r1, r4
    dce8:	0a000005 	beq	dd04 <_malloc_r+0x100>
    dcec:	e5942004 	ldr	r2, [r4, #4]
    dcf0:	e3c22003 	bic	r2, r2, #3
    dcf4:	e0653002 	rsb	r3, r5, r2
    dcf8:	e353000f 	cmp	r3, #15
    dcfc:	dafffff5 	ble	dcd8 <_malloc_r+0xd4>
    dd00:	e24ee001 	sub	lr, lr, #1
    dd04:	e28ee001 	add	lr, lr, #1
    dd08:	e59f3624 	ldr	r3, [pc, #1572]	; e334 <_malloc_r+0x730>
    dd0c:	e5974010 	ldr	r4, [r7, #16]
    dd10:	e2838008 	add	r8, r3, #8
    dd14:	e1540008 	cmp	r4, r8
    dd18:	05931004 	ldreq	r1, [r3, #4]
    dd1c:	0a000016 	beq	dd7c <_malloc_r+0x178>
    dd20:	e5942004 	ldr	r2, [r4, #4]
    dd24:	e3c22003 	bic	r2, r2, #3
    dd28:	e0651002 	rsb	r1, r5, r2
    dd2c:	e351000f 	cmp	r1, #15
    dd30:	ca000105 	bgt	e14c <_malloc_r+0x548>
    dd34:	e3510000 	cmp	r1, #0
    dd38:	e5838014 	str	r8, [r3, #20]
    dd3c:	e5838010 	str	r8, [r3, #16]
    dd40:	aa000046 	bge	de60 <_malloc_r+0x25c>
    dd44:	e3520c02 	cmp	r2, #512	; 0x200
    dd48:	2a0000e0 	bcs	e0d0 <_malloc_r+0x4cc>
    dd4c:	e5930004 	ldr	r0, [r3, #4]
    dd50:	e1a021a2 	lsr	r2, r2, #3
    dd54:	e1a01142 	asr	r1, r2, #2
    dd58:	e3a0c001 	mov	ip, #1
    dd5c:	e180111c 	orr	r1, r0, ip, lsl r1
    dd60:	e0832182 	add	r2, r3, r2, lsl #3
    dd64:	e5920008 	ldr	r0, [r2, #8]
    dd68:	e5831004 	str	r1, [r3, #4]
    dd6c:	e5840008 	str	r0, [r4, #8]
    dd70:	e584200c 	str	r2, [r4, #12]
    dd74:	e5824008 	str	r4, [r2, #8]
    dd78:	e580400c 	str	r4, [r0, #12]
    dd7c:	e1a0314e 	asr	r3, lr, #2
    dd80:	e3a00001 	mov	r0, #1
    dd84:	e1a00310 	lsl	r0, r0, r3
    dd88:	e1500001 	cmp	r0, r1
    dd8c:	8a00003e 	bhi	de8c <_malloc_r+0x288>
    dd90:	e1110000 	tst	r1, r0
    dd94:	1a000008 	bne	ddbc <_malloc_r+0x1b8>
    dd98:	e1a00080 	lsl	r0, r0, #1
    dd9c:	e3cee003 	bic	lr, lr, #3
    dda0:	e1110000 	tst	r1, r0
    dda4:	e28ee004 	add	lr, lr, #4
    dda8:	1a000003 	bne	ddbc <_malloc_r+0x1b8>
    ddac:	e1a00080 	lsl	r0, r0, #1
    ddb0:	e1110000 	tst	r1, r0
    ddb4:	e28ee004 	add	lr, lr, #4
    ddb8:	0afffffb 	beq	ddac <_malloc_r+0x1a8>
    ddbc:	e087418e 	add	r4, r7, lr, lsl #3
    ddc0:	e1a0c004 	mov	ip, r4
    ddc4:	e1a0900e 	mov	r9, lr
    ddc8:	e59c300c 	ldr	r3, [ip, #12]
    ddcc:	e15c0003 	cmp	ip, r3
    ddd0:	1a000005 	bne	ddec <_malloc_r+0x1e8>
    ddd4:	ea0000e9 	b	e180 <_malloc_r+0x57c>
    ddd8:	e3520000 	cmp	r2, #0
    dddc:	aa0000f2 	bge	e1ac <_malloc_r+0x5a8>
    dde0:	e593300c 	ldr	r3, [r3, #12]
    dde4:	e15c0003 	cmp	ip, r3
    dde8:	0a0000e4 	beq	e180 <_malloc_r+0x57c>
    ddec:	e5931004 	ldr	r1, [r3, #4]
    ddf0:	e3c11003 	bic	r1, r1, #3
    ddf4:	e0652001 	rsb	r2, r5, r1
    ddf8:	e352000f 	cmp	r2, #15
    ddfc:	dafffff5 	ble	ddd8 <_malloc_r+0x1d4>
    de00:	e1a04003 	mov	r4, r3
    de04:	e5b4c008 	ldr	ip, [r4, #8]!
    de08:	e593100c 	ldr	r1, [r3, #12]
    de0c:	e3859001 	orr	r9, r5, #1
    de10:	e382e001 	orr	lr, r2, #1
    de14:	e0835005 	add	r5, r3, r5
    de18:	e5839004 	str	r9, [r3, #4]
    de1c:	e1a00006 	mov	r0, r6
    de20:	e58c100c 	str	r1, [ip, #12]
    de24:	e581c008 	str	ip, [r1, #8]
    de28:	e5875014 	str	r5, [r7, #20]
    de2c:	e5875010 	str	r5, [r7, #16]
    de30:	e585800c 	str	r8, [r5, #12]
    de34:	e5858008 	str	r8, [r5, #8]
    de38:	e585e004 	str	lr, [r5, #4]
    de3c:	e7852002 	str	r2, [r5, r2]
    de40:	eb00024e 	bl	e780 <__malloc_unlock>
    de44:	eaffff95 	b	dca0 <_malloc_r+0x9c>
    de48:	e35e0004 	cmp	lr, #4
    de4c:	8a000095 	bhi	e0a8 <_malloc_r+0x4a4>
    de50:	e1a0e325 	lsr	lr, r5, #6
    de54:	e28ee038 	add	lr, lr, #56	; 0x38
    de58:	e1a0108e 	lsl	r1, lr, #1
    de5c:	eaffff97 	b	dcc0 <_malloc_r+0xbc>
    de60:	e0842002 	add	r2, r4, r2
    de64:	e5923004 	ldr	r3, [r2, #4]
    de68:	e3833001 	orr	r3, r3, #1
    de6c:	e1a00006 	mov	r0, r6
    de70:	e5823004 	str	r3, [r2, #4]
    de74:	eb000241 	bl	e780 <__malloc_unlock>
    de78:	e2844008 	add	r4, r4, #8
    de7c:	e1a00004 	mov	r0, r4
    de80:	e28dd00c 	add	sp, sp, #12
    de84:	e8bd4ff0 	pop	{r4, r5, r6, r7, r8, r9, sl, fp, lr}
    de88:	e12fff1e 	bx	lr
    de8c:	e5974008 	ldr	r4, [r7, #8]
    de90:	e5949004 	ldr	r9, [r4, #4]
    de94:	e3c99003 	bic	r9, r9, #3
    de98:	e1550009 	cmp	r5, r9
    de9c:	8a000002 	bhi	deac <_malloc_r+0x2a8>
    dea0:	e0653009 	rsb	r3, r5, r9
    dea4:	e353000f 	cmp	r3, #15
    dea8:	ca000062 	bgt	e038 <_malloc_r+0x434>
    deac:	e59fc484 	ldr	ip, [pc, #1156]	; e338 <_malloc_r+0x734>
    deb0:	e59f2484 	ldr	r2, [pc, #1156]	; e33c <_malloc_r+0x738>
    deb4:	e59c3000 	ldr	r3, [ip]
    deb8:	e592b000 	ldr	fp, [r2]
    debc:	e3730001 	cmn	r3, #1
    dec0:	e085b00b 	add	fp, r5, fp
    dec4:	128bba01 	addne	fp, fp, #4096	; 0x1000
    dec8:	128bb00f 	addne	fp, fp, #15
    decc:	13cbbeff 	bicne	fp, fp, #4080	; 0xff0
    ded0:	028bb010 	addeq	fp, fp, #16
    ded4:	13cbb00f 	bicne	fp, fp, #15
    ded8:	e0842009 	add	r2, r4, r9
    dedc:	e1a00006 	mov	r0, r6
    dee0:	e1a0100b 	mov	r1, fp
    dee4:	e58d2004 	str	r2, [sp, #4]
    dee8:	e58dc000 	str	ip, [sp]
    deec:	eb0006df 	bl	fa70 <_sbrk_r>
    def0:	e3700001 	cmn	r0, #1
    def4:	e1a08000 	mov	r8, r0
    def8:	e59d2004 	ldr	r2, [sp, #4]
    defc:	e59dc000 	ldr	ip, [sp]
    df00:	0a0000bb 	beq	e1f4 <_malloc_r+0x5f0>
    df04:	e1520000 	cmp	r2, r0
    df08:	8a0000b7 	bhi	e1ec <_malloc_r+0x5e8>
    df0c:	e59fa42c 	ldr	sl, [pc, #1068]	; e340 <_malloc_r+0x73c>
    df10:	e59a3000 	ldr	r3, [sl]
    df14:	e1520008 	cmp	r2, r8
    df18:	e08b3003 	add	r3, fp, r3
    df1c:	e58a3000 	str	r3, [sl]
    df20:	0a0000e8 	beq	e2c8 <_malloc_r+0x6c4>
    df24:	e59c1000 	ldr	r1, [ip]
    df28:	e3710001 	cmn	r1, #1
    df2c:	10622008 	rsbne	r2, r2, r8
    df30:	e59f1400 	ldr	r1, [pc, #1024]	; e338 <_malloc_r+0x734>
    df34:	10833002 	addne	r3, r3, r2
    df38:	05818000 	streq	r8, [r1]
    df3c:	158a3000 	strne	r3, [sl]
    df40:	e2183007 	ands	r3, r8, #7
    df44:	12632008 	rsbne	r2, r3, #8
    df48:	10888002 	addne	r8, r8, r2
    df4c:	12633a01 	rsbne	r3, r3, #4096	; 0x1000
    df50:	12832008 	addne	r2, r3, #8
    df54:	e088300b 	add	r3, r8, fp
    df58:	03a02a01 	moveq	r2, #4096	; 0x1000
    df5c:	e1a03a03 	lsl	r3, r3, #20
    df60:	e042ba23 	sub	fp, r2, r3, lsr #20
    df64:	e1a0100b 	mov	r1, fp
    df68:	e1a00006 	mov	r0, r6
    df6c:	eb0006bf 	bl	fa70 <_sbrk_r>
    df70:	e3700001 	cmn	r0, #1
    df74:	10682000 	rsbne	r2, r8, r0
    df78:	e59a3000 	ldr	r3, [sl]
    df7c:	108b2002 	addne	r2, fp, r2
    df80:	03a0b000 	moveq	fp, #0
    df84:	13822001 	orrne	r2, r2, #1
    df88:	03a02001 	moveq	r2, #1
    df8c:	e08b3003 	add	r3, fp, r3
    df90:	e1540007 	cmp	r4, r7
    df94:	e5878008 	str	r8, [r7, #8]
    df98:	e58a3000 	str	r3, [sl]
    df9c:	e5882004 	str	r2, [r8, #4]
    dfa0:	e59fa398 	ldr	sl, [pc, #920]	; e340 <_malloc_r+0x73c>
    dfa4:	0a00000d 	beq	dfe0 <_malloc_r+0x3dc>
    dfa8:	e359000f 	cmp	r9, #15
    dfac:	9a0000b1 	bls	e278 <_malloc_r+0x674>
    dfb0:	e5940004 	ldr	r0, [r4, #4]
    dfb4:	e249200c 	sub	r2, r9, #12
    dfb8:	e3c22007 	bic	r2, r2, #7
    dfbc:	e2000001 	and	r0, r0, #1
    dfc0:	e1820000 	orr	r0, r2, r0
    dfc4:	e3a01005 	mov	r1, #5
    dfc8:	e352000f 	cmp	r2, #15
    dfcc:	e0842002 	add	r2, r4, r2
    dfd0:	e5840004 	str	r0, [r4, #4]
    dfd4:	e5821004 	str	r1, [r2, #4]
    dfd8:	e5821008 	str	r1, [r2, #8]
    dfdc:	8a0000c0 	bhi	e2e4 <_malloc_r+0x6e0>
    dfe0:	e59f235c 	ldr	r2, [pc, #860]	; e344 <_malloc_r+0x740>
    dfe4:	e5921000 	ldr	r1, [r2]
    dfe8:	e1530001 	cmp	r3, r1
    dfec:	85823000 	strhi	r3, [r2]
    dff0:	e59f2350 	ldr	r2, [pc, #848]	; e348 <_malloc_r+0x744>
    dff4:	e5921000 	ldr	r1, [r2]
    dff8:	e5974008 	ldr	r4, [r7, #8]
    dffc:	e1530001 	cmp	r3, r1
    e000:	95943004 	ldrls	r3, [r4, #4]
    e004:	85941004 	ldrhi	r1, [r4, #4]
    e008:	85823000 	strhi	r3, [r2]
    e00c:	93c33003 	bicls	r3, r3, #3
    e010:	83c13003 	bichi	r3, r1, #3
    e014:	e1550003 	cmp	r5, r3
    e018:	e0653003 	rsb	r3, r5, r3
    e01c:	8a000001 	bhi	e028 <_malloc_r+0x424>
    e020:	e353000f 	cmp	r3, #15
    e024:	ca000003 	bgt	e038 <_malloc_r+0x434>
    e028:	e1a00006 	mov	r0, r6
    e02c:	eb0001d3 	bl	e780 <__malloc_unlock>
    e030:	e3a04000 	mov	r4, #0
    e034:	eaffff19 	b	dca0 <_malloc_r+0x9c>
    e038:	e3852001 	orr	r2, r5, #1
    e03c:	e3833001 	orr	r3, r3, #1
    e040:	e0845005 	add	r5, r4, r5
    e044:	e5842004 	str	r2, [r4, #4]
    e048:	e1a00006 	mov	r0, r6
    e04c:	e5875008 	str	r5, [r7, #8]
    e050:	e5853004 	str	r3, [r5, #4]
    e054:	eb0001c9 	bl	e780 <__malloc_unlock>
    e058:	e2844008 	add	r4, r4, #8
    e05c:	e1a00004 	mov	r0, r4
    e060:	e28dd00c 	add	sp, sp, #12
    e064:	e8bd4ff0 	pop	{r4, r5, r6, r7, r8, r9, sl, fp, lr}
    e068:	e12fff1e 	bx	lr
    e06c:	e0842002 	add	r2, r4, r2
    e070:	e592c004 	ldr	ip, [r2, #4]
    e074:	e2841008 	add	r1, r4, #8
    e078:	e891000a 	ldm	r1, {r1, r3}
    e07c:	e38cc001 	orr	ip, ip, #1
    e080:	e581300c 	str	r3, [r1, #12]
    e084:	e1a00006 	mov	r0, r6
    e088:	e5831008 	str	r1, [r3, #8]
    e08c:	e582c004 	str	ip, [r2, #4]
    e090:	eb0001ba 	bl	e780 <__malloc_unlock>
    e094:	e2844008 	add	r4, r4, #8
    e098:	e1a00004 	mov	r0, r4
    e09c:	e28dd00c 	add	sp, sp, #12
    e0a0:	e8bd4ff0 	pop	{r4, r5, r6, r7, r8, r9, sl, fp, lr}
    e0a4:	e12fff1e 	bx	lr
    e0a8:	e35e0014 	cmp	lr, #20
    e0ac:	928ee05b 	addls	lr, lr, #91	; 0x5b
    e0b0:	91a0108e 	lslls	r1, lr, #1
    e0b4:	9affff01 	bls	dcc0 <_malloc_r+0xbc>
    e0b8:	e35e0054 	cmp	lr, #84	; 0x54
    e0bc:	8a000067 	bhi	e260 <_malloc_r+0x65c>
    e0c0:	e1a0e625 	lsr	lr, r5, #12
    e0c4:	e28ee06e 	add	lr, lr, #110	; 0x6e
    e0c8:	e1a0108e 	lsl	r1, lr, #1
    e0cc:	eafffefb 	b	dcc0 <_malloc_r+0xbc>
    e0d0:	e1a034a2 	lsr	r3, r2, #9
    e0d4:	e3530004 	cmp	r3, #4
    e0d8:	9a00003f 	bls	e1dc <_malloc_r+0x5d8>
    e0dc:	e3530014 	cmp	r3, #20
    e0e0:	9283105b 	addls	r1, r3, #91	; 0x5b
    e0e4:	91a00081 	lslls	r0, r1, #1
    e0e8:	9a000004 	bls	e100 <_malloc_r+0x4fc>
    e0ec:	e3530054 	cmp	r3, #84	; 0x54
    e0f0:	8a000080 	bhi	e2f8 <_malloc_r+0x6f4>
    e0f4:	e1a01622 	lsr	r1, r2, #12
    e0f8:	e281106e 	add	r1, r1, #110	; 0x6e
    e0fc:	e1a00081 	lsl	r0, r1, #1
    e100:	e0870100 	add	r0, r7, r0, lsl #2
    e104:	e5903008 	ldr	r3, [r0, #8]
    e108:	e1530000 	cmp	r3, r0
    e10c:	e59fc220 	ldr	ip, [pc, #544]	; e334 <_malloc_r+0x730>
    e110:	0a00005d 	beq	e28c <_malloc_r+0x688>
    e114:	e5931004 	ldr	r1, [r3, #4]
    e118:	e3c11003 	bic	r1, r1, #3
    e11c:	e1520001 	cmp	r2, r1
    e120:	2a000002 	bcs	e130 <_malloc_r+0x52c>
    e124:	e5933008 	ldr	r3, [r3, #8]
    e128:	e1500003 	cmp	r0, r3
    e12c:	1afffff8 	bne	e114 <_malloc_r+0x510>
    e130:	e593200c 	ldr	r2, [r3, #12]
    e134:	e5971004 	ldr	r1, [r7, #4]
    e138:	e584200c 	str	r2, [r4, #12]
    e13c:	e5843008 	str	r3, [r4, #8]
    e140:	e5824008 	str	r4, [r2, #8]
    e144:	e583400c 	str	r4, [r3, #12]
    e148:	eaffff0b 	b	dd7c <_malloc_r+0x178>
    e14c:	e385c001 	orr	ip, r5, #1
    e150:	e3812001 	orr	r2, r1, #1
    e154:	e0845005 	add	r5, r4, r5
    e158:	e584c004 	str	ip, [r4, #4]
    e15c:	e1a00006 	mov	r0, r6
    e160:	e5835014 	str	r5, [r3, #20]
    e164:	e5835010 	str	r5, [r3, #16]
    e168:	e585800c 	str	r8, [r5, #12]
    e16c:	e9850104 	stmib	r5, {r2, r8}
    e170:	e7851001 	str	r1, [r5, r1]
    e174:	e2844008 	add	r4, r4, #8
    e178:	eb000180 	bl	e780 <__malloc_unlock>
    e17c:	eafffec7 	b	dca0 <_malloc_r+0x9c>
    e180:	e2899001 	add	r9, r9, #1
    e184:	e3190003 	tst	r9, #3
    e188:	e28cc008 	add	ip, ip, #8
    e18c:	1affff0d 	bne	ddc8 <_malloc_r+0x1c4>
    e190:	ea00001f 	b	e214 <_malloc_r+0x610>
    e194:	e2843008 	add	r3, r4, #8
    e198:	e5944014 	ldr	r4, [r4, #20]
    e19c:	e1530004 	cmp	r3, r4
    e1a0:	028ee002 	addeq	lr, lr, #2
    e1a4:	0afffed7 	beq	dd08 <_malloc_r+0x104>
    e1a8:	eafffeaf 	b	dc6c <_malloc_r+0x68>
    e1ac:	e0831001 	add	r1, r3, r1
    e1b0:	e591c004 	ldr	ip, [r1, #4]
    e1b4:	e1a04003 	mov	r4, r3
    e1b8:	e5b42008 	ldr	r2, [r4, #8]!
    e1bc:	e593300c 	ldr	r3, [r3, #12]
    e1c0:	e38cc001 	orr	ip, ip, #1
    e1c4:	e581c004 	str	ip, [r1, #4]
    e1c8:	e1a00006 	mov	r0, r6
    e1cc:	e582300c 	str	r3, [r2, #12]
    e1d0:	e5832008 	str	r2, [r3, #8]
    e1d4:	eb000169 	bl	e780 <__malloc_unlock>
    e1d8:	eafffeb0 	b	dca0 <_malloc_r+0x9c>
    e1dc:	e1a01322 	lsr	r1, r2, #6
    e1e0:	e2811038 	add	r1, r1, #56	; 0x38
    e1e4:	e1a00081 	lsl	r0, r1, #1
    e1e8:	eaffffc4 	b	e100 <_malloc_r+0x4fc>
    e1ec:	e1540007 	cmp	r4, r7
    e1f0:	0affff45 	beq	df0c <_malloc_r+0x308>
    e1f4:	e5974008 	ldr	r4, [r7, #8]
    e1f8:	e5943004 	ldr	r3, [r4, #4]
    e1fc:	e3c33003 	bic	r3, r3, #3
    e200:	eaffff83 	b	e014 <_malloc_r+0x410>
    e204:	e5944000 	ldr	r4, [r4]
    e208:	e1540003 	cmp	r4, r3
    e20c:	e24ee001 	sub	lr, lr, #1
    e210:	1a000045 	bne	e32c <_malloc_r+0x728>
    e214:	e31e0003 	tst	lr, #3
    e218:	e2443008 	sub	r3, r4, #8
    e21c:	1afffff8 	bne	e204 <_malloc_r+0x600>
    e220:	e5973004 	ldr	r3, [r7, #4]
    e224:	e1c33000 	bic	r3, r3, r0
    e228:	e5873004 	str	r3, [r7, #4]
    e22c:	e1a00080 	lsl	r0, r0, #1
    e230:	e1500003 	cmp	r0, r3
    e234:	8affff14 	bhi	de8c <_malloc_r+0x288>
    e238:	e3500000 	cmp	r0, #0
    e23c:	0affff12 	beq	de8c <_malloc_r+0x288>
    e240:	e1130000 	tst	r3, r0
    e244:	e1a0e009 	mov	lr, r9
    e248:	1afffedb 	bne	ddbc <_malloc_r+0x1b8>
    e24c:	e1a00080 	lsl	r0, r0, #1
    e250:	e1130000 	tst	r3, r0
    e254:	e28ee004 	add	lr, lr, #4
    e258:	0afffffb 	beq	e24c <_malloc_r+0x648>
    e25c:	eafffed6 	b	ddbc <_malloc_r+0x1b8>
    e260:	e35e0f55 	cmp	lr, #340	; 0x154
    e264:	8a00000f 	bhi	e2a8 <_malloc_r+0x6a4>
    e268:	e1a0e7a5 	lsr	lr, r5, #15
    e26c:	e28ee077 	add	lr, lr, #119	; 0x77
    e270:	e1a0108e 	lsl	r1, lr, #1
    e274:	eafffe91 	b	dcc0 <_malloc_r+0xbc>
    e278:	e3a03001 	mov	r3, #1
    e27c:	e5883004 	str	r3, [r8, #4]
    e280:	e1a04008 	mov	r4, r8
    e284:	e3a03000 	mov	r3, #0
    e288:	eaffff61 	b	e014 <_malloc_r+0x410>
    e28c:	e59c2004 	ldr	r2, [ip, #4]
    e290:	e1a01141 	asr	r1, r1, #2
    e294:	e3a00001 	mov	r0, #1
    e298:	e1821110 	orr	r1, r2, r0, lsl r1
    e29c:	e1a02003 	mov	r2, r3
    e2a0:	e58c1004 	str	r1, [ip, #4]
    e2a4:	eaffffa3 	b	e138 <_malloc_r+0x534>
    e2a8:	e59f309c 	ldr	r3, [pc, #156]	; e34c <_malloc_r+0x748>
    e2ac:	e15e0003 	cmp	lr, r3
    e2b0:	91a0e925 	lsrls	lr, r5, #18
    e2b4:	928ee07c 	addls	lr, lr, #124	; 0x7c
    e2b8:	91a0108e 	lslls	r1, lr, #1
    e2bc:	83a010fc 	movhi	r1, #252	; 0xfc
    e2c0:	83a0e07e 	movhi	lr, #126	; 0x7e
    e2c4:	eafffe7d 	b	dcc0 <_malloc_r+0xbc>
    e2c8:	e1b01a02 	lsls	r1, r2, #20
    e2cc:	1affff14 	bne	df24 <_malloc_r+0x320>
    e2d0:	e08b1009 	add	r1, fp, r9
    e2d4:	e5972008 	ldr	r2, [r7, #8]
    e2d8:	e3811001 	orr	r1, r1, #1
    e2dc:	e5821004 	str	r1, [r2, #4]
    e2e0:	eaffff3e 	b	dfe0 <_malloc_r+0x3dc>
    e2e4:	e2841008 	add	r1, r4, #8
    e2e8:	e1a00006 	mov	r0, r6
    e2ec:	ebfffb9d 	bl	d168 <_free_r>
    e2f0:	e59a3000 	ldr	r3, [sl]
    e2f4:	eaffff39 	b	dfe0 <_malloc_r+0x3dc>
    e2f8:	e3530f55 	cmp	r3, #340	; 0x154
    e2fc:	91a017a2 	lsrls	r1, r2, #15
    e300:	92811077 	addls	r1, r1, #119	; 0x77
    e304:	91a00081 	lslls	r0, r1, #1
    e308:	9affff7c 	bls	e100 <_malloc_r+0x4fc>
    e30c:	e59f1038 	ldr	r1, [pc, #56]	; e34c <_malloc_r+0x748>
    e310:	e1530001 	cmp	r3, r1
    e314:	91a01922 	lsrls	r1, r2, #18
    e318:	9281107c 	addls	r1, r1, #124	; 0x7c
    e31c:	91a00081 	lslls	r0, r1, #1
    e320:	83a000fc 	movhi	r0, #252	; 0xfc
    e324:	83a0107e 	movhi	r1, #126	; 0x7e
    e328:	eaffff74 	b	e100 <_malloc_r+0x4fc>
    e32c:	e5973004 	ldr	r3, [r7, #4]
    e330:	eaffffbd 	b	e22c <_malloc_r+0x628>
    e334:	00012eb0 	.word	0x00012eb0
    e338:	000132bc 	.word	0x000132bc
    e33c:	000132e4 	.word	0x000132e4
    e340:	000132e8 	.word	0x000132e8
    e344:	000132e0 	.word	0x000132e0
    e348:	000132dc 	.word	0x000132dc
    e34c:	00000554 	.word	0x00000554

0000e350 <memchr>:
    e350:	e3100003 	tst	r0, #3
    e354:	e92d0070 	push	{r4, r5, r6}
    e358:	e20110ff 	and	r1, r1, #255	; 0xff
    e35c:	0a00003a 	beq	e44c <memchr+0xfc>
    e360:	e3520000 	cmp	r2, #0
    e364:	e242c001 	sub	ip, r2, #1
    e368:	0a000021 	beq	e3f4 <memchr+0xa4>
    e36c:	e5d03000 	ldrb	r3, [r0]
    e370:	e1530001 	cmp	r3, r1
    e374:	0a00001f 	beq	e3f8 <memchr+0xa8>
    e378:	e2803001 	add	r3, r0, #1
    e37c:	ea000006 	b	e39c <memchr+0x4c>
    e380:	e35c0000 	cmp	ip, #0
    e384:	0a00001a 	beq	e3f4 <memchr+0xa4>
    e388:	e5d02000 	ldrb	r2, [r0]
    e38c:	e1520001 	cmp	r2, r1
    e390:	e2833001 	add	r3, r3, #1
    e394:	e24cc001 	sub	ip, ip, #1
    e398:	0a000016 	beq	e3f8 <memchr+0xa8>
    e39c:	e3130003 	tst	r3, #3
    e3a0:	e1a00003 	mov	r0, r3
    e3a4:	1afffff5 	bne	e380 <memchr+0x30>
    e3a8:	e35c0003 	cmp	ip, #3
    e3ac:	8a000013 	bhi	e400 <memchr+0xb0>
    e3b0:	e35c0000 	cmp	ip, #0
    e3b4:	e24c4001 	sub	r4, ip, #1
    e3b8:	0a000025 	beq	e454 <memchr+0x104>
    e3bc:	e5d03000 	ldrb	r3, [r0]
    e3c0:	e1530001 	cmp	r3, r1
    e3c4:	0a00000b 	beq	e3f8 <memchr+0xa8>
    e3c8:	e2802001 	add	r2, r0, #1
    e3cc:	e3a03000 	mov	r3, #0
    e3d0:	ea000004 	b	e3e8 <memchr+0x98>
    e3d4:	e5d0c000 	ldrb	ip, [r0]
    e3d8:	e15c0001 	cmp	ip, r1
    e3dc:	e2822001 	add	r2, r2, #1
    e3e0:	e2833001 	add	r3, r3, #1
    e3e4:	0a000003 	beq	e3f8 <memchr+0xa8>
    e3e8:	e1530004 	cmp	r3, r4
    e3ec:	e1a00002 	mov	r0, r2
    e3f0:	1afffff7 	bne	e3d4 <memchr+0x84>
    e3f4:	e3a00000 	mov	r0, #0
    e3f8:	e8bd0070 	pop	{r4, r5, r6}
    e3fc:	e12fff1e 	bx	lr
    e400:	e1816401 	orr	r6, r1, r1, lsl #8
    e404:	e1a03000 	mov	r3, r0
    e408:	e1866806 	orr	r6, r6, r6, lsl #16
    e40c:	e5935000 	ldr	r5, [r3]
    e410:	e59f4044 	ldr	r4, [pc, #68]	; e45c <memchr+0x10c>
    e414:	e0265005 	eor	r5, r6, r5
    e418:	e0854004 	add	r4, r5, r4
    e41c:	e59f203c 	ldr	r2, [pc, #60]	; e460 <memchr+0x110>
    e420:	e1c44005 	bic	r4, r4, r5
    e424:	e0042002 	and	r2, r4, r2
    e428:	e3520000 	cmp	r2, #0
    e42c:	e1a00003 	mov	r0, r3
    e430:	e2833004 	add	r3, r3, #4
    e434:	1affffdd 	bne	e3b0 <memchr+0x60>
    e438:	e24cc004 	sub	ip, ip, #4
    e43c:	e35c0003 	cmp	ip, #3
    e440:	e1a00003 	mov	r0, r3
    e444:	8afffff0 	bhi	e40c <memchr+0xbc>
    e448:	eaffffd8 	b	e3b0 <memchr+0x60>
    e44c:	e1a0c002 	mov	ip, r2
    e450:	eaffffd4 	b	e3a8 <memchr+0x58>
    e454:	e1a0000c 	mov	r0, ip
    e458:	eaffffe6 	b	e3f8 <memchr+0xa8>
    e45c:	fefefeff 	.word	0xfefefeff
    e460:	80808080 	.word	0x80808080

0000e464 <memcpy>:
    e464:	e352000f 	cmp	r2, #15
    e468:	e92d00f0 	push	{r4, r5, r6, r7}
    e46c:	9a00002a 	bls	e51c <memcpy+0xb8>
    e470:	e1803001 	orr	r3, r0, r1
    e474:	e3130003 	tst	r3, #3
    e478:	1a000031 	bne	e544 <memcpy+0xe0>
    e47c:	e2426010 	sub	r6, r2, #16
    e480:	e1a06226 	lsr	r6, r6, #4
    e484:	e0805206 	add	r5, r0, r6, lsl #4
    e488:	e2855010 	add	r5, r5, #16
    e48c:	e1a0c001 	mov	ip, r1
    e490:	e1a03000 	mov	r3, r0
    e494:	e59c4000 	ldr	r4, [ip]
    e498:	e5834000 	str	r4, [r3]
    e49c:	e59c4004 	ldr	r4, [ip, #4]
    e4a0:	e5834004 	str	r4, [r3, #4]
    e4a4:	e59c4008 	ldr	r4, [ip, #8]
    e4a8:	e5834008 	str	r4, [r3, #8]
    e4ac:	e59c400c 	ldr	r4, [ip, #12]
    e4b0:	e2833010 	add	r3, r3, #16
    e4b4:	e5034004 	str	r4, [r3, #-4]
    e4b8:	e1530005 	cmp	r3, r5
    e4bc:	e28cc010 	add	ip, ip, #16
    e4c0:	1afffff3 	bne	e494 <memcpy+0x30>
    e4c4:	e2863001 	add	r3, r6, #1
    e4c8:	e202700f 	and	r7, r2, #15
    e4cc:	e1a03203 	lsl	r3, r3, #4
    e4d0:	e3570003 	cmp	r7, #3
    e4d4:	e0811003 	add	r1, r1, r3
    e4d8:	e0803003 	add	r3, r0, r3
    e4dc:	9a00001a 	bls	e54c <memcpy+0xe8>
    e4e0:	e1a05001 	mov	r5, r1
    e4e4:	e1a04003 	mov	r4, r3
    e4e8:	e1a0c007 	mov	ip, r7
    e4ec:	e24cc004 	sub	ip, ip, #4
    e4f0:	e4956004 	ldr	r6, [r5], #4
    e4f4:	e35c0003 	cmp	ip, #3
    e4f8:	e4846004 	str	r6, [r4], #4
    e4fc:	8afffffa 	bhi	e4ec <memcpy+0x88>
    e500:	e247c004 	sub	ip, r7, #4
    e504:	e3ccc003 	bic	ip, ip, #3
    e508:	e28cc004 	add	ip, ip, #4
    e50c:	e083300c 	add	r3, r3, ip
    e510:	e081100c 	add	r1, r1, ip
    e514:	e2022003 	and	r2, r2, #3
    e518:	ea000000 	b	e520 <memcpy+0xbc>
    e51c:	e1a03000 	mov	r3, r0
    e520:	e3520000 	cmp	r2, #0
    e524:	0a000004 	beq	e53c <memcpy+0xd8>
    e528:	e0812002 	add	r2, r1, r2
    e52c:	e4d1c001 	ldrb	ip, [r1], #1
    e530:	e1510002 	cmp	r1, r2
    e534:	e4c3c001 	strb	ip, [r3], #1
    e538:	1afffffb 	bne	e52c <memcpy+0xc8>
    e53c:	e8bd00f0 	pop	{r4, r5, r6, r7}
    e540:	e12fff1e 	bx	lr
    e544:	e1a03000 	mov	r3, r0
    e548:	eafffff6 	b	e528 <memcpy+0xc4>
    e54c:	e1a02007 	mov	r2, r7
    e550:	eafffff2 	b	e520 <memcpy+0xbc>

0000e554 <memmove>:
    e554:	e1500001 	cmp	r0, r1
    e558:	e92d00f0 	push	{r4, r5, r6, r7}
    e55c:	9a00000e 	bls	e59c <memmove+0x48>
    e560:	e081c002 	add	ip, r1, r2
    e564:	e150000c 	cmp	r0, ip
    e568:	2a00000b 	bcs	e59c <memmove+0x48>
    e56c:	e3520000 	cmp	r2, #0
    e570:	e0803002 	add	r3, r0, r2
    e574:	e2422001 	sub	r2, r2, #1
    e578:	0a000005 	beq	e594 <memmove+0x40>
    e57c:	e1a0100c 	mov	r1, ip
    e580:	e2422001 	sub	r2, r2, #1
    e584:	e571c001 	ldrb	ip, [r1, #-1]!
    e588:	e3720001 	cmn	r2, #1
    e58c:	e563c001 	strb	ip, [r3, #-1]!
    e590:	1afffffa 	bne	e580 <memmove+0x2c>
    e594:	e8bd00f0 	pop	{r4, r5, r6, r7}
    e598:	e12fff1e 	bx	lr
    e59c:	e352000f 	cmp	r2, #15
    e5a0:	8a000009 	bhi	e5cc <memmove+0x78>
    e5a4:	e1a03000 	mov	r3, r0
    e5a8:	e3520000 	cmp	r2, #0
    e5ac:	0afffff8 	beq	e594 <memmove+0x40>
    e5b0:	e0832002 	add	r2, r3, r2
    e5b4:	e4d1c001 	ldrb	ip, [r1], #1
    e5b8:	e4c3c001 	strb	ip, [r3], #1
    e5bc:	e1530002 	cmp	r3, r2
    e5c0:	1afffffb 	bne	e5b4 <memmove+0x60>
    e5c4:	e8bd00f0 	pop	{r4, r5, r6, r7}
    e5c8:	e12fff1e 	bx	lr
    e5cc:	e1803001 	orr	r3, r0, r1
    e5d0:	e3130003 	tst	r3, #3
    e5d4:	1a000027 	bne	e678 <memmove+0x124>
    e5d8:	e2426010 	sub	r6, r2, #16
    e5dc:	e1a06226 	lsr	r6, r6, #4
    e5e0:	e0805206 	add	r5, r0, r6, lsl #4
    e5e4:	e2855010 	add	r5, r5, #16
    e5e8:	e1a0c001 	mov	ip, r1
    e5ec:	e1a03000 	mov	r3, r0
    e5f0:	e59c4000 	ldr	r4, [ip]
    e5f4:	e5834000 	str	r4, [r3]
    e5f8:	e59c4004 	ldr	r4, [ip, #4]
    e5fc:	e5834004 	str	r4, [r3, #4]
    e600:	e59c4008 	ldr	r4, [ip, #8]
    e604:	e5834008 	str	r4, [r3, #8]
    e608:	e59c400c 	ldr	r4, [ip, #12]
    e60c:	e2833010 	add	r3, r3, #16
    e610:	e5034004 	str	r4, [r3, #-4]
    e614:	e1530005 	cmp	r3, r5
    e618:	e28cc010 	add	ip, ip, #16
    e61c:	1afffff3 	bne	e5f0 <memmove+0x9c>
    e620:	e2863001 	add	r3, r6, #1
    e624:	e202700f 	and	r7, r2, #15
    e628:	e1a03203 	lsl	r3, r3, #4
    e62c:	e3570003 	cmp	r7, #3
    e630:	e0811003 	add	r1, r1, r3
    e634:	e0803003 	add	r3, r0, r3
    e638:	9a000010 	bls	e680 <memmove+0x12c>
    e63c:	e1a05001 	mov	r5, r1
    e640:	e1a04003 	mov	r4, r3
    e644:	e1a0c007 	mov	ip, r7
    e648:	e24cc004 	sub	ip, ip, #4
    e64c:	e4956004 	ldr	r6, [r5], #4
    e650:	e35c0003 	cmp	ip, #3
    e654:	e4846004 	str	r6, [r4], #4
    e658:	8afffffa 	bhi	e648 <memmove+0xf4>
    e65c:	e247c004 	sub	ip, r7, #4
    e660:	e3ccc003 	bic	ip, ip, #3
    e664:	e28cc004 	add	ip, ip, #4
    e668:	e083300c 	add	r3, r3, ip
    e66c:	e081100c 	add	r1, r1, ip
    e670:	e2022003 	and	r2, r2, #3
    e674:	eaffffcb 	b	e5a8 <memmove+0x54>
    e678:	e1a03000 	mov	r3, r0
    e67c:	eaffffcb 	b	e5b0 <memmove+0x5c>
    e680:	e1a02007 	mov	r2, r7
    e684:	eaffffc7 	b	e5a8 <memmove+0x54>

0000e688 <memset>:
    e688:	e3100003 	tst	r0, #3
    e68c:	e92d0070 	push	{r4, r5, r6}
    e690:	0a000037 	beq	e774 <memset+0xec>
    e694:	e3520000 	cmp	r2, #0
    e698:	e2422001 	sub	r2, r2, #1
    e69c:	0a000032 	beq	e76c <memset+0xe4>
    e6a0:	e201c0ff 	and	ip, r1, #255	; 0xff
    e6a4:	e1a03000 	mov	r3, r0
    e6a8:	ea000002 	b	e6b8 <memset+0x30>
    e6ac:	e3520000 	cmp	r2, #0
    e6b0:	e2422001 	sub	r2, r2, #1
    e6b4:	0a00002c 	beq	e76c <memset+0xe4>
    e6b8:	e4c3c001 	strb	ip, [r3], #1
    e6bc:	e3130003 	tst	r3, #3
    e6c0:	1afffff9 	bne	e6ac <memset+0x24>
    e6c4:	e3520003 	cmp	r2, #3
    e6c8:	9a000020 	bls	e750 <memset+0xc8>
    e6cc:	e20140ff 	and	r4, r1, #255	; 0xff
    e6d0:	e1844404 	orr	r4, r4, r4, lsl #8
    e6d4:	e352000f 	cmp	r2, #15
    e6d8:	e1844804 	orr	r4, r4, r4, lsl #16
    e6dc:	9a000010 	bls	e724 <memset+0x9c>
    e6e0:	e2426010 	sub	r6, r2, #16
    e6e4:	e1a06226 	lsr	r6, r6, #4
    e6e8:	e2835010 	add	r5, r3, #16
    e6ec:	e0855206 	add	r5, r5, r6, lsl #4
    e6f0:	e1a0c003 	mov	ip, r3
    e6f4:	e58c4000 	str	r4, [ip]
    e6f8:	e58c4004 	str	r4, [ip, #4]
    e6fc:	e58c4008 	str	r4, [ip, #8]
    e700:	e58c400c 	str	r4, [ip, #12]
    e704:	e28cc010 	add	ip, ip, #16
    e708:	e15c0005 	cmp	ip, r5
    e70c:	1afffff8 	bne	e6f4 <memset+0x6c>
    e710:	e202200f 	and	r2, r2, #15
    e714:	e2866001 	add	r6, r6, #1
    e718:	e3520003 	cmp	r2, #3
    e71c:	e0833206 	add	r3, r3, r6, lsl #4
    e720:	9a00000a 	bls	e750 <memset+0xc8>
    e724:	e1a05003 	mov	r5, r3
    e728:	e1a0c002 	mov	ip, r2
    e72c:	e24cc004 	sub	ip, ip, #4
    e730:	e35c0003 	cmp	ip, #3
    e734:	e4854004 	str	r4, [r5], #4
    e738:	8afffffb 	bhi	e72c <memset+0xa4>
    e73c:	e242c004 	sub	ip, r2, #4
    e740:	e3ccc003 	bic	ip, ip, #3
    e744:	e28cc004 	add	ip, ip, #4
    e748:	e083300c 	add	r3, r3, ip
    e74c:	e2022003 	and	r2, r2, #3
    e750:	e3520000 	cmp	r2, #0
    e754:	120110ff 	andne	r1, r1, #255	; 0xff
    e758:	10832002 	addne	r2, r3, r2
    e75c:	0a000002 	beq	e76c <memset+0xe4>
    e760:	e4c31001 	strb	r1, [r3], #1
    e764:	e1530002 	cmp	r3, r2
    e768:	1afffffc 	bne	e760 <memset+0xd8>
    e76c:	e8bd0070 	pop	{r4, r5, r6}
    e770:	e12fff1e 	bx	lr
    e774:	e1a03000 	mov	r3, r0
    e778:	eaffffd1 	b	e6c4 <memset+0x3c>

0000e77c <__malloc_lock>:
    e77c:	e12fff1e 	bx	lr

0000e780 <__malloc_unlock>:
    e780:	e12fff1e 	bx	lr

0000e784 <_Balloc>:
    e784:	e590204c 	ldr	r2, [r0, #76]	; 0x4c
    e788:	e3520000 	cmp	r2, #0
    e78c:	e92d4070 	push	{r4, r5, r6, lr}
    e790:	e1a05000 	mov	r5, r0
    e794:	e1a04001 	mov	r4, r1
    e798:	0a000009 	beq	e7c4 <_Balloc+0x40>
    e79c:	e7920104 	ldr	r0, [r2, r4, lsl #2]
    e7a0:	e3500000 	cmp	r0, #0
    e7a4:	0a00000f 	beq	e7e8 <_Balloc+0x64>
    e7a8:	e5901000 	ldr	r1, [r0]
    e7ac:	e7821104 	str	r1, [r2, r4, lsl #2]
    e7b0:	e3a02000 	mov	r2, #0
    e7b4:	e5802010 	str	r2, [r0, #16]
    e7b8:	e580200c 	str	r2, [r0, #12]
    e7bc:	e8bd4070 	pop	{r4, r5, r6, lr}
    e7c0:	e12fff1e 	bx	lr
    e7c4:	e3a02021 	mov	r2, #33	; 0x21
    e7c8:	e3a01004 	mov	r1, #4
    e7cc:	eb000aba 	bl	112bc <_calloc_r>
    e7d0:	e3500000 	cmp	r0, #0
    e7d4:	e585004c 	str	r0, [r5, #76]	; 0x4c
    e7d8:	11a02000 	movne	r2, r0
    e7dc:	1affffee 	bne	e79c <_Balloc+0x18>
    e7e0:	e3a00000 	mov	r0, #0
    e7e4:	eafffff4 	b	e7bc <_Balloc+0x38>
    e7e8:	e3a01001 	mov	r1, #1
    e7ec:	e1a06411 	lsl	r6, r1, r4
    e7f0:	e2862005 	add	r2, r6, #5
    e7f4:	e1a00005 	mov	r0, r5
    e7f8:	e1a02102 	lsl	r2, r2, #2
    e7fc:	eb000aae 	bl	112bc <_calloc_r>
    e800:	e3500000 	cmp	r0, #0
    e804:	0afffff5 	beq	e7e0 <_Balloc+0x5c>
    e808:	e9800050 	stmib	r0, {r4, r6}
    e80c:	eaffffe7 	b	e7b0 <_Balloc+0x2c>

0000e810 <_Bfree>:
    e810:	e3510000 	cmp	r1, #0
    e814:	1590304c 	ldrne	r3, [r0, #76]	; 0x4c
    e818:	15912004 	ldrne	r2, [r1, #4]
    e81c:	17930102 	ldrne	r0, [r3, r2, lsl #2]
    e820:	15810000 	strne	r0, [r1]
    e824:	17831102 	strne	r1, [r3, r2, lsl #2]
    e828:	e12fff1e 	bx	lr

0000e82c <__multadd>:
    e82c:	e92d43f0 	push	{r4, r5, r6, r7, r8, r9, lr}
    e830:	e5917010 	ldr	r7, [r1, #16]
    e834:	e24dd00c 	sub	sp, sp, #12
    e838:	e1a08001 	mov	r8, r1
    e83c:	e1a09000 	mov	r9, r0
    e840:	e2814014 	add	r4, r1, #20
    e844:	e3a0c000 	mov	ip, #0
    e848:	e5946000 	ldr	r6, [r4]
    e84c:	e1a05806 	lsl	r5, r6, #16
    e850:	e1a05825 	lsr	r5, r5, #16
    e854:	e0253592 	mla	r5, r2, r5, r3
    e858:	e1a03826 	lsr	r3, r6, #16
    e85c:	e0030392 	mul	r3, r2, r3
    e860:	e1a01805 	lsl	r1, r5, #16
    e864:	e0833825 	add	r3, r3, r5, lsr #16
    e868:	e28cc001 	add	ip, ip, #1
    e86c:	e1a01821 	lsr	r1, r1, #16
    e870:	e0811803 	add	r1, r1, r3, lsl #16
    e874:	e157000c 	cmp	r7, ip
    e878:	e4841004 	str	r1, [r4], #4
    e87c:	e1a03823 	lsr	r3, r3, #16
    e880:	cafffff0 	bgt	e848 <__multadd+0x1c>
    e884:	e3530000 	cmp	r3, #0
    e888:	0a000006 	beq	e8a8 <__multadd+0x7c>
    e88c:	e5982008 	ldr	r2, [r8, #8]
    e890:	e1570002 	cmp	r7, r2
    e894:	aa000007 	bge	e8b8 <__multadd+0x8c>
    e898:	e0882107 	add	r2, r8, r7, lsl #2
    e89c:	e2877001 	add	r7, r7, #1
    e8a0:	e5823014 	str	r3, [r2, #20]
    e8a4:	e5887010 	str	r7, [r8, #16]
    e8a8:	e1a00008 	mov	r0, r8
    e8ac:	e28dd00c 	add	sp, sp, #12
    e8b0:	e8bd43f0 	pop	{r4, r5, r6, r7, r8, r9, lr}
    e8b4:	e12fff1e 	bx	lr
    e8b8:	e5981004 	ldr	r1, [r8, #4]
    e8bc:	e1a00009 	mov	r0, r9
    e8c0:	e2811001 	add	r1, r1, #1
    e8c4:	e58d3004 	str	r3, [sp, #4]
    e8c8:	ebffffad 	bl	e784 <_Balloc>
    e8cc:	e5982010 	ldr	r2, [r8, #16]
    e8d0:	e2822002 	add	r2, r2, #2
    e8d4:	e288100c 	add	r1, r8, #12
    e8d8:	e1a04000 	mov	r4, r0
    e8dc:	e1a02102 	lsl	r2, r2, #2
    e8e0:	e280000c 	add	r0, r0, #12
    e8e4:	ebfffede 	bl	e464 <memcpy>
    e8e8:	e599204c 	ldr	r2, [r9, #76]	; 0x4c
    e8ec:	e5981004 	ldr	r1, [r8, #4]
    e8f0:	e7920101 	ldr	r0, [r2, r1, lsl #2]
    e8f4:	e59d3004 	ldr	r3, [sp, #4]
    e8f8:	e5880000 	str	r0, [r8]
    e8fc:	e7828101 	str	r8, [r2, r1, lsl #2]
    e900:	e1a08004 	mov	r8, r4
    e904:	eaffffe3 	b	e898 <__multadd+0x6c>

0000e908 <__s2b>:
    e908:	e92d43f8 	push	{r3, r4, r5, r6, r7, r8, r9, lr}
    e90c:	e1a08003 	mov	r8, r3
    e910:	e59f30d4 	ldr	r3, [pc, #212]	; e9ec <__s2b+0xe4>
    e914:	e288c008 	add	ip, r8, #8
    e918:	e0c3e39c 	smull	lr, r3, ip, r3
    e91c:	e1a0cfcc 	asr	ip, ip, #31
    e920:	e06c30c3 	rsb	r3, ip, r3, asr #1
    e924:	e3530001 	cmp	r3, #1
    e928:	e1a05000 	mov	r5, r0
    e92c:	e1a04001 	mov	r4, r1
    e930:	e1a07002 	mov	r7, r2
    e934:	e59d6020 	ldr	r6, [sp, #32]
    e938:	da000029 	ble	e9e4 <__s2b+0xdc>
    e93c:	e3a0c001 	mov	ip, #1
    e940:	e3a01000 	mov	r1, #0
    e944:	e1a0c08c 	lsl	ip, ip, #1
    e948:	e153000c 	cmp	r3, ip
    e94c:	e2811001 	add	r1, r1, #1
    e950:	cafffffb 	bgt	e944 <__s2b+0x3c>
    e954:	e1a00005 	mov	r0, r5
    e958:	ebffff89 	bl	e784 <_Balloc>
    e95c:	e3570009 	cmp	r7, #9
    e960:	e3a03001 	mov	r3, #1
    e964:	e5806014 	str	r6, [r0, #20]
    e968:	e5803010 	str	r3, [r0, #16]
    e96c:	d284400a 	addle	r4, r4, #10
    e970:	d3a07009 	movle	r7, #9
    e974:	da00000c 	ble	e9ac <__s2b+0xa4>
    e978:	e2849009 	add	r9, r4, #9
    e97c:	e1a06009 	mov	r6, r9
    e980:	e0844007 	add	r4, r4, r7
    e984:	e4d63001 	ldrb	r3, [r6], #1
    e988:	e1a01000 	mov	r1, r0
    e98c:	e2433030 	sub	r3, r3, #48	; 0x30
    e990:	e1a00005 	mov	r0, r5
    e994:	e3a0200a 	mov	r2, #10
    e998:	ebffffa3 	bl	e82c <__multadd>
    e99c:	e1560004 	cmp	r6, r4
    e9a0:	1afffff7 	bne	e984 <__s2b+0x7c>
    e9a4:	e0894007 	add	r4, r9, r7
    e9a8:	e2444008 	sub	r4, r4, #8
    e9ac:	e1580007 	cmp	r8, r7
    e9b0:	da000009 	ble	e9dc <__s2b+0xd4>
    e9b4:	e0677008 	rsb	r7, r7, r8
    e9b8:	e0847007 	add	r7, r4, r7
    e9bc:	e4d43001 	ldrb	r3, [r4], #1
    e9c0:	e1a01000 	mov	r1, r0
    e9c4:	e2433030 	sub	r3, r3, #48	; 0x30
    e9c8:	e1a00005 	mov	r0, r5
    e9cc:	e3a0200a 	mov	r2, #10
    e9d0:	ebffff95 	bl	e82c <__multadd>
    e9d4:	e1540007 	cmp	r4, r7
    e9d8:	1afffff7 	bne	e9bc <__s2b+0xb4>
    e9dc:	e8bd43f8 	pop	{r3, r4, r5, r6, r7, r8, r9, lr}
    e9e0:	e12fff1e 	bx	lr
    e9e4:	e3a01000 	mov	r1, #0
    e9e8:	eaffffd9 	b	e954 <__s2b+0x4c>
    e9ec:	38e38e39 	.word	0x38e38e39

0000e9f0 <__hi0bits>:
    e9f0:	e1b03820 	lsrs	r3, r0, #16
    e9f4:	01a00800 	lsleq	r0, r0, #16
    e9f8:	03a03010 	moveq	r3, #16
    e9fc:	13a03000 	movne	r3, #0
    ea00:	e31004ff 	tst	r0, #-16777216	; 0xff000000
    ea04:	01a00400 	lsleq	r0, r0, #8
    ea08:	02833008 	addeq	r3, r3, #8
    ea0c:	e310020f 	tst	r0, #-268435456	; 0xf0000000
    ea10:	01a00200 	lsleq	r0, r0, #4
    ea14:	02833004 	addeq	r3, r3, #4
    ea18:	e3100103 	tst	r0, #-1073741824	; 0xc0000000
    ea1c:	01a00100 	lsleq	r0, r0, #2
    ea20:	02833002 	addeq	r3, r3, #2
    ea24:	e3500000 	cmp	r0, #0
    ea28:	ba000005 	blt	ea44 <__hi0bits+0x54>
    ea2c:	e3100101 	tst	r0, #1073741824	; 0x40000000
    ea30:	1a000001 	bne	ea3c <__hi0bits+0x4c>
    ea34:	e3a00020 	mov	r0, #32
    ea38:	e12fff1e 	bx	lr
    ea3c:	e2830001 	add	r0, r3, #1
    ea40:	e12fff1e 	bx	lr
    ea44:	e1a00003 	mov	r0, r3
    ea48:	e12fff1e 	bx	lr

0000ea4c <__lo0bits>:
    ea4c:	e5903000 	ldr	r3, [r0]
    ea50:	e2132007 	ands	r2, r3, #7
    ea54:	0a000009 	beq	ea80 <__lo0bits+0x34>
    ea58:	e3130001 	tst	r3, #1
    ea5c:	1a00001d 	bne	ead8 <__lo0bits+0x8c>
    ea60:	e3130002 	tst	r3, #2
    ea64:	11a030a3 	lsrne	r3, r3, #1
    ea68:	01a03123 	lsreq	r3, r3, #2
    ea6c:	15803000 	strne	r3, [r0]
    ea70:	05803000 	streq	r3, [r0]
    ea74:	13a00001 	movne	r0, #1
    ea78:	03a00002 	moveq	r0, #2
    ea7c:	e12fff1e 	bx	lr
    ea80:	e1b01803 	lsls	r1, r3, #16
    ea84:	01a03823 	lsreq	r3, r3, #16
    ea88:	03a02010 	moveq	r2, #16
    ea8c:	e31300ff 	tst	r3, #255	; 0xff
    ea90:	01a03423 	lsreq	r3, r3, #8
    ea94:	02822008 	addeq	r2, r2, #8
    ea98:	e313000f 	tst	r3, #15
    ea9c:	01a03223 	lsreq	r3, r3, #4
    eaa0:	02822004 	addeq	r2, r2, #4
    eaa4:	e3130003 	tst	r3, #3
    eaa8:	01a03123 	lsreq	r3, r3, #2
    eaac:	02822002 	addeq	r2, r2, #2
    eab0:	e3130001 	tst	r3, #1
    eab4:	1a000004 	bne	eacc <__lo0bits+0x80>
    eab8:	e1b030a3 	lsrs	r3, r3, #1
    eabc:	1a000001 	bne	eac8 <__lo0bits+0x7c>
    eac0:	e3a00020 	mov	r0, #32
    eac4:	e12fff1e 	bx	lr
    eac8:	e2822001 	add	r2, r2, #1
    eacc:	e5803000 	str	r3, [r0]
    ead0:	e1a00002 	mov	r0, r2
    ead4:	e12fff1e 	bx	lr
    ead8:	e3a00000 	mov	r0, #0
    eadc:	e12fff1e 	bx	lr

0000eae0 <__i2b>:
    eae0:	e92d4010 	push	{r4, lr}
    eae4:	e1a04001 	mov	r4, r1
    eae8:	e3a01001 	mov	r1, #1
    eaec:	ebffff24 	bl	e784 <_Balloc>
    eaf0:	e3a02001 	mov	r2, #1
    eaf4:	e5804014 	str	r4, [r0, #20]
    eaf8:	e5802010 	str	r2, [r0, #16]
    eafc:	e8bd4010 	pop	{r4, lr}
    eb00:	e12fff1e 	bx	lr

0000eb04 <__multiply>:
    eb04:	e92d4ff0 	push	{r4, r5, r6, r7, r8, r9, sl, fp, lr}
    eb08:	e5919010 	ldr	r9, [r1, #16]
    eb0c:	e592a010 	ldr	sl, [r2, #16]
    eb10:	e159000a 	cmp	r9, sl
    eb14:	e24dd014 	sub	sp, sp, #20
    eb18:	e1a08001 	mov	r8, r1
    eb1c:	e1a06002 	mov	r6, r2
    eb20:	aa000004 	bge	eb38 <__multiply+0x34>
    eb24:	e1a02009 	mov	r2, r9
    eb28:	e1a08006 	mov	r8, r6
    eb2c:	e1a0900a 	mov	r9, sl
    eb30:	e1a06001 	mov	r6, r1
    eb34:	e1a0a002 	mov	sl, r2
    eb38:	e5983008 	ldr	r3, [r8, #8]
    eb3c:	e089500a 	add	r5, r9, sl
    eb40:	e5981004 	ldr	r1, [r8, #4]
    eb44:	e1550003 	cmp	r5, r3
    eb48:	c2811001 	addgt	r1, r1, #1
    eb4c:	ebffff0c 	bl	e784 <_Balloc>
    eb50:	e2804014 	add	r4, r0, #20
    eb54:	e0847105 	add	r7, r4, r5, lsl #2
    eb58:	e1540007 	cmp	r4, r7
    eb5c:	e58d0004 	str	r0, [sp, #4]
    eb60:	31a03004 	movcc	r3, r4
    eb64:	33a00000 	movcc	r0, #0
    eb68:	2a000002 	bcs	eb78 <__multiply+0x74>
    eb6c:	e4830004 	str	r0, [r3], #4
    eb70:	e1570003 	cmp	r7, r3
    eb74:	8afffffc 	bhi	eb6c <__multiply+0x68>
    eb78:	e2866014 	add	r6, r6, #20
    eb7c:	e086a10a 	add	sl, r6, sl, lsl #2
    eb80:	e156000a 	cmp	r6, sl
    eb84:	e2888014 	add	r8, r8, #20
    eb88:	358d7008 	strcc	r7, [sp, #8]
    eb8c:	358d500c 	strcc	r5, [sp, #12]
    eb90:	e088c109 	add	ip, r8, r9, lsl #2
    eb94:	31a0700a 	movcc	r7, sl
    eb98:	31a05008 	movcc	r5, r8
    eb9c:	2a000040 	bcs	eca4 <__multiply+0x1a0>
    eba0:	e4968004 	ldr	r8, [r6], #4
    eba4:	e1a09808 	lsl	r9, r8, #16
    eba8:	e1b09829 	lsrs	r9, r9, #16
    ebac:	0a00001b 	beq	ec20 <__multiply+0x11c>
    ebb0:	e3a08000 	mov	r8, #0
    ebb4:	e1a02005 	mov	r2, r5
    ebb8:	e1a03004 	mov	r3, r4
    ebbc:	e1a0a008 	mov	sl, r8
    ebc0:	ea000000 	b	ebc8 <__multiply+0xc4>
    ebc4:	e1a03001 	mov	r3, r1
    ebc8:	e4920004 	ldr	r0, [r2], #4
    ebcc:	e5931000 	ldr	r1, [r3]
    ebd0:	e1a0b800 	lsl	fp, r0, #16
    ebd4:	e1a08801 	lsl	r8, r1, #16
    ebd8:	e1a0b82b 	lsr	fp, fp, #16
    ebdc:	e1a08828 	lsr	r8, r8, #16
    ebe0:	e0288b99 	mla	r8, r9, fp, r8
    ebe4:	e1a00820 	lsr	r0, r0, #16
    ebe8:	e1a01821 	lsr	r1, r1, #16
    ebec:	e0211099 	mla	r1, r9, r0, r1
    ebf0:	e088800a 	add	r8, r8, sl
    ebf4:	e1a00808 	lsl	r0, r8, #16
    ebf8:	e1a00820 	lsr	r0, r0, #16
    ebfc:	e0818828 	add	r8, r1, r8, lsr #16
    ec00:	e1800808 	orr	r0, r0, r8, lsl #16
    ec04:	e1a01003 	mov	r1, r3
    ec08:	e15c0002 	cmp	ip, r2
    ec0c:	e1a0a828 	lsr	sl, r8, #16
    ec10:	e4810004 	str	r0, [r1], #4
    ec14:	8affffea 	bhi	ebc4 <__multiply+0xc0>
    ec18:	e583a004 	str	sl, [r3, #4]
    ec1c:	e5168004 	ldr	r8, [r6, #-4]
    ec20:	e1b08828 	lsrs	r8, r8, #16
    ec24:	0a000019 	beq	ec90 <__multiply+0x18c>
    ec28:	e5949000 	ldr	r9, [r4]
    ec2c:	e3a0a000 	mov	sl, #0
    ec30:	e1a02004 	mov	r2, r4
    ec34:	e1a00009 	mov	r0, r9
    ec38:	e1a03005 	mov	r3, r5
    ec3c:	e1a0100a 	mov	r1, sl
    ec40:	e1d3a0b0 	ldrh	sl, [r3]
    ec44:	e1a00820 	lsr	r0, r0, #16
    ec48:	e02a0a98 	mla	sl, r8, sl, r0
    ec4c:	e1a09809 	lsl	r9, r9, #16
    ec50:	e08aa001 	add	sl, sl, r1
    ec54:	e1a09829 	lsr	r9, r9, #16
    ec58:	e189980a 	orr	r9, r9, sl, lsl #16
    ec5c:	e5829000 	str	r9, [r2]
    ec60:	e1a0b002 	mov	fp, r2
    ec64:	e5b20004 	ldr	r0, [r2, #4]!
    ec68:	e4939004 	ldr	r9, [r3], #4
    ec6c:	e1a01800 	lsl	r1, r0, #16
    ec70:	e1a01821 	lsr	r1, r1, #16
    ec74:	e1a09829 	lsr	r9, r9, #16
    ec78:	e0291998 	mla	r9, r8, r9, r1
    ec7c:	e15c0003 	cmp	ip, r3
    ec80:	e089982a 	add	r9, r9, sl, lsr #16
    ec84:	e1a01829 	lsr	r1, r9, #16
    ec88:	8affffec 	bhi	ec40 <__multiply+0x13c>
    ec8c:	e58b9004 	str	r9, [fp, #4]
    ec90:	e1570006 	cmp	r7, r6
    ec94:	e2844004 	add	r4, r4, #4
    ec98:	8affffc0 	bhi	eba0 <__multiply+0x9c>
    ec9c:	e59d7008 	ldr	r7, [sp, #8]
    eca0:	e59d500c 	ldr	r5, [sp, #12]
    eca4:	e3550000 	cmp	r5, #0
    eca8:	da000009 	ble	ecd4 <__multiply+0x1d0>
    ecac:	e5173004 	ldr	r3, [r7, #-4]
    ecb0:	e3530000 	cmp	r3, #0
    ecb4:	e2477004 	sub	r7, r7, #4
    ecb8:	0a000003 	beq	eccc <__multiply+0x1c8>
    ecbc:	ea000004 	b	ecd4 <__multiply+0x1d0>
    ecc0:	e5373004 	ldr	r3, [r7, #-4]!
    ecc4:	e3530000 	cmp	r3, #0
    ecc8:	1a000001 	bne	ecd4 <__multiply+0x1d0>
    eccc:	e2555001 	subs	r5, r5, #1
    ecd0:	1afffffa 	bne	ecc0 <__multiply+0x1bc>
    ecd4:	e59d3004 	ldr	r3, [sp, #4]
    ecd8:	e1a00003 	mov	r0, r3
    ecdc:	e5835010 	str	r5, [r3, #16]
    ece0:	e28dd014 	add	sp, sp, #20
    ece4:	e8bd4ff0 	pop	{r4, r5, r6, r7, r8, r9, sl, fp, lr}
    ece8:	e12fff1e 	bx	lr

0000ecec <__pow5mult>:
    ecec:	e2123003 	ands	r3, r2, #3
    ecf0:	e92d41f0 	push	{r4, r5, r6, r7, r8, lr}
    ecf4:	e1a04002 	mov	r4, r2
    ecf8:	e1a07000 	mov	r7, r0
    ecfc:	e1a06001 	mov	r6, r1
    ed00:	1a000025 	bne	ed9c <__pow5mult+0xb0>
    ed04:	e1b04144 	asrs	r4, r4, #2
    ed08:	0a000019 	beq	ed74 <__pow5mult+0x88>
    ed0c:	e5975048 	ldr	r5, [r7, #72]	; 0x48
    ed10:	e3550000 	cmp	r5, #0
    ed14:	0a000027 	beq	edb8 <__pow5mult+0xcc>
    ed18:	e3a08000 	mov	r8, #0
    ed1c:	ea000005 	b	ed38 <__pow5mult+0x4c>
    ed20:	e1b040c4 	asrs	r4, r4, #1
    ed24:	0a000012 	beq	ed74 <__pow5mult+0x88>
    ed28:	e5950000 	ldr	r0, [r5]
    ed2c:	e3500000 	cmp	r0, #0
    ed30:	0a000012 	beq	ed80 <__pow5mult+0x94>
    ed34:	e1a05000 	mov	r5, r0
    ed38:	e3140001 	tst	r4, #1
    ed3c:	0afffff7 	beq	ed20 <__pow5mult+0x34>
    ed40:	e1a01006 	mov	r1, r6
    ed44:	e1a02005 	mov	r2, r5
    ed48:	e1a00007 	mov	r0, r7
    ed4c:	ebffff6c 	bl	eb04 <__multiply>
    ed50:	e3560000 	cmp	r6, #0
    ed54:	15962004 	ldrne	r2, [r6, #4]
    ed58:	1597304c 	ldrne	r3, [r7, #76]	; 0x4c
    ed5c:	17931102 	ldrne	r1, [r3, r2, lsl #2]
    ed60:	15861000 	strne	r1, [r6]
    ed64:	17836102 	strne	r6, [r3, r2, lsl #2]
    ed68:	e1b040c4 	asrs	r4, r4, #1
    ed6c:	e1a06000 	mov	r6, r0
    ed70:	1affffec 	bne	ed28 <__pow5mult+0x3c>
    ed74:	e1a00006 	mov	r0, r6
    ed78:	e8bd41f0 	pop	{r4, r5, r6, r7, r8, lr}
    ed7c:	e12fff1e 	bx	lr
    ed80:	e1a00007 	mov	r0, r7
    ed84:	e1a01005 	mov	r1, r5
    ed88:	e1a02005 	mov	r2, r5
    ed8c:	ebffff5c 	bl	eb04 <__multiply>
    ed90:	e5850000 	str	r0, [r5]
    ed94:	e5808000 	str	r8, [r0]
    ed98:	eaffffe5 	b	ed34 <__pow5mult+0x48>
    ed9c:	e59f2044 	ldr	r2, [pc, #68]	; ede8 <__pow5mult+0xfc>
    eda0:	e2433001 	sub	r3, r3, #1
    eda4:	e7922103 	ldr	r2, [r2, r3, lsl #2]
    eda8:	e3a03000 	mov	r3, #0
    edac:	ebfffe9e 	bl	e82c <__multadd>
    edb0:	e1a06000 	mov	r6, r0
    edb4:	eaffffd2 	b	ed04 <__pow5mult+0x18>
    edb8:	e3a01001 	mov	r1, #1
    edbc:	e1a00007 	mov	r0, r7
    edc0:	ebfffe6f 	bl	e784 <_Balloc>
    edc4:	e59f1020 	ldr	r1, [pc, #32]	; edec <__pow5mult+0x100>
    edc8:	e3a02001 	mov	r2, #1
    edcc:	e3a03000 	mov	r3, #0
    edd0:	e5801014 	str	r1, [r0, #20]
    edd4:	e5802010 	str	r2, [r0, #16]
    edd8:	e1a05000 	mov	r5, r0
    eddc:	e5870048 	str	r0, [r7, #72]	; 0x48
    ede0:	e5803000 	str	r3, [r0]
    ede4:	eaffffcb 	b	ed18 <__pow5mult+0x2c>
    ede8:	00012998 	.word	0x00012998
    edec:	00000271 	.word	0x00000271

0000edf0 <__lshift>:
    edf0:	e92d47f0 	push	{r4, r5, r6, r7, r8, r9, sl, lr}
    edf4:	e5918010 	ldr	r8, [r1, #16]
    edf8:	e1a092c2 	asr	r9, r2, #5
    edfc:	e5913008 	ldr	r3, [r1, #8]
    ee00:	e0898008 	add	r8, r9, r8
    ee04:	e2885001 	add	r5, r8, #1
    ee08:	e1550003 	cmp	r5, r3
    ee0c:	e1a06001 	mov	r6, r1
    ee10:	e1a0a002 	mov	sl, r2
    ee14:	e1a07000 	mov	r7, r0
    ee18:	e5911004 	ldr	r1, [r1, #4]
    ee1c:	da000003 	ble	ee30 <__lshift+0x40>
    ee20:	e1a03083 	lsl	r3, r3, #1
    ee24:	e1550003 	cmp	r5, r3
    ee28:	e2811001 	add	r1, r1, #1
    ee2c:	cafffffb 	bgt	ee20 <__lshift+0x30>
    ee30:	e1a00007 	mov	r0, r7
    ee34:	ebfffe52 	bl	e784 <_Balloc>
    ee38:	e3590000 	cmp	r9, #0
    ee3c:	e280c014 	add	ip, r0, #20
    ee40:	da000007 	ble	ee64 <__lshift+0x74>
    ee44:	e3a03000 	mov	r3, #0
    ee48:	e1a02003 	mov	r2, r3
    ee4c:	e1a0400c 	mov	r4, ip
    ee50:	e2833001 	add	r3, r3, #1
    ee54:	e1530009 	cmp	r3, r9
    ee58:	e4842004 	str	r2, [r4], #4
    ee5c:	1afffffb 	bne	ee50 <__lshift+0x60>
    ee60:	e08cc103 	add	ip, ip, r3, lsl #2
    ee64:	e5961010 	ldr	r1, [r6, #16]
    ee68:	e2863014 	add	r3, r6, #20
    ee6c:	e21aa01f 	ands	sl, sl, #31
    ee70:	e0831101 	add	r1, r3, r1, lsl #2
    ee74:	0a000017 	beq	eed8 <__lshift+0xe8>
    ee78:	e26a9020 	rsb	r9, sl, #32
    ee7c:	e3a02000 	mov	r2, #0
    ee80:	ea000000 	b	ee88 <__lshift+0x98>
    ee84:	e1a0c004 	mov	ip, r4
    ee88:	e5934000 	ldr	r4, [r3]
    ee8c:	e1822a14 	orr	r2, r2, r4, lsl sl
    ee90:	e1a0400c 	mov	r4, ip
    ee94:	e4842004 	str	r2, [r4], #4
    ee98:	e4932004 	ldr	r2, [r3], #4
    ee9c:	e1530001 	cmp	r3, r1
    eea0:	e1a02932 	lsr	r2, r2, r9
    eea4:	3afffff6 	bcc	ee84 <__lshift+0x94>
    eea8:	e3520000 	cmp	r2, #0
    eeac:	e58c2004 	str	r2, [ip, #4]
    eeb0:	12885002 	addne	r5, r8, #2
    eeb4:	e597304c 	ldr	r3, [r7, #76]	; 0x4c
    eeb8:	e5962004 	ldr	r2, [r6, #4]
    eebc:	e7931102 	ldr	r1, [r3, r2, lsl #2]
    eec0:	e2455001 	sub	r5, r5, #1
    eec4:	e5805010 	str	r5, [r0, #16]
    eec8:	e5861000 	str	r1, [r6]
    eecc:	e7836102 	str	r6, [r3, r2, lsl #2]
    eed0:	e8bd47f0 	pop	{r4, r5, r6, r7, r8, r9, sl, lr}
    eed4:	e12fff1e 	bx	lr
    eed8:	e4932004 	ldr	r2, [r3], #4
    eedc:	e1510003 	cmp	r1, r3
    eee0:	e48c2004 	str	r2, [ip], #4
    eee4:	9afffff2 	bls	eeb4 <__lshift+0xc4>
    eee8:	e4932004 	ldr	r2, [r3], #4
    eeec:	e1510003 	cmp	r1, r3
    eef0:	e48c2004 	str	r2, [ip], #4
    eef4:	8afffff7 	bhi	eed8 <__lshift+0xe8>
    eef8:	eaffffed 	b	eeb4 <__lshift+0xc4>

0000eefc <__mcmp>:
    eefc:	e5902010 	ldr	r2, [r0, #16]
    ef00:	e5913010 	ldr	r3, [r1, #16]
    ef04:	e0522003 	subs	r2, r2, r3
    ef08:	1a00000f 	bne	ef4c <__mcmp+0x50>
    ef0c:	e1a03103 	lsl	r3, r3, #2
    ef10:	e2800014 	add	r0, r0, #20
    ef14:	e2811014 	add	r1, r1, #20
    ef18:	e0811003 	add	r1, r1, r3
    ef1c:	e0803003 	add	r3, r0, r3
    ef20:	ea000001 	b	ef2c <__mcmp+0x30>
    ef24:	e1500003 	cmp	r0, r3
    ef28:	2a000009 	bcs	ef54 <__mcmp+0x58>
    ef2c:	e5332004 	ldr	r2, [r3, #-4]!
    ef30:	e531c004 	ldr	ip, [r1, #-4]!
    ef34:	e152000c 	cmp	r2, ip
    ef38:	0afffff9 	beq	ef24 <__mcmp+0x28>
    ef3c:	e15c0002 	cmp	ip, r2
    ef40:	93a00001 	movls	r0, #1
    ef44:	83e00000 	mvnhi	r0, #0
    ef48:	e12fff1e 	bx	lr
    ef4c:	e1a00002 	mov	r0, r2
    ef50:	e12fff1e 	bx	lr
    ef54:	e3a00000 	mov	r0, #0
    ef58:	e12fff1e 	bx	lr

0000ef5c <__mdiff>:
    ef5c:	e92d47f0 	push	{r4, r5, r6, r7, r8, r9, sl, lr}
    ef60:	e1a05001 	mov	r5, r1
    ef64:	e1a06000 	mov	r6, r0
    ef68:	e1a01002 	mov	r1, r2
    ef6c:	e1a00005 	mov	r0, r5
    ef70:	e1a04002 	mov	r4, r2
    ef74:	ebffffe0 	bl	eefc <__mcmp>
    ef78:	e2507000 	subs	r7, r0, #0
    ef7c:	0a00003f 	beq	f080 <__mdiff+0x124>
    ef80:	b1a03005 	movlt	r3, r5
    ef84:	b1a05004 	movlt	r5, r4
    ef88:	e1a00006 	mov	r0, r6
    ef8c:	e5951004 	ldr	r1, [r5, #4]
    ef90:	b1a04003 	movlt	r4, r3
    ef94:	a3a08000 	movge	r8, #0
    ef98:	b3a08001 	movlt	r8, #1
    ef9c:	ebfffdf8 	bl	e784 <_Balloc>
    efa0:	e5949010 	ldr	r9, [r4, #16]
    efa4:	e5957010 	ldr	r7, [r5, #16]
    efa8:	e285c014 	add	ip, r5, #20
    efac:	e2844014 	add	r4, r4, #20
    efb0:	e580800c 	str	r8, [r0, #12]
    efb4:	e2803014 	add	r3, r0, #20
    efb8:	e08c8107 	add	r8, ip, r7, lsl #2
    efbc:	e0849109 	add	r9, r4, r9, lsl #2
    efc0:	e3a02000 	mov	r2, #0
    efc4:	e49c5004 	ldr	r5, [ip], #4
    efc8:	e4946004 	ldr	r6, [r4], #4
    efcc:	e1a01805 	lsl	r1, r5, #16
    efd0:	e0822821 	add	r2, r2, r1, lsr #16
    efd4:	e1a0a806 	lsl	sl, r6, #16
    efd8:	e042182a 	sub	r1, r2, sl, lsr #16
    efdc:	e1a02826 	lsr	r2, r6, #16
    efe0:	e0622825 	rsb	r2, r2, r5, lsr #16
    efe4:	e1a05801 	lsl	r5, r1, #16
    efe8:	e0822841 	add	r2, r2, r1, asr #16
    efec:	e1a05825 	lsr	r5, r5, #16
    eff0:	e1855802 	orr	r5, r5, r2, lsl #16
    eff4:	e1590004 	cmp	r9, r4
    eff8:	e4835004 	str	r5, [r3], #4
    effc:	e1a02842 	asr	r2, r2, #16
    f000:	e1a0100c 	mov	r1, ip
    f004:	8affffee 	bhi	efc4 <__mdiff+0x68>
    f008:	e158000c 	cmp	r8, ip
    f00c:	e1a06003 	mov	r6, r3
    f010:	9a000010 	bls	f058 <__mdiff+0xfc>
    f014:	e4914004 	ldr	r4, [r1], #4
    f018:	e1a05804 	lsl	r5, r4, #16
    f01c:	e0822825 	add	r2, r2, r5, lsr #16
    f020:	e1a05802 	lsl	r5, r2, #16
    f024:	e1a04824 	lsr	r4, r4, #16
    f028:	e0842842 	add	r2, r4, r2, asr #16
    f02c:	e1a05825 	lsr	r5, r5, #16
    f030:	e1855802 	orr	r5, r5, r2, lsl #16
    f034:	e1580001 	cmp	r8, r1
    f038:	e4835004 	str	r5, [r3], #4
    f03c:	e1a02842 	asr	r2, r2, #16
    f040:	8afffff3 	bhi	f014 <__mdiff+0xb8>
    f044:	e1e0300c 	mvn	r3, ip
    f048:	e0833008 	add	r3, r3, r8
    f04c:	e3c33003 	bic	r3, r3, #3
    f050:	e2833004 	add	r3, r3, #4
    f054:	e0863003 	add	r3, r6, r3
    f058:	e3550000 	cmp	r5, #0
    f05c:	e2433004 	sub	r3, r3, #4
    f060:	1a000003 	bne	f074 <__mdiff+0x118>
    f064:	e5332004 	ldr	r2, [r3, #-4]!
    f068:	e3520000 	cmp	r2, #0
    f06c:	e2477001 	sub	r7, r7, #1
    f070:	0afffffb 	beq	f064 <__mdiff+0x108>
    f074:	e5807010 	str	r7, [r0, #16]
    f078:	e8bd47f0 	pop	{r4, r5, r6, r7, r8, r9, sl, lr}
    f07c:	e12fff1e 	bx	lr
    f080:	e1a00006 	mov	r0, r6
    f084:	e1a01007 	mov	r1, r7
    f088:	ebfffdbd 	bl	e784 <_Balloc>
    f08c:	e3a03001 	mov	r3, #1
    f090:	e5807014 	str	r7, [r0, #20]
    f094:	e5803010 	str	r3, [r0, #16]
    f098:	e8bd47f0 	pop	{r4, r5, r6, r7, r8, r9, sl, lr}
    f09c:	e12fff1e 	bx	lr

0000f0a0 <__ulp>:
    f0a0:	ec532b10 	vmov	r2, r3, d0
    f0a4:	e3c33102 	bic	r3, r3, #-2147483648	; 0x80000000
    f0a8:	e1a03a23 	lsr	r3, r3, #20
    f0ac:	e1a03a03 	lsl	r3, r3, #20
    f0b0:	e243150d 	sub	r1, r3, #54525952	; 0x3400000
    f0b4:	e3510000 	cmp	r1, #0
    f0b8:	da000003 	ble	f0cc <__ulp+0x2c>
    f0bc:	e1a03001 	mov	r3, r1
    f0c0:	e3a02000 	mov	r2, #0
    f0c4:	ec432b10 	vmov	d0, r2, r3
    f0c8:	e12fff1e 	bx	lr
    f0cc:	e2611000 	rsb	r1, r1, #0
    f0d0:	e1a01a41 	asr	r1, r1, #20
    f0d4:	e3510013 	cmp	r1, #19
    f0d8:	da000008 	ble	f100 <__ulp+0x60>
    f0dc:	e3510032 	cmp	r1, #50	; 0x32
    f0e0:	d2611033 	rsble	r1, r1, #51	; 0x33
    f0e4:	d3a00001 	movle	r0, #1
    f0e8:	d1a01110 	lslle	r1, r0, r1
    f0ec:	c3a01001 	movgt	r1, #1
    f0f0:	e3a03000 	mov	r3, #0
    f0f4:	e1a02001 	mov	r2, r1
    f0f8:	ec432b10 	vmov	d0, r2, r3
    f0fc:	e12fff1e 	bx	lr
    f100:	e3a00702 	mov	r0, #524288	; 0x80000
    f104:	e1a03150 	asr	r3, r0, r1
    f108:	e3a02000 	mov	r2, #0
    f10c:	ec432b10 	vmov	d0, r2, r3
    f110:	e12fff1e 	bx	lr

0000f114 <__b2d>:
    f114:	e92d40f8 	push	{r3, r4, r5, r6, r7, lr}
    f118:	e5904010 	ldr	r4, [r0, #16]
    f11c:	e2806014 	add	r6, r0, #20
    f120:	e0864104 	add	r4, r6, r4, lsl #2
    f124:	e5145004 	ldr	r5, [r4, #-4]
    f128:	e1a00005 	mov	r0, r5
    f12c:	e1a07001 	mov	r7, r1
    f130:	ebfffe2e 	bl	e9f0 <__hi0bits>
    f134:	e2603020 	rsb	r3, r0, #32
    f138:	e350000a 	cmp	r0, #10
    f13c:	e5873000 	str	r3, [r7]
    f140:	e2441004 	sub	r1, r4, #4
    f144:	ca00000c 	bgt	f17c <__b2d+0x68>
    f148:	e260c00b 	rsb	ip, r0, #11
    f14c:	e1a03c35 	lsr	r3, r5, ip
    f150:	e1560001 	cmp	r6, r1
    f154:	e38315ff 	orr	r1, r3, #1069547520	; 0x3fc00000
    f158:	e3813603 	orr	r3, r1, #3145728	; 0x300000
    f15c:	35141008 	ldrcc	r1, [r4, #-8]
    f160:	31a0cc31 	lsrcc	ip, r1, ip
    f164:	23a0c000 	movcs	ip, #0
    f168:	e2800015 	add	r0, r0, #21
    f16c:	e18c2015 	orr	r2, ip, r5, lsl r0
    f170:	ec432b10 	vmov	d0, r2, r3
    f174:	e8bd40f8 	pop	{r3, r4, r5, r6, r7, lr}
    f178:	e12fff1e 	bx	lr
    f17c:	e1560001 	cmp	r6, r1
    f180:	32441008 	subcc	r1, r4, #8
    f184:	3514c008 	ldrcc	ip, [r4, #-8]
    f188:	23a0c000 	movcs	ip, #0
    f18c:	e250400b 	subs	r4, r0, #11
    f190:	0a00000c 	beq	f1c8 <__b2d+0xb4>
    f194:	e1a05415 	lsl	r5, r5, r4
    f198:	e1510006 	cmp	r1, r6
    f19c:	e38555ff 	orr	r5, r5, #1069547520	; 0x3fc00000
    f1a0:	85111004 	ldrhi	r1, [r1, #-4]
    f1a4:	e260002b 	rsb	r0, r0, #43	; 0x2b
    f1a8:	e3855603 	orr	r5, r5, #3145728	; 0x300000
    f1ac:	e185303c 	orr	r3, r5, ip, lsr r0
    f1b0:	81a00031 	lsrhi	r0, r1, r0
    f1b4:	93a00000 	movls	r0, #0
    f1b8:	e180241c 	orr	r2, r0, ip, lsl r4
    f1bc:	ec432b10 	vmov	d0, r2, r3
    f1c0:	e8bd40f8 	pop	{r3, r4, r5, r6, r7, lr}
    f1c4:	e12fff1e 	bx	lr
    f1c8:	e38555ff 	orr	r5, r5, #1069547520	; 0x3fc00000
    f1cc:	e3853603 	orr	r3, r5, #3145728	; 0x300000
    f1d0:	e1a0200c 	mov	r2, ip
    f1d4:	ec432b10 	vmov	d0, r2, r3
    f1d8:	e8bd40f8 	pop	{r3, r4, r5, r6, r7, lr}
    f1dc:	e12fff1e 	bx	lr

0000f1e0 <__d2b>:
    f1e0:	e92d43f0 	push	{r4, r5, r6, r7, r8, r9, lr}
    f1e4:	ec554b10 	vmov	r4, r5, d0
    f1e8:	e24dd00c 	sub	sp, sp, #12
    f1ec:	e1a08001 	mov	r8, r1
    f1f0:	e3a01001 	mov	r1, #1
    f1f4:	e1a07002 	mov	r7, r2
    f1f8:	ebfffd61 	bl	e784 <_Balloc>
    f1fc:	e3c53102 	bic	r3, r5, #-2147483648	; 0x80000000
    f200:	e1b09a23 	lsrs	r9, r3, #20
    f204:	e3c534ff 	bic	r3, r5, #-16777216	; 0xff000000
    f208:	e3c3360f 	bic	r3, r3, #15728640	; 0xf00000
    f20c:	13833601 	orrne	r3, r3, #1048576	; 0x100000
    f210:	e3540000 	cmp	r4, #0
    f214:	e1a06000 	mov	r6, r0
    f218:	e58d3004 	str	r3, [sp, #4]
    f21c:	0a00001e 	beq	f29c <__d2b+0xbc>
    f220:	e28d0008 	add	r0, sp, #8
    f224:	e5204008 	str	r4, [r0, #-8]!
    f228:	e1a0000d 	mov	r0, sp
    f22c:	ebfffe06 	bl	ea4c <__lo0bits>
    f230:	e89d000c 	ldm	sp, {r2, r3}
    f234:	e3500000 	cmp	r0, #0
    f238:	12601020 	rsbne	r1, r0, #32
    f23c:	11822113 	orrne	r2, r2, r3, lsl r1
    f240:	11a03033 	lsrne	r3, r3, r0
    f244:	15862014 	strne	r2, [r6, #20]
    f248:	158d3004 	strne	r3, [sp, #4]
    f24c:	05862014 	streq	r2, [r6, #20]
    f250:	e3530000 	cmp	r3, #0
    f254:	03a04001 	moveq	r4, #1
    f258:	13a04002 	movne	r4, #2
    f25c:	e3590000 	cmp	r9, #0
    f260:	e5863018 	str	r3, [r6, #24]
    f264:	e5864010 	str	r4, [r6, #16]
    f268:	1a000014 	bne	f2c0 <__d2b+0xe0>
    f26c:	e2400e43 	sub	r0, r0, #1072	; 0x430
    f270:	e0863104 	add	r3, r6, r4, lsl #2
    f274:	e2400002 	sub	r0, r0, #2
    f278:	e5880000 	str	r0, [r8]
    f27c:	e5930010 	ldr	r0, [r3, #16]
    f280:	ebfffdda 	bl	e9f0 <__hi0bits>
    f284:	e0600284 	rsb	r0, r0, r4, lsl #5
    f288:	e5870000 	str	r0, [r7]
    f28c:	e1a00006 	mov	r0, r6
    f290:	e28dd00c 	add	sp, sp, #12
    f294:	e8bd43f0 	pop	{r4, r5, r6, r7, r8, r9, lr}
    f298:	e12fff1e 	bx	lr
    f29c:	e28d0004 	add	r0, sp, #4
    f2a0:	ebfffde9 	bl	ea4c <__lo0bits>
    f2a4:	e59d3004 	ldr	r3, [sp, #4]
    f2a8:	e3a04001 	mov	r4, #1
    f2ac:	e3590000 	cmp	r9, #0
    f2b0:	e5863014 	str	r3, [r6, #20]
    f2b4:	e5864010 	str	r4, [r6, #16]
    f2b8:	e2800020 	add	r0, r0, #32
    f2bc:	0affffea 	beq	f26c <__d2b+0x8c>
    f2c0:	e2499e43 	sub	r9, r9, #1072	; 0x430
    f2c4:	e2499003 	sub	r9, r9, #3
    f2c8:	e0899000 	add	r9, r9, r0
    f2cc:	e2600035 	rsb	r0, r0, #53	; 0x35
    f2d0:	e5889000 	str	r9, [r8]
    f2d4:	e5870000 	str	r0, [r7]
    f2d8:	e1a00006 	mov	r0, r6
    f2dc:	e28dd00c 	add	sp, sp, #12
    f2e0:	e8bd43f0 	pop	{r4, r5, r6, r7, r8, r9, lr}
    f2e4:	e12fff1e 	bx	lr

0000f2e8 <__ratio>:
    f2e8:	e92d4030 	push	{r4, r5, lr}
    f2ec:	ed2d8b02 	vpush	{d8}
    f2f0:	e24dd00c 	sub	sp, sp, #12
    f2f4:	e1a04001 	mov	r4, r1
    f2f8:	e1a0100d 	mov	r1, sp
    f2fc:	e1a05000 	mov	r5, r0
    f300:	ebffff83 	bl	f114 <__b2d>
    f304:	e1a00004 	mov	r0, r4
    f308:	e28d1004 	add	r1, sp, #4
    f30c:	eeb08b40 	vmov.f64	d8, d0
    f310:	ebffff7f 	bl	f114 <__b2d>
    f314:	e5941010 	ldr	r1, [r4, #16]
    f318:	e89d000c 	ldm	sp, {r2, r3}
    f31c:	e595c010 	ldr	ip, [r5, #16]
    f320:	e0633002 	rsb	r3, r3, r2
    f324:	e061c00c 	rsb	ip, r1, ip
    f328:	e083c28c 	add	ip, r3, ip, lsl #5
    f32c:	ec510b10 	vmov	r0, r1, d0
    f330:	ec532b18 	vmov	r2, r3, d8
    f334:	e35c0000 	cmp	ip, #0
    f338:	c0833a0c 	addgt	r3, r3, ip, lsl #20
    f33c:	d0411a0c 	suble	r1, r1, ip, lsl #20
    f340:	cc432b18 	vmovgt	d8, r2, r3
    f344:	dc410b10 	vmovle	d0, r0, r1
    f348:	ee880b00 	vdiv.f64	d0, d8, d0
    f34c:	e28dd00c 	add	sp, sp, #12
    f350:	ecbd8b02 	vpop	{d8}
    f354:	e8bd4030 	pop	{r4, r5, lr}
    f358:	e12fff1e 	bx	lr
    f35c:	00000000 	andeq	r0, r0, r0

0000f360 <_mprec_log10>:
    f360:	e3500017 	cmp	r0, #23
    f364:	da000005 	ble	f380 <_mprec_log10+0x20>
    f368:	ed9f0b08 	vldr	d0, [pc, #32]	; f390 <_mprec_log10+0x30>
    f36c:	ed9f7b09 	vldr	d7, [pc, #36]	; f398 <_mprec_log10+0x38>
    f370:	e2500001 	subs	r0, r0, #1
    f374:	ee200b07 	vmul.f64	d0, d0, d7
    f378:	1afffffc 	bne	f370 <_mprec_log10+0x10>
    f37c:	e12fff1e 	bx	lr
    f380:	e59f3018 	ldr	r3, [pc, #24]	; f3a0 <_mprec_log10+0x40>
    f384:	e0830180 	add	r0, r3, r0, lsl #3
    f388:	ed900b00 	vldr	d0, [r0]
    f38c:	e12fff1e 	bx	lr
    f390:	00000000 	.word	0x00000000
    f394:	3ff00000 	.word	0x3ff00000
    f398:	00000000 	.word	0x00000000
    f39c:	40240000 	.word	0x40240000
    f3a0:	000128a8 	.word	0x000128a8
    f3a4:	e1a00000 	nop			; (mov r0, r0)

0000f3a8 <__copybits>:
    f3a8:	e92d0030 	push	{r4, r5}
    f3ac:	e5924010 	ldr	r4, [r2, #16]
    f3b0:	e2823014 	add	r3, r2, #20
    f3b4:	e2411001 	sub	r1, r1, #1
    f3b8:	e1a052c1 	asr	r5, r1, #5
    f3bc:	e0834104 	add	r4, r3, r4, lsl #2
    f3c0:	e2855001 	add	r5, r5, #1
    f3c4:	e1530004 	cmp	r3, r4
    f3c8:	e0805105 	add	r5, r0, r5, lsl #2
    f3cc:	2a000009 	bcs	f3f8 <__copybits+0x50>
    f3d0:	e1a01000 	mov	r1, r0
    f3d4:	e493c004 	ldr	ip, [r3], #4
    f3d8:	e1540003 	cmp	r4, r3
    f3dc:	e481c004 	str	ip, [r1], #4
    f3e0:	8afffffb 	bhi	f3d4 <__copybits+0x2c>
    f3e4:	e0623004 	rsb	r3, r2, r4
    f3e8:	e2433015 	sub	r3, r3, #21
    f3ec:	e3c33003 	bic	r3, r3, #3
    f3f0:	e2833004 	add	r3, r3, #4
    f3f4:	e0800003 	add	r0, r0, r3
    f3f8:	e1550000 	cmp	r5, r0
    f3fc:	9a000003 	bls	f410 <__copybits+0x68>
    f400:	e3a03000 	mov	r3, #0
    f404:	e4803004 	str	r3, [r0], #4
    f408:	e1550000 	cmp	r5, r0
    f40c:	8afffffc 	bhi	f404 <__copybits+0x5c>
    f410:	e8bd0030 	pop	{r4, r5}
    f414:	e12fff1e 	bx	lr

0000f418 <__any_on>:
    f418:	e5903010 	ldr	r3, [r0, #16]
    f41c:	e1a022c1 	asr	r2, r1, #5
    f420:	e1530002 	cmp	r3, r2
    f424:	e2800014 	add	r0, r0, #20
    f428:	b0803103 	addlt	r3, r0, r3, lsl #2
    f42c:	ba00000a 	blt	f45c <__any_on+0x44>
    f430:	da000008 	ble	f458 <__any_on+0x40>
    f434:	e211101f 	ands	r1, r1, #31
    f438:	0a000006 	beq	f458 <__any_on+0x40>
    f43c:	e7903102 	ldr	r3, [r0, r2, lsl #2]
    f440:	e1a0c133 	lsr	ip, r3, r1
    f444:	e153011c 	cmp	r3, ip, lsl r1
    f448:	e0803102 	add	r3, r0, r2, lsl #2
    f44c:	0a000002 	beq	f45c <__any_on+0x44>
    f450:	e3a00001 	mov	r0, #1
    f454:	e12fff1e 	bx	lr
    f458:	e0803102 	add	r3, r0, r2, lsl #2
    f45c:	e1500003 	cmp	r0, r3
    f460:	2a000009 	bcs	f48c <__any_on+0x74>
    f464:	e5132004 	ldr	r2, [r3, #-4]
    f468:	e3520000 	cmp	r2, #0
    f46c:	e2433004 	sub	r3, r3, #4
    f470:	0a000003 	beq	f484 <__any_on+0x6c>
    f474:	eafffff5 	b	f450 <__any_on+0x38>
    f478:	e5332004 	ldr	r2, [r3, #-4]!
    f47c:	e3520000 	cmp	r2, #0
    f480:	1afffff2 	bne	f450 <__any_on+0x38>
    f484:	e1500003 	cmp	r0, r3
    f488:	3afffffa 	bcc	f478 <__any_on+0x60>
    f48c:	e3a00000 	mov	r0, #0
    f490:	e12fff1e 	bx	lr

0000f494 <_realloc_r>:
    f494:	e92d4ff0 	push	{r4, r5, r6, r7, r8, r9, sl, fp, lr}
    f498:	e2514000 	subs	r4, r1, #0
    f49c:	e24dd00c 	sub	sp, sp, #12
    f4a0:	e1a08002 	mov	r8, r2
    f4a4:	e1a09000 	mov	r9, r0
    f4a8:	0a0000d1 	beq	f7f4 <_realloc_r+0x360>
    f4ac:	ebfffcb2 	bl	e77c <__malloc_lock>
    f4b0:	e288600b 	add	r6, r8, #11
    f4b4:	e3560016 	cmp	r6, #22
    f4b8:	83c66007 	bichi	r6, r6, #7
    f4bc:	93a02010 	movls	r2, #16
    f4c0:	81a00fa6 	lsrhi	r0, r6, #31
    f4c4:	91a06002 	movls	r6, r2
    f4c8:	93a00000 	movls	r0, #0
    f4cc:	e5143004 	ldr	r3, [r4, #-4]
    f4d0:	81a02006 	movhi	r2, r6
    f4d4:	e1560008 	cmp	r6, r8
    f4d8:	33800001 	orrcc	r0, r0, #1
    f4dc:	e3500000 	cmp	r0, #0
    f4e0:	e3c35003 	bic	r5, r3, #3
    f4e4:	13a0300c 	movne	r3, #12
    f4e8:	e2447008 	sub	r7, r4, #8
    f4ec:	15893000 	strne	r3, [r9]
    f4f0:	13a00000 	movne	r0, #0
    f4f4:	1a000056 	bne	f654 <_realloc_r+0x1c0>
    f4f8:	e1550002 	cmp	r5, r2
    f4fc:	aa000047 	bge	f620 <_realloc_r+0x18c>
    f500:	e59fa4f4 	ldr	sl, [pc, #1268]	; f9fc <_realloc_r+0x568>
    f504:	e59ac008 	ldr	ip, [sl, #8]
    f508:	e0871005 	add	r1, r7, r5
    f50c:	e15c0001 	cmp	ip, r1
    f510:	0a0000bc 	beq	f808 <_realloc_r+0x374>
    f514:	e591e004 	ldr	lr, [r1, #4]
    f518:	e3ceb001 	bic	fp, lr, #1
    f51c:	e081b00b 	add	fp, r1, fp
    f520:	e59bb004 	ldr	fp, [fp, #4]
    f524:	e31b0001 	tst	fp, #1
    f528:	11a01000 	movne	r1, r0
    f52c:	0a000058 	beq	f694 <_realloc_r+0x200>
    f530:	e3130001 	tst	r3, #1
    f534:	1a00008d 	bne	f770 <_realloc_r+0x2dc>
    f538:	e514b008 	ldr	fp, [r4, #-8]
    f53c:	e06bb007 	rsb	fp, fp, r7
    f540:	e59b3004 	ldr	r3, [fp, #4]
    f544:	e3510000 	cmp	r1, #0
    f548:	e3c33003 	bic	r3, r3, #3
    f54c:	e0833005 	add	r3, r3, r5
    f550:	0a000059 	beq	f6bc <_realloc_r+0x228>
    f554:	e151000c 	cmp	r1, ip
    f558:	e080c003 	add	ip, r0, r3
    f55c:	0a0000de 	beq	f8dc <_realloc_r+0x448>
    f560:	e15c0002 	cmp	ip, r2
    f564:	ba000054 	blt	f6bc <_realloc_r+0x228>
    f568:	e2812008 	add	r2, r1, #8
    f56c:	e892000c 	ldm	r2, {r2, r3}
    f570:	e582300c 	str	r3, [r2, #12]
    f574:	e5832008 	str	r2, [r3, #8]
    f578:	e1a0700b 	mov	r7, fp
    f57c:	e59b300c 	ldr	r3, [fp, #12]
    f580:	e5b71008 	ldr	r1, [r7, #8]!
    f584:	e2452004 	sub	r2, r5, #4
    f588:	e3520024 	cmp	r2, #36	; 0x24
    f58c:	e581300c 	str	r3, [r1, #12]
    f590:	e5831008 	str	r1, [r3, #8]
    f594:	8a00010a 	bhi	f9c4 <_realloc_r+0x530>
    f598:	e3520013 	cmp	r2, #19
    f59c:	91a03007 	movls	r3, r7
    f5a0:	9a000014 	bls	f5f8 <_realloc_r+0x164>
    f5a4:	e5943000 	ldr	r3, [r4]
    f5a8:	e58b3008 	str	r3, [fp, #8]
    f5ac:	e5943004 	ldr	r3, [r4, #4]
    f5b0:	e352001b 	cmp	r2, #27
    f5b4:	e58b300c 	str	r3, [fp, #12]
    f5b8:	92844008 	addls	r4, r4, #8
    f5bc:	928b3010 	addls	r3, fp, #16
    f5c0:	9a00000c 	bls	f5f8 <_realloc_r+0x164>
    f5c4:	e5943008 	ldr	r3, [r4, #8]
    f5c8:	e58b3010 	str	r3, [fp, #16]
    f5cc:	e594300c 	ldr	r3, [r4, #12]
    f5d0:	e58b3014 	str	r3, [fp, #20]
    f5d4:	e3520024 	cmp	r2, #36	; 0x24
    f5d8:	05943010 	ldreq	r3, [r4, #16]
    f5dc:	058b3018 	streq	r3, [fp, #24]
    f5e0:	05942014 	ldreq	r2, [r4, #20]
    f5e4:	058b201c 	streq	r2, [fp, #28]
    f5e8:	12844010 	addne	r4, r4, #16
    f5ec:	128b3018 	addne	r3, fp, #24
    f5f0:	028b3020 	addeq	r3, fp, #32
    f5f4:	02844018 	addeq	r4, r4, #24
    f5f8:	e5942000 	ldr	r2, [r4]
    f5fc:	e5832000 	str	r2, [r3]
    f600:	e5942004 	ldr	r2, [r4, #4]
    f604:	e5832004 	str	r2, [r3, #4]
    f608:	e5942008 	ldr	r2, [r4, #8]
    f60c:	e5832008 	str	r2, [r3, #8]
    f610:	e59b3004 	ldr	r3, [fp, #4]
    f614:	e1a04007 	mov	r4, r7
    f618:	e1a0500c 	mov	r5, ip
    f61c:	e1a0700b 	mov	r7, fp
    f620:	e0662005 	rsb	r2, r6, r5
    f624:	e352000f 	cmp	r2, #15
    f628:	e2033001 	and	r3, r3, #1
    f62c:	8a00000b 	bhi	f660 <_realloc_r+0x1cc>
    f630:	e1833005 	orr	r3, r3, r5
    f634:	e5873004 	str	r3, [r7, #4]
    f638:	e0875005 	add	r5, r7, r5
    f63c:	e5953004 	ldr	r3, [r5, #4]
    f640:	e3833001 	orr	r3, r3, #1
    f644:	e5853004 	str	r3, [r5, #4]
    f648:	e1a00009 	mov	r0, r9
    f64c:	ebfffc4b 	bl	e780 <__malloc_unlock>
    f650:	e1a00004 	mov	r0, r4
    f654:	e28dd00c 	add	sp, sp, #12
    f658:	e8bd4ff0 	pop	{r4, r5, r6, r7, r8, r9, sl, fp, lr}
    f65c:	e12fff1e 	bx	lr
    f660:	e0871006 	add	r1, r7, r6
    f664:	e1833006 	orr	r3, r3, r6
    f668:	e3820001 	orr	r0, r2, #1
    f66c:	e5873004 	str	r3, [r7, #4]
    f670:	e5810004 	str	r0, [r1, #4]
    f674:	e0812002 	add	r2, r1, r2
    f678:	e5923004 	ldr	r3, [r2, #4]
    f67c:	e3833001 	orr	r3, r3, #1
    f680:	e2811008 	add	r1, r1, #8
    f684:	e5823004 	str	r3, [r2, #4]
    f688:	e1a00009 	mov	r0, r9
    f68c:	ebfff6b5 	bl	d168 <_free_r>
    f690:	eaffffec 	b	f648 <_realloc_r+0x1b4>
    f694:	e3ce0003 	bic	r0, lr, #3
    f698:	e080e005 	add	lr, r0, r5
    f69c:	e15e0002 	cmp	lr, r2
    f6a0:	baffffa2 	blt	f530 <_realloc_r+0x9c>
    f6a4:	e2811008 	add	r1, r1, #8
    f6a8:	e8910006 	ldm	r1, {r1, r2}
    f6ac:	e1a0500e 	mov	r5, lr
    f6b0:	e581200c 	str	r2, [r1, #12]
    f6b4:	e5821008 	str	r1, [r2, #8]
    f6b8:	eaffffd8 	b	f620 <_realloc_r+0x18c>
    f6bc:	e1530002 	cmp	r3, r2
    f6c0:	ba00002a 	blt	f770 <_realloc_r+0x2dc>
    f6c4:	e1a0700b 	mov	r7, fp
    f6c8:	e5b70008 	ldr	r0, [r7, #8]!
    f6cc:	e59b100c 	ldr	r1, [fp, #12]
    f6d0:	e2452004 	sub	r2, r5, #4
    f6d4:	e3520024 	cmp	r2, #36	; 0x24
    f6d8:	e580100c 	str	r1, [r0, #12]
    f6dc:	e5810008 	str	r0, [r1, #8]
    f6e0:	8a000072 	bhi	f8b0 <_realloc_r+0x41c>
    f6e4:	e3520013 	cmp	r2, #19
    f6e8:	91a02007 	movls	r2, r7
    f6ec:	9a000014 	bls	f744 <_realloc_r+0x2b0>
    f6f0:	e5941000 	ldr	r1, [r4]
    f6f4:	e58b1008 	str	r1, [fp, #8]
    f6f8:	e5941004 	ldr	r1, [r4, #4]
    f6fc:	e352001b 	cmp	r2, #27
    f700:	e58b100c 	str	r1, [fp, #12]
    f704:	92844008 	addls	r4, r4, #8
    f708:	928b2010 	addls	r2, fp, #16
    f70c:	9a00000c 	bls	f744 <_realloc_r+0x2b0>
    f710:	e5941008 	ldr	r1, [r4, #8]
    f714:	e58b1010 	str	r1, [fp, #16]
    f718:	e594100c 	ldr	r1, [r4, #12]
    f71c:	e58b1014 	str	r1, [fp, #20]
    f720:	e3520024 	cmp	r2, #36	; 0x24
    f724:	05942010 	ldreq	r2, [r4, #16]
    f728:	058b2018 	streq	r2, [fp, #24]
    f72c:	05941014 	ldreq	r1, [r4, #20]
    f730:	058b101c 	streq	r1, [fp, #28]
    f734:	12844010 	addne	r4, r4, #16
    f738:	128b2018 	addne	r2, fp, #24
    f73c:	028b2020 	addeq	r2, fp, #32
    f740:	02844018 	addeq	r4, r4, #24
    f744:	e5941000 	ldr	r1, [r4]
    f748:	e5821000 	str	r1, [r2]
    f74c:	e5941004 	ldr	r1, [r4, #4]
    f750:	e5821004 	str	r1, [r2, #4]
    f754:	e5941008 	ldr	r1, [r4, #8]
    f758:	e5821008 	str	r1, [r2, #8]
    f75c:	e1a04007 	mov	r4, r7
    f760:	e1a05003 	mov	r5, r3
    f764:	e1a0700b 	mov	r7, fp
    f768:	e59b3004 	ldr	r3, [fp, #4]
    f76c:	eaffffab 	b	f620 <_realloc_r+0x18c>
    f770:	e1a01008 	mov	r1, r8
    f774:	e1a00009 	mov	r0, r9
    f778:	ebfff921 	bl	dc04 <_malloc_r>
    f77c:	e2508000 	subs	r8, r0, #0
    f780:	0a000015 	beq	f7dc <_realloc_r+0x348>
    f784:	e5143004 	ldr	r3, [r4, #-4]
    f788:	e3c32001 	bic	r2, r3, #1
    f78c:	e0872002 	add	r2, r7, r2
    f790:	e2481008 	sub	r1, r8, #8
    f794:	e1510002 	cmp	r1, r2
    f798:	0a000085 	beq	f9b4 <_realloc_r+0x520>
    f79c:	e2452004 	sub	r2, r5, #4
    f7a0:	e3520024 	cmp	r2, #36	; 0x24
    f7a4:	8a000049 	bhi	f8d0 <_realloc_r+0x43c>
    f7a8:	e3520013 	cmp	r2, #19
    f7ac:	91a03008 	movls	r3, r8
    f7b0:	91a02004 	movls	r2, r4
    f7b4:	8a000027 	bhi	f858 <_realloc_r+0x3c4>
    f7b8:	e5921000 	ldr	r1, [r2]
    f7bc:	e5831000 	str	r1, [r3]
    f7c0:	e5921004 	ldr	r1, [r2, #4]
    f7c4:	e5831004 	str	r1, [r3, #4]
    f7c8:	e5922008 	ldr	r2, [r2, #8]
    f7cc:	e5832008 	str	r2, [r3, #8]
    f7d0:	e1a01004 	mov	r1, r4
    f7d4:	e1a00009 	mov	r0, r9
    f7d8:	ebfff662 	bl	d168 <_free_r>
    f7dc:	e1a00009 	mov	r0, r9
    f7e0:	ebfffbe6 	bl	e780 <__malloc_unlock>
    f7e4:	e1a00008 	mov	r0, r8
    f7e8:	e28dd00c 	add	sp, sp, #12
    f7ec:	e8bd4ff0 	pop	{r4, r5, r6, r7, r8, r9, sl, fp, lr}
    f7f0:	e12fff1e 	bx	lr
    f7f4:	e1a01002 	mov	r1, r2
    f7f8:	ebfff901 	bl	dc04 <_malloc_r>
    f7fc:	e28dd00c 	add	sp, sp, #12
    f800:	e8bd4ff0 	pop	{r4, r5, r6, r7, r8, r9, sl, fp, lr}
    f804:	e12fff1e 	bx	lr
    f808:	e59c0004 	ldr	r0, [ip, #4]
    f80c:	e3c00003 	bic	r0, r0, #3
    f810:	e0801005 	add	r1, r0, r5
    f814:	e286e010 	add	lr, r6, #16
    f818:	e151000e 	cmp	r1, lr
    f81c:	b1a0100c 	movlt	r1, ip
    f820:	baffff42 	blt	f530 <_realloc_r+0x9c>
    f824:	e0663001 	rsb	r3, r6, r1
    f828:	e0877006 	add	r7, r7, r6
    f82c:	e3833001 	orr	r3, r3, #1
    f830:	e58a7008 	str	r7, [sl, #8]
    f834:	e5873004 	str	r3, [r7, #4]
    f838:	e5143004 	ldr	r3, [r4, #-4]
    f83c:	e2033001 	and	r3, r3, #1
    f840:	e1866003 	orr	r6, r6, r3
    f844:	e1a00009 	mov	r0, r9
    f848:	e5046004 	str	r6, [r4, #-4]
    f84c:	ebfffbcb 	bl	e780 <__malloc_unlock>
    f850:	e1a00004 	mov	r0, r4
    f854:	eaffff7e 	b	f654 <_realloc_r+0x1c0>
    f858:	e5943000 	ldr	r3, [r4]
    f85c:	e5883000 	str	r3, [r8]
    f860:	e5943004 	ldr	r3, [r4, #4]
    f864:	e352001b 	cmp	r2, #27
    f868:	e5883004 	str	r3, [r8, #4]
    f86c:	92842008 	addls	r2, r4, #8
    f870:	92883008 	addls	r3, r8, #8
    f874:	9affffcf 	bls	f7b8 <_realloc_r+0x324>
    f878:	e5943008 	ldr	r3, [r4, #8]
    f87c:	e5883008 	str	r3, [r8, #8]
    f880:	e594300c 	ldr	r3, [r4, #12]
    f884:	e588300c 	str	r3, [r8, #12]
    f888:	e3520024 	cmp	r2, #36	; 0x24
    f88c:	05943010 	ldreq	r3, [r4, #16]
    f890:	05883010 	streq	r3, [r8, #16]
    f894:	05942014 	ldreq	r2, [r4, #20]
    f898:	12883010 	addne	r3, r8, #16
    f89c:	05882014 	streq	r2, [r8, #20]
    f8a0:	12842010 	addne	r2, r4, #16
    f8a4:	02883018 	addeq	r3, r8, #24
    f8a8:	02842018 	addeq	r2, r4, #24
    f8ac:	eaffffc1 	b	f7b8 <_realloc_r+0x324>
    f8b0:	e1a01004 	mov	r1, r4
    f8b4:	e1a00007 	mov	r0, r7
    f8b8:	e1a05003 	mov	r5, r3
    f8bc:	e1a04007 	mov	r4, r7
    f8c0:	ebfffb23 	bl	e554 <memmove>
    f8c4:	e1a0700b 	mov	r7, fp
    f8c8:	e59b3004 	ldr	r3, [fp, #4]
    f8cc:	eaffff53 	b	f620 <_realloc_r+0x18c>
    f8d0:	e1a01004 	mov	r1, r4
    f8d4:	ebfffb1e 	bl	e554 <memmove>
    f8d8:	eaffffbc 	b	f7d0 <_realloc_r+0x33c>
    f8dc:	e2861010 	add	r1, r6, #16
    f8e0:	e15c0001 	cmp	ip, r1
    f8e4:	baffff74 	blt	f6bc <_realloc_r+0x228>
    f8e8:	e1a0700b 	mov	r7, fp
    f8ec:	e5b71008 	ldr	r1, [r7, #8]!
    f8f0:	e59b300c 	ldr	r3, [fp, #12]
    f8f4:	e2452004 	sub	r2, r5, #4
    f8f8:	e3520024 	cmp	r2, #36	; 0x24
    f8fc:	e581300c 	str	r3, [r1, #12]
    f900:	e5831008 	str	r1, [r3, #8]
    f904:	8a000036 	bhi	f9e4 <_realloc_r+0x550>
    f908:	e3520013 	cmp	r2, #19
    f90c:	91a03007 	movls	r3, r7
    f910:	9a000014 	bls	f968 <_realloc_r+0x4d4>
    f914:	e5943000 	ldr	r3, [r4]
    f918:	e58b3008 	str	r3, [fp, #8]
    f91c:	e5943004 	ldr	r3, [r4, #4]
    f920:	e352001b 	cmp	r2, #27
    f924:	e58b300c 	str	r3, [fp, #12]
    f928:	92844008 	addls	r4, r4, #8
    f92c:	928b3010 	addls	r3, fp, #16
    f930:	9a00000c 	bls	f968 <_realloc_r+0x4d4>
    f934:	e5943008 	ldr	r3, [r4, #8]
    f938:	e58b3010 	str	r3, [fp, #16]
    f93c:	e594300c 	ldr	r3, [r4, #12]
    f940:	e58b3014 	str	r3, [fp, #20]
    f944:	e3520024 	cmp	r2, #36	; 0x24
    f948:	05943010 	ldreq	r3, [r4, #16]
    f94c:	058b3018 	streq	r3, [fp, #24]
    f950:	05942014 	ldreq	r2, [r4, #20]
    f954:	058b201c 	streq	r2, [fp, #28]
    f958:	12844010 	addne	r4, r4, #16
    f95c:	128b3018 	addne	r3, fp, #24
    f960:	028b3020 	addeq	r3, fp, #32
    f964:	02844018 	addeq	r4, r4, #24
    f968:	e5942000 	ldr	r2, [r4]
    f96c:	e5832000 	str	r2, [r3]
    f970:	e5942004 	ldr	r2, [r4, #4]
    f974:	e5832004 	str	r2, [r3, #4]
    f978:	e5942008 	ldr	r2, [r4, #8]
    f97c:	e5832008 	str	r2, [r3, #8]
    f980:	e066200c 	rsb	r2, r6, ip
    f984:	e08b3006 	add	r3, fp, r6
    f988:	e3822001 	orr	r2, r2, #1
    f98c:	e58a3008 	str	r3, [sl, #8]
    f990:	e5832004 	str	r2, [r3, #4]
    f994:	e59b3004 	ldr	r3, [fp, #4]
    f998:	e2033001 	and	r3, r3, #1
    f99c:	e1866003 	orr	r6, r6, r3
    f9a0:	e1a00009 	mov	r0, r9
    f9a4:	e58b6004 	str	r6, [fp, #4]
    f9a8:	ebfffb74 	bl	e780 <__malloc_unlock>
    f9ac:	e1a00007 	mov	r0, r7
    f9b0:	eaffff27 	b	f654 <_realloc_r+0x1c0>
    f9b4:	e5182004 	ldr	r2, [r8, #-4]
    f9b8:	e3c22003 	bic	r2, r2, #3
    f9bc:	e0855002 	add	r5, r5, r2
    f9c0:	eaffff16 	b	f620 <_realloc_r+0x18c>
    f9c4:	e1a01004 	mov	r1, r4
    f9c8:	e1a00007 	mov	r0, r7
    f9cc:	e1a0500c 	mov	r5, ip
    f9d0:	e1a04007 	mov	r4, r7
    f9d4:	ebfffade 	bl	e554 <memmove>
    f9d8:	e1a0700b 	mov	r7, fp
    f9dc:	e59b3004 	ldr	r3, [fp, #4]
    f9e0:	eaffff0e 	b	f620 <_realloc_r+0x18c>
    f9e4:	e1a01004 	mov	r1, r4
    f9e8:	e1a00007 	mov	r0, r7
    f9ec:	e58dc004 	str	ip, [sp, #4]
    f9f0:	ebfffad7 	bl	e554 <memmove>
    f9f4:	e59dc004 	ldr	ip, [sp, #4]
    f9f8:	eaffffe0 	b	f980 <_realloc_r+0x4ec>
    f9fc:	00012eb0 	.word	0x00012eb0

0000fa00 <__fpclassifyd>:
    fa00:	ec532b10 	vmov	r2, r3, d0
    fa04:	e1921003 	orrs	r1, r2, r3
    fa08:	1a000001 	bne	fa14 <__fpclassifyd+0x14>
    fa0c:	e3a00002 	mov	r0, #2
    fa10:	e12fff1e 	bx	lr
    fa14:	e2721001 	rsbs	r1, r2, #1
    fa18:	33a01000 	movcc	r1, #0
    fa1c:	e3530102 	cmp	r3, #-2147483648	; 0x80000000
    fa20:	03520000 	cmpeq	r2, #0
    fa24:	0afffff8 	beq	fa0c <__fpclassifyd+0xc>
    fa28:	e3c33102 	bic	r3, r3, #-2147483648	; 0x80000000
    fa2c:	e59f2034 	ldr	r2, [pc, #52]	; fa68 <__fpclassifyd+0x68>
    fa30:	e2430601 	sub	r0, r3, #1048576	; 0x100000
    fa34:	e1500002 	cmp	r0, r2
    fa38:	8a000001 	bhi	fa44 <__fpclassifyd+0x44>
    fa3c:	e3a00004 	mov	r0, #4
    fa40:	e12fff1e 	bx	lr
    fa44:	e3530601 	cmp	r3, #1048576	; 0x100000
    fa48:	2a000001 	bcs	fa54 <__fpclassifyd+0x54>
    fa4c:	e3a00003 	mov	r0, #3
    fa50:	e12fff1e 	bx	lr
    fa54:	e59f0010 	ldr	r0, [pc, #16]	; fa6c <__fpclassifyd+0x6c>
    fa58:	e1530000 	cmp	r3, r0
    fa5c:	13a00000 	movne	r0, #0
    fa60:	02010001 	andeq	r0, r1, #1
    fa64:	e12fff1e 	bx	lr
    fa68:	7fdfffff 	.word	0x7fdfffff
    fa6c:	7ff00000 	.word	0x7ff00000

0000fa70 <_sbrk_r>:
    fa70:	e92d4038 	push	{r3, r4, r5, lr}
    fa74:	e59f4034 	ldr	r4, [pc, #52]	; fab0 <_sbrk_r+0x40>
    fa78:	e3a03000 	mov	r3, #0
    fa7c:	e1a05000 	mov	r5, r0
    fa80:	e1a00001 	mov	r0, r1
    fa84:	e5843000 	str	r3, [r4]
    fa88:	ebffe259 	bl	83f4 <_sbrk>
    fa8c:	e3700001 	cmn	r0, #1
    fa90:	0a000001 	beq	fa9c <_sbrk_r+0x2c>
    fa94:	e8bd4038 	pop	{r3, r4, r5, lr}
    fa98:	e12fff1e 	bx	lr
    fa9c:	e5943000 	ldr	r3, [r4]
    faa0:	e3530000 	cmp	r3, #0
    faa4:	15853000 	strne	r3, [r5]
    faa8:	e8bd4038 	pop	{r3, r4, r5, lr}
    faac:	e12fff1e 	bx	lr
    fab0:	00013478 	.word	0x00013478

0000fab4 <__sread>:
    fab4:	e92d4010 	push	{r4, lr}
    fab8:	e1a04001 	mov	r4, r1
    fabc:	e1d110fe 	ldrsh	r1, [r1, #14]
    fac0:	eb000706 	bl	116e0 <_read_r>
    fac4:	e3500000 	cmp	r0, #0
    fac8:	a5943050 	ldrge	r3, [r4, #80]	; 0x50
    facc:	b1d430bc 	ldrhlt	r3, [r4, #12]
    fad0:	a0833000 	addge	r3, r3, r0
    fad4:	b3c33a01 	biclt	r3, r3, #4096	; 0x1000
    fad8:	a5843050 	strge	r3, [r4, #80]	; 0x50
    fadc:	b1c430bc 	strhlt	r3, [r4, #12]
    fae0:	e8bd4010 	pop	{r4, lr}
    fae4:	e12fff1e 	bx	lr

0000fae8 <__seofread>:
    fae8:	e3a00000 	mov	r0, #0
    faec:	e12fff1e 	bx	lr

0000faf0 <__swrite>:
    faf0:	e92d40f8 	push	{r3, r4, r5, r6, r7, lr}
    faf4:	e1a04001 	mov	r4, r1
    faf8:	e1d110bc 	ldrh	r1, [r1, #12]
    fafc:	e3110c01 	tst	r1, #256	; 0x100
    fb00:	e1a06002 	mov	r6, r2
    fb04:	e1a05003 	mov	r5, r3
    fb08:	e1a07000 	mov	r7, r0
    fb0c:	0a000004 	beq	fb24 <__swrite+0x34>
    fb10:	e1d410fe 	ldrsh	r1, [r4, #14]
    fb14:	e3a02000 	mov	r2, #0
    fb18:	e3a03002 	mov	r3, #2
    fb1c:	eb0006de 	bl	1169c <_lseek_r>
    fb20:	e1d410bc 	ldrh	r1, [r4, #12]
    fb24:	e3c11a01 	bic	r1, r1, #4096	; 0x1000
    fb28:	e1c410bc 	strh	r1, [r4, #12]
    fb2c:	e1a00007 	mov	r0, r7
    fb30:	e1d410fe 	ldrsh	r1, [r4, #14]
    fb34:	e1a02006 	mov	r2, r6
    fb38:	e1a03005 	mov	r3, r5
    fb3c:	eb0005cd 	bl	11278 <_write_r>
    fb40:	e8bd40f8 	pop	{r3, r4, r5, r6, r7, lr}
    fb44:	e12fff1e 	bx	lr

0000fb48 <__sseek>:
    fb48:	e92d4010 	push	{r4, lr}
    fb4c:	e1a04001 	mov	r4, r1
    fb50:	e1d110fe 	ldrsh	r1, [r1, #14]
    fb54:	eb0006d0 	bl	1169c <_lseek_r>
    fb58:	e1d430bc 	ldrh	r3, [r4, #12]
    fb5c:	e3700001 	cmn	r0, #1
    fb60:	03c33a01 	biceq	r3, r3, #4096	; 0x1000
    fb64:	13833a01 	orrne	r3, r3, #4096	; 0x1000
    fb68:	15840050 	strne	r0, [r4, #80]	; 0x50
    fb6c:	e1c430bc 	strh	r3, [r4, #12]
    fb70:	e8bd4010 	pop	{r4, lr}
    fb74:	e12fff1e 	bx	lr

0000fb78 <__sclose>:
    fb78:	e92d4008 	push	{r3, lr}
    fb7c:	e1d110fe 	ldrsh	r1, [r1, #14]
    fb80:	eb0005f4 	bl	11358 <_close_r>
    fb84:	e8bd4008 	pop	{r3, lr}
    fb88:	e12fff1e 	bx	lr

0000fb8c <strcmp>:
    fb8c:	e0202001 	eor	r2, r0, r1
    fb90:	e3120003 	tst	r2, #3
    fb94:	1a000021 	bne	fc20 <strcmp+0x94>
    fb98:	e2102003 	ands	r2, r0, #3
    fb9c:	e3c00003 	bic	r0, r0, #3
    fba0:	e3c11003 	bic	r1, r1, #3
    fba4:	e490c004 	ldr	ip, [r0], #4
    fba8:	04913004 	ldreq	r3, [r1], #4
    fbac:	0a000006 	beq	fbcc <strcmp+0x40>
    fbb0:	e2222003 	eor	r2, r2, #3
    fbb4:	e1a02182 	lsl	r2, r2, #3
    fbb8:	e3e034ff 	mvn	r3, #-16777216	; 0xff000000
    fbbc:	e1a02233 	lsr	r2, r3, r2
    fbc0:	e4913004 	ldr	r3, [r1], #4
    fbc4:	e18cc002 	orr	ip, ip, r2
    fbc8:	e1833002 	orr	r3, r3, r2
    fbcc:	e52d4004 	push	{r4}		; (str r4, [sp, #-4]!)
    fbd0:	e3a04001 	mov	r4, #1
    fbd4:	e1844404 	orr	r4, r4, r4, lsl #8
    fbd8:	e1844804 	orr	r4, r4, r4, lsl #16
    fbdc:	e04c2004 	sub	r2, ip, r4
    fbe0:	e15c0003 	cmp	ip, r3
    fbe4:	01c2200c 	biceq	r2, r2, ip
    fbe8:	01120384 	tsteq	r2, r4, lsl #7
    fbec:	0490c004 	ldreq	ip, [r0], #4
    fbf0:	04913004 	ldreq	r3, [r1], #4
    fbf4:	0afffff8 	beq	fbdc <strcmp+0x50>
    fbf8:	e1a00c0c 	lsl	r0, ip, #24
    fbfc:	e1a0c42c 	lsr	ip, ip, #8
    fc00:	e3500001 	cmp	r0, #1
    fc04:	21500c03 	cmpcs	r0, r3, lsl #24
    fc08:	01a03423 	lsreq	r3, r3, #8
    fc0c:	0afffff9 	beq	fbf8 <strcmp+0x6c>
    fc10:	e20330ff 	and	r3, r3, #255	; 0xff
    fc14:	e0630c20 	rsb	r0, r3, r0, lsr #24
    fc18:	e49d4004 	pop	{r4}		; (ldr r4, [sp], #4)
    fc1c:	e12fff1e 	bx	lr
    fc20:	e3100003 	tst	r0, #3
    fc24:	0a000006 	beq	fc44 <strcmp+0xb8>
    fc28:	e4d02001 	ldrb	r2, [r0], #1
    fc2c:	e4d13001 	ldrb	r3, [r1], #1
    fc30:	e3520001 	cmp	r2, #1
    fc34:	21520003 	cmpcs	r2, r3
    fc38:	0afffff8 	beq	fc20 <strcmp+0x94>
    fc3c:	e0420003 	sub	r0, r2, r3
    fc40:	e12fff1e 	bx	lr
    fc44:	e52d5004 	push	{r5}		; (str r5, [sp, #-4]!)
    fc48:	e52d4004 	push	{r4}		; (str r4, [sp, #-4]!)
    fc4c:	e3a02001 	mov	r2, #1
    fc50:	e1822402 	orr	r2, r2, r2, lsl #8
    fc54:	e1822802 	orr	r2, r2, r2, lsl #16
    fc58:	e201c003 	and	ip, r1, #3
    fc5c:	e3c11003 	bic	r1, r1, #3
    fc60:	e4904004 	ldr	r4, [r0], #4
    fc64:	e4915004 	ldr	r5, [r1], #4
    fc68:	e35c0002 	cmp	ip, #2
    fc6c:	0a000017 	beq	fcd0 <strcmp+0x144>
    fc70:	8a00002d 	bhi	fd2c <strcmp+0x1a0>
    fc74:	e3c4c4ff 	bic	ip, r4, #-16777216	; 0xff000000
    fc78:	e15c0425 	cmp	ip, r5, lsr #8
    fc7c:	e0443002 	sub	r3, r4, r2
    fc80:	e1c33004 	bic	r3, r3, r4
    fc84:	1a000007 	bne	fca8 <strcmp+0x11c>
    fc88:	e0133382 	ands	r3, r3, r2, lsl #7
    fc8c:	04915004 	ldreq	r5, [r1], #4
    fc90:	1a000006 	bne	fcb0 <strcmp+0x124>
    fc94:	e02cc004 	eor	ip, ip, r4
    fc98:	e15c0c05 	cmp	ip, r5, lsl #24
    fc9c:	1a000008 	bne	fcc4 <strcmp+0x138>
    fca0:	e4904004 	ldr	r4, [r0], #4
    fca4:	eafffff2 	b	fc74 <strcmp+0xe8>
    fca8:	e1a05425 	lsr	r5, r5, #8
    fcac:	ea000037 	b	fd90 <strcmp+0x204>
    fcb0:	e3d334ff 	bics	r3, r3, #-16777216	; 0xff000000
    fcb4:	1a000031 	bne	fd80 <strcmp+0x1f4>
    fcb8:	e5d15000 	ldrb	r5, [r1]
    fcbc:	e1a0cc24 	lsr	ip, r4, #24
    fcc0:	ea000032 	b	fd90 <strcmp+0x204>
    fcc4:	e1a0cc24 	lsr	ip, r4, #24
    fcc8:	e20550ff 	and	r5, r5, #255	; 0xff
    fccc:	ea00002f 	b	fd90 <strcmp+0x204>
    fcd0:	e1a0c804 	lsl	ip, r4, #16
    fcd4:	e0443002 	sub	r3, r4, r2
    fcd8:	e1a0c82c 	lsr	ip, ip, #16
    fcdc:	e1c33004 	bic	r3, r3, r4
    fce0:	e15c0825 	cmp	ip, r5, lsr #16
    fce4:	1a00000e 	bne	fd24 <strcmp+0x198>
    fce8:	e0133382 	ands	r3, r3, r2, lsl #7
    fcec:	04915004 	ldreq	r5, [r1], #4
    fcf0:	1a000004 	bne	fd08 <strcmp+0x17c>
    fcf4:	e02cc004 	eor	ip, ip, r4
    fcf8:	e15c0805 	cmp	ip, r5, lsl #16
    fcfc:	1a000006 	bne	fd1c <strcmp+0x190>
    fd00:	e4904004 	ldr	r4, [r0], #4
    fd04:	eafffff1 	b	fcd0 <strcmp+0x144>
    fd08:	e1b03803 	lsls	r3, r3, #16
    fd0c:	1a00001b 	bne	fd80 <strcmp+0x1f4>
    fd10:	e1d150b0 	ldrh	r5, [r1]
    fd14:	e1a0c824 	lsr	ip, r4, #16
    fd18:	ea00001c 	b	fd90 <strcmp+0x204>
    fd1c:	e1a05805 	lsl	r5, r5, #16
    fd20:	e1a0c824 	lsr	ip, r4, #16
    fd24:	e1a05825 	lsr	r5, r5, #16
    fd28:	ea000018 	b	fd90 <strcmp+0x204>
    fd2c:	e204c0ff 	and	ip, r4, #255	; 0xff
    fd30:	e15c0c25 	cmp	ip, r5, lsr #24
    fd34:	e0443002 	sub	r3, r4, r2
    fd38:	e1c33004 	bic	r3, r3, r4
    fd3c:	1a000007 	bne	fd60 <strcmp+0x1d4>
    fd40:	e0133382 	ands	r3, r3, r2, lsl #7
    fd44:	04915004 	ldreq	r5, [r1], #4
    fd48:	1a000006 	bne	fd68 <strcmp+0x1dc>
    fd4c:	e02cc004 	eor	ip, ip, r4
    fd50:	e15c0405 	cmp	ip, r5, lsl #8
    fd54:	1a000006 	bne	fd74 <strcmp+0x1e8>
    fd58:	e4904004 	ldr	r4, [r0], #4
    fd5c:	eafffff2 	b	fd2c <strcmp+0x1a0>
    fd60:	e1a05c25 	lsr	r5, r5, #24
    fd64:	ea000009 	b	fd90 <strcmp+0x204>
    fd68:	e31400ff 	tst	r4, #255	; 0xff
    fd6c:	0a000003 	beq	fd80 <strcmp+0x1f4>
    fd70:	e4915004 	ldr	r5, [r1], #4
    fd74:	e1a0c424 	lsr	ip, r4, #8
    fd78:	e3c554ff 	bic	r5, r5, #-16777216	; 0xff000000
    fd7c:	ea000003 	b	fd90 <strcmp+0x204>
    fd80:	e3a00000 	mov	r0, #0
    fd84:	e49d4004 	pop	{r4}		; (ldr r4, [sp], #4)
    fd88:	e49d5004 	pop	{r5}		; (ldr r5, [sp], #4)
    fd8c:	e12fff1e 	bx	lr
    fd90:	e20c20ff 	and	r2, ip, #255	; 0xff
    fd94:	e20500ff 	and	r0, r5, #255	; 0xff
    fd98:	e3500001 	cmp	r0, #1
    fd9c:	21500002 	cmpcs	r0, r2
    fda0:	01a0c42c 	lsreq	ip, ip, #8
    fda4:	01a05425 	lsreq	r5, r5, #8
    fda8:	0afffff8 	beq	fd90 <strcmp+0x204>
    fdac:	e0420000 	sub	r0, r2, r0
    fdb0:	e49d4004 	pop	{r4}		; (ldr r4, [sp], #4)
    fdb4:	e49d5004 	pop	{r5}		; (ldr r5, [sp], #4)
    fdb8:	e12fff1e 	bx	lr

0000fdbc <__sprint_r.part.0>:
    fdbc:	e5913064 	ldr	r3, [r1, #100]	; 0x64
    fdc0:	e3130a02 	tst	r3, #8192	; 0x2000
    fdc4:	e92d47f0 	push	{r4, r5, r6, r7, r8, r9, sl, lr}
    fdc8:	e1a06001 	mov	r6, r1
    fdcc:	e1a08000 	mov	r8, r0
    fdd0:	e1a09002 	mov	r9, r2
    fdd4:	0a000021 	beq	fe60 <__sprint_r.part.0+0xa4>
    fdd8:	e5923008 	ldr	r3, [r2, #8]
    fddc:	e592a000 	ldr	sl, [r2]
    fde0:	e3530000 	cmp	r3, #0
    fde4:	128aa008 	addne	sl, sl, #8
    fde8:	0a00001a 	beq	fe58 <__sprint_r.part.0+0x9c>
    fdec:	e51a7004 	ldr	r7, [sl, #-4]
    fdf0:	e51a5008 	ldr	r5, [sl, #-8]
    fdf4:	e1b07127 	lsrs	r7, r7, #2
    fdf8:	12455004 	subne	r5, r5, #4
    fdfc:	13a04000 	movne	r4, #0
    fe00:	1a000002 	bne	fe10 <__sprint_r.part.0+0x54>
    fe04:	ea00000e 	b	fe44 <__sprint_r.part.0+0x88>
    fe08:	e1570004 	cmp	r7, r4
    fe0c:	0a00000b 	beq	fe40 <__sprint_r.part.0+0x84>
    fe10:	e1a00008 	mov	r0, r8
    fe14:	e5b51004 	ldr	r1, [r5, #4]!
    fe18:	e1a02006 	mov	r2, r6
    fe1c:	eb00059d 	bl	11498 <_fputwc_r>
    fe20:	e3700001 	cmn	r0, #1
    fe24:	e2844001 	add	r4, r4, #1
    fe28:	1afffff6 	bne	fe08 <__sprint_r.part.0+0x4c>
    fe2c:	e3a03000 	mov	r3, #0
    fe30:	e5893008 	str	r3, [r9, #8]
    fe34:	e5893004 	str	r3, [r9, #4]
    fe38:	e8bd47f0 	pop	{r4, r5, r6, r7, r8, r9, sl, lr}
    fe3c:	e12fff1e 	bx	lr
    fe40:	e5993008 	ldr	r3, [r9, #8]
    fe44:	e0433107 	sub	r3, r3, r7, lsl #2
    fe48:	e3530000 	cmp	r3, #0
    fe4c:	e5893008 	str	r3, [r9, #8]
    fe50:	e28aa008 	add	sl, sl, #8
    fe54:	1affffe4 	bne	fdec <__sprint_r.part.0+0x30>
    fe58:	e3a00000 	mov	r0, #0
    fe5c:	eafffff2 	b	fe2c <__sprint_r.part.0+0x70>
    fe60:	ebfff55b 	bl	d3d4 <__sfvwrite_r>
    fe64:	eafffff0 	b	fe2c <__sprint_r.part.0+0x70>

0000fe68 <__sprint_r>:
    fe68:	e5923008 	ldr	r3, [r2, #8]
    fe6c:	e3530000 	cmp	r3, #0
    fe70:	1affffd1 	bne	fdbc <__sprint_r.part.0>
    fe74:	e5823004 	str	r3, [r2, #4]
    fe78:	e1a00003 	mov	r0, r3
    fe7c:	e12fff1e 	bx	lr

0000fe80 <_vfiprintf_r>:
    fe80:	e92d4ff0 	push	{r4, r5, r6, r7, r8, r9, sl, fp, lr}
    fe84:	e2505000 	subs	r5, r0, #0
    fe88:	e24dd0c4 	sub	sp, sp, #196	; 0xc4
    fe8c:	e1a04003 	mov	r4, r3
    fe90:	e58d5020 	str	r5, [sp, #32]
    fe94:	e58d1010 	str	r1, [sp, #16]
    fe98:	e1a07002 	mov	r7, r2
    fe9c:	e58d3028 	str	r3, [sp, #40]	; 0x28
    fea0:	0a000002 	beq	feb0 <_vfiprintf_r+0x30>
    fea4:	e5953038 	ldr	r3, [r5, #56]	; 0x38
    fea8:	e3530000 	cmp	r3, #0
    feac:	0a0000c5 	beq	101c8 <_vfiprintf_r+0x348>
    feb0:	e59dc010 	ldr	ip, [sp, #16]
    feb4:	e1dc10bc 	ldrh	r1, [ip, #12]
    feb8:	e3110a02 	tst	r1, #8192	; 0x2000
    febc:	059c3064 	ldreq	r3, [ip, #100]	; 0x64
    fec0:	e1a02001 	mov	r2, r1
    fec4:	03c33a02 	biceq	r3, r3, #8192	; 0x2000
    fec8:	03812a02 	orreq	r2, r1, #8192	; 0x2000
    fecc:	01cc20bc 	strheq	r2, [ip, #12]
    fed0:	058c3064 	streq	r3, [ip, #100]	; 0x64
    fed4:	e3120008 	tst	r2, #8
    fed8:	0a0000a0 	beq	10160 <_vfiprintf_r+0x2e0>
    fedc:	e59d5010 	ldr	r5, [sp, #16]
    fee0:	e5953010 	ldr	r3, [r5, #16]
    fee4:	e3530000 	cmp	r3, #0
    fee8:	0a00009c 	beq	10160 <_vfiprintf_r+0x2e0>
    feec:	e202201a 	and	r2, r2, #26
    fef0:	e352000a 	cmp	r2, #10
    fef4:	0a0000a3 	beq	10188 <_vfiprintf_r+0x308>
    fef8:	e28dc07f 	add	ip, sp, #127	; 0x7f
    fefc:	e58dc008 	str	ip, [sp, #8]
    ff00:	e59d4008 	ldr	r4, [sp, #8]
    ff04:	e28d8080 	add	r8, sp, #128	; 0x80
    ff08:	e3a03000 	mov	r3, #0
    ff0c:	e0644008 	rsb	r4, r4, r8
    ff10:	e58d3054 	str	r3, [sp, #84]	; 0x54
    ff14:	e58d3050 	str	r3, [sp, #80]	; 0x50
    ff18:	e58d3030 	str	r3, [sp, #48]	; 0x30
    ff1c:	e58d804c 	str	r8, [sp, #76]	; 0x4c
    ff20:	e59fafcc 	ldr	sl, [pc, #4044]	; 10ef4 <_vfiprintf_r+0x1074>
    ff24:	e58d302c 	str	r3, [sp, #44]	; 0x2c
    ff28:	e58d4038 	str	r4, [sp, #56]	; 0x38
    ff2c:	e1a0c008 	mov	ip, r8
    ff30:	e1a06008 	mov	r6, r8
    ff34:	e5d73000 	ldrb	r3, [r7]
    ff38:	e3530000 	cmp	r3, #0
    ff3c:	13530025 	cmpne	r3, #37	; 0x25
    ff40:	0a0002d2 	beq	10a90 <_vfiprintf_r+0xc10>
    ff44:	e2873001 	add	r3, r7, #1
    ff48:	e1a04003 	mov	r4, r3
    ff4c:	e5d33000 	ldrb	r3, [r3]
    ff50:	e3530025 	cmp	r3, #37	; 0x25
    ff54:	13530000 	cmpne	r3, #0
    ff58:	e2843001 	add	r3, r4, #1
    ff5c:	1afffff9 	bne	ff48 <_vfiprintf_r+0xc8>
    ff60:	e0545007 	subs	r5, r4, r7
    ff64:	0a00000d 	beq	ffa0 <_vfiprintf_r+0x120>
    ff68:	e59d3050 	ldr	r3, [sp, #80]	; 0x50
    ff6c:	e59d2054 	ldr	r2, [sp, #84]	; 0x54
    ff70:	e2833001 	add	r3, r3, #1
    ff74:	e3530007 	cmp	r3, #7
    ff78:	e0852002 	add	r2, r5, r2
    ff7c:	e5867000 	str	r7, [r6]
    ff80:	e5865004 	str	r5, [r6, #4]
    ff84:	e58d3050 	str	r3, [sp, #80]	; 0x50
    ff88:	e58d2054 	str	r2, [sp, #84]	; 0x54
    ff8c:	d2866008 	addle	r6, r6, #8
    ff90:	ca00006d 	bgt	1014c <_vfiprintf_r+0x2cc>
    ff94:	e59dc02c 	ldr	ip, [sp, #44]	; 0x2c
    ff98:	e08cc005 	add	ip, ip, r5
    ff9c:	e58dc02c 	str	ip, [sp, #44]	; 0x2c
    ffa0:	e5d43000 	ldrb	r3, [r4]
    ffa4:	e3530000 	cmp	r3, #0
    ffa8:	0a0002c5 	beq	10ac4 <_vfiprintf_r+0xc44>
    ffac:	e3a03000 	mov	r3, #0
    ffb0:	e1a01003 	mov	r1, r3
    ffb4:	e5cd3047 	strb	r3, [sp, #71]	; 0x47
    ffb8:	e58d3018 	str	r3, [sp, #24]
    ffbc:	e58d300c 	str	r3, [sp, #12]
    ffc0:	e2847001 	add	r7, r4, #1
    ffc4:	e5d43001 	ldrb	r3, [r4, #1]
    ffc8:	e3e04000 	mvn	r4, #0
    ffcc:	e58d4014 	str	r4, [sp, #20]
    ffd0:	e1a00001 	mov	r0, r1
    ffd4:	e2877001 	add	r7, r7, #1
    ffd8:	e2432020 	sub	r2, r3, #32
    ffdc:	e3520058 	cmp	r2, #88	; 0x58
    ffe0:	979ff102 	ldrls	pc, [pc, r2, lsl #2]
    ffe4:	ea00021c 	b	1085c <_vfiprintf_r+0x9dc>
    ffe8:	00010838 	.word	0x00010838
    ffec:	0001085c 	.word	0x0001085c
    fff0:	0001085c 	.word	0x0001085c
    fff4:	00010848 	.word	0x00010848
    fff8:	0001085c 	.word	0x0001085c
    fffc:	0001085c 	.word	0x0001085c
   10000:	0001085c 	.word	0x0001085c
   10004:	0001085c 	.word	0x0001085c
   10008:	0001085c 	.word	0x0001085c
   1000c:	0001085c 	.word	0x0001085c
   10010:	0001076c 	.word	0x0001076c
   10014:	0001078c 	.word	0x0001078c
   10018:	0001085c 	.word	0x0001085c
   1001c:	000101d8 	.word	0x000101d8
   10020:	00010798 	.word	0x00010798
   10024:	0001085c 	.word	0x0001085c
   10028:	0001046c 	.word	0x0001046c
   1002c:	00010480 	.word	0x00010480
   10030:	00010480 	.word	0x00010480
   10034:	00010480 	.word	0x00010480
   10038:	00010480 	.word	0x00010480
   1003c:	00010480 	.word	0x00010480
   10040:	00010480 	.word	0x00010480
   10044:	00010480 	.word	0x00010480
   10048:	00010480 	.word	0x00010480
   1004c:	00010480 	.word	0x00010480
   10050:	0001085c 	.word	0x0001085c
   10054:	0001085c 	.word	0x0001085c
   10058:	0001085c 	.word	0x0001085c
   1005c:	0001085c 	.word	0x0001085c
   10060:	0001085c 	.word	0x0001085c
   10064:	0001085c 	.word	0x0001085c
   10068:	0001085c 	.word	0x0001085c
   1006c:	0001085c 	.word	0x0001085c
   10070:	0001085c 	.word	0x0001085c
   10074:	0001085c 	.word	0x0001085c
   10078:	000104a4 	.word	0x000104a4
   1007c:	0001085c 	.word	0x0001085c
   10080:	0001085c 	.word	0x0001085c
   10084:	0001085c 	.word	0x0001085c
   10088:	0001085c 	.word	0x0001085c
   1008c:	0001085c 	.word	0x0001085c
   10090:	0001085c 	.word	0x0001085c
   10094:	0001085c 	.word	0x0001085c
   10098:	0001085c 	.word	0x0001085c
   1009c:	0001085c 	.word	0x0001085c
   100a0:	0001085c 	.word	0x0001085c
   100a4:	000104fc 	.word	0x000104fc
   100a8:	0001085c 	.word	0x0001085c
   100ac:	0001085c 	.word	0x0001085c
   100b0:	0001085c 	.word	0x0001085c
   100b4:	0001085c 	.word	0x0001085c
   100b8:	0001085c 	.word	0x0001085c
   100bc:	0001053c 	.word	0x0001053c
   100c0:	0001085c 	.word	0x0001085c
   100c4:	0001085c 	.word	0x0001085c
   100c8:	0001058c 	.word	0x0001058c
   100cc:	0001085c 	.word	0x0001085c
   100d0:	0001085c 	.word	0x0001085c
   100d4:	0001085c 	.word	0x0001085c
   100d8:	0001085c 	.word	0x0001085c
   100dc:	0001085c 	.word	0x0001085c
   100e0:	0001085c 	.word	0x0001085c
   100e4:	0001085c 	.word	0x0001085c
   100e8:	0001085c 	.word	0x0001085c
   100ec:	0001085c 	.word	0x0001085c
   100f0:	0001085c 	.word	0x0001085c
   100f4:	000105f0 	.word	0x000105f0
   100f8:	0001062c 	.word	0x0001062c
   100fc:	0001085c 	.word	0x0001085c
   10100:	0001085c 	.word	0x0001085c
   10104:	0001085c 	.word	0x0001085c
   10108:	0001066c 	.word	0x0001066c
   1010c:	0001062c 	.word	0x0001062c
   10110:	0001085c 	.word	0x0001085c
   10114:	0001085c 	.word	0x0001085c
   10118:	00010680 	.word	0x00010680
   1011c:	0001085c 	.word	0x0001085c
   10120:	000106b0 	.word	0x000106b0
   10124:	000101ec 	.word	0x000101ec
   10128:	00010424 	.word	0x00010424
   1012c:	00010758 	.word	0x00010758
   10130:	0001085c 	.word	0x0001085c
   10134:	000106ec 	.word	0x000106ec
   10138:	0001085c 	.word	0x0001085c
   1013c:	000103f4 	.word	0x000103f4
   10140:	0001085c 	.word	0x0001085c
   10144:	0001085c 	.word	0x0001085c
   10148:	000107ec 	.word	0x000107ec
   1014c:	e3520000 	cmp	r2, #0
   10150:	1a000334 	bne	10e28 <_vfiprintf_r+0xfa8>
   10154:	e58d2050 	str	r2, [sp, #80]	; 0x50
   10158:	e1a06008 	mov	r6, r8
   1015c:	eaffff8c 	b	ff94 <_vfiprintf_r+0x114>
   10160:	e59d0020 	ldr	r0, [sp, #32]
   10164:	e59d1010 	ldr	r1, [sp, #16]
   10168:	ebffec90 	bl	b3b0 <__swsetup_r>
   1016c:	e3500000 	cmp	r0, #0
   10170:	1a000010 	bne	101b8 <_vfiprintf_r+0x338>
   10174:	e59dc010 	ldr	ip, [sp, #16]
   10178:	e1dc20bc 	ldrh	r2, [ip, #12]
   1017c:	e202201a 	and	r2, r2, #26
   10180:	e352000a 	cmp	r2, #10
   10184:	1affff5b 	bne	fef8 <_vfiprintf_r+0x78>
   10188:	e59d5010 	ldr	r5, [sp, #16]
   1018c:	e1d530fe 	ldrsh	r3, [r5, #14]
   10190:	e3530000 	cmp	r3, #0
   10194:	baffff57 	blt	fef8 <_vfiprintf_r+0x78>
   10198:	e59d0020 	ldr	r0, [sp, #32]
   1019c:	e1a01005 	mov	r1, r5
   101a0:	e1a02007 	mov	r2, r7
   101a4:	e1a03004 	mov	r3, r4
   101a8:	eb0003fe 	bl	111a8 <__sbprintf>
   101ac:	e28dd0c4 	add	sp, sp, #196	; 0xc4
   101b0:	e8bd4ff0 	pop	{r4, r5, r6, r7, r8, r9, sl, fp, lr}
   101b4:	e12fff1e 	bx	lr
   101b8:	e3e00000 	mvn	r0, #0
   101bc:	e28dd0c4 	add	sp, sp, #196	; 0xc4
   101c0:	e8bd4ff0 	pop	{r4, r5, r6, r7, r8, r9, sl, fp, lr}
   101c4:	e12fff1e 	bx	lr
   101c8:	ebfff2f8 	bl	cdb0 <__sinit>
   101cc:	eaffff37 	b	feb0 <_vfiprintf_r+0x30>
   101d0:	e58d3028 	str	r3, [sp, #40]	; 0x28
   101d4:	e2600000 	rsb	r0, r0, #0
   101d8:	e59d500c 	ldr	r5, [sp, #12]
   101dc:	e3855004 	orr	r5, r5, #4
   101e0:	e58d500c 	str	r5, [sp, #12]
   101e4:	e5d73000 	ldrb	r3, [r7]
   101e8:	eaffff79 	b	ffd4 <_vfiprintf_r+0x154>
   101ec:	e59dc00c 	ldr	ip, [sp, #12]
   101f0:	e21c3020 	ands	r3, ip, #32
   101f4:	e58d0018 	str	r0, [sp, #24]
   101f8:	0a0000c6 	beq	10518 <_vfiprintf_r+0x698>
   101fc:	e59d4028 	ldr	r4, [sp, #40]	; 0x28
   10200:	e2843007 	add	r3, r4, #7
   10204:	e3c33007 	bic	r3, r3, #7
   10208:	e2835008 	add	r5, r3, #8
   1020c:	e58d5028 	str	r5, [sp, #40]	; 0x28
   10210:	e8930030 	ldm	r3, {r4, r5}
   10214:	e3a03000 	mov	r3, #0
   10218:	e3a0b000 	mov	fp, #0
   1021c:	e5cdb047 	strb	fp, [sp, #71]	; 0x47
   10220:	e59dc014 	ldr	ip, [sp, #20]
   10224:	e35c0000 	cmp	ip, #0
   10228:	a59dc00c 	ldrge	ip, [sp, #12]
   1022c:	a3ccc080 	bicge	ip, ip, #128	; 0x80
   10230:	a58dc00c 	strge	ip, [sp, #12]
   10234:	e1940005 	orrs	r0, r4, r5
   10238:	e59dc014 	ldr	ip, [sp, #20]
   1023c:	03a02000 	moveq	r2, #0
   10240:	13a02001 	movne	r2, #1
   10244:	e35c0000 	cmp	ip, #0
   10248:	13822001 	orrne	r2, r2, #1
   1024c:	e3520000 	cmp	r2, #0
   10250:	0a00027e 	beq	10c50 <_vfiprintf_r+0xdd0>
   10254:	e3530001 	cmp	r3, #1
   10258:	0a0002d3 	beq	10dac <_vfiprintf_r+0xf2c>
   1025c:	e3530002 	cmp	r3, #2
   10260:	e28d207f 	add	r2, sp, #127	; 0x7f
   10264:	1a00000f 	bne	102a8 <_vfiprintf_r+0x428>
   10268:	e59d0030 	ldr	r0, [sp, #48]	; 0x30
   1026c:	e1a03224 	lsr	r3, r4, #4
   10270:	e204c00f 	and	ip, r4, #15
   10274:	e1833e05 	orr	r3, r3, r5, lsl #28
   10278:	e1a01225 	lsr	r1, r5, #4
   1027c:	e1a04003 	mov	r4, r3
   10280:	e1a05001 	mov	r5, r1
   10284:	e7d0300c 	ldrb	r3, [r0, ip]
   10288:	e194c005 	orrs	ip, r4, r5
   1028c:	e1a09002 	mov	r9, r2
   10290:	e5c23000 	strb	r3, [r2]
   10294:	e2422001 	sub	r2, r2, #1
   10298:	1afffff3 	bne	1026c <_vfiprintf_r+0x3ec>
   1029c:	e0693008 	rsb	r3, r9, r8
   102a0:	e58d301c 	str	r3, [sp, #28]
   102a4:	ea000011 	b	102f0 <_vfiprintf_r+0x470>
   102a8:	e1a031a4 	lsr	r3, r4, #3
   102ac:	e1833e85 	orr	r3, r3, r5, lsl #29
   102b0:	e1a001a5 	lsr	r0, r5, #3
   102b4:	e2041007 	and	r1, r4, #7
   102b8:	e1a05000 	mov	r5, r0
   102bc:	e1a04003 	mov	r4, r3
   102c0:	e1940005 	orrs	r0, r4, r5
   102c4:	e2813030 	add	r3, r1, #48	; 0x30
   102c8:	e1a09002 	mov	r9, r2
   102cc:	e5c23000 	strb	r3, [r2]
   102d0:	e2422001 	sub	r2, r2, #1
   102d4:	1afffff3 	bne	102a8 <_vfiprintf_r+0x428>
   102d8:	e59d400c 	ldr	r4, [sp, #12]
   102dc:	e3140001 	tst	r4, #1
   102e0:	e1a01009 	mov	r1, r9
   102e4:	1a0002f5 	bne	10ec0 <_vfiprintf_r+0x1040>
   102e8:	e0695008 	rsb	r5, r9, r8
   102ec:	e58d501c 	str	r5, [sp, #28]
   102f0:	e59d501c 	ldr	r5, [sp, #28]
   102f4:	e59d4014 	ldr	r4, [sp, #20]
   102f8:	e1550004 	cmp	r5, r4
   102fc:	b1a05004 	movlt	r5, r4
   10300:	e35b0000 	cmp	fp, #0
   10304:	12855001 	addne	r5, r5, #1
   10308:	e59d400c 	ldr	r4, [sp, #12]
   1030c:	e59d300c 	ldr	r3, [sp, #12]
   10310:	e214c002 	ands	ip, r4, #2
   10314:	12855002 	addne	r5, r5, #2
   10318:	e2133084 	ands	r3, r3, #132	; 0x84
   1031c:	e58d3024 	str	r3, [sp, #36]	; 0x24
   10320:	1a000163 	bne	108b4 <_vfiprintf_r+0xa34>
   10324:	e59d0018 	ldr	r0, [sp, #24]
   10328:	e0654000 	rsb	r4, r5, r0
   1032c:	e3540000 	cmp	r4, #0
   10330:	da00015f 	ble	108b4 <_vfiprintf_r+0xa34>
   10334:	e3540010 	cmp	r4, #16
   10338:	da000360 	ble	110c0 <_vfiprintf_r+0x1240>
   1033c:	e59f3bac 	ldr	r3, [pc, #2988]	; 10ef0 <_vfiprintf_r+0x1070>
   10340:	e28d0050 	add	r0, sp, #80	; 0x50
   10344:	e8900003 	ldm	r0, {r0, r1}
   10348:	e58d3034 	str	r3, [sp, #52]	; 0x34
   1034c:	e3a0b010 	mov	fp, #16
   10350:	e58dc03c 	str	ip, [sp, #60]	; 0x3c
   10354:	ea000005 	b	10370 <_vfiprintf_r+0x4f0>
   10358:	e2803002 	add	r3, r0, #2
   1035c:	e2866008 	add	r6, r6, #8
   10360:	e1a00002 	mov	r0, r2
   10364:	e2444010 	sub	r4, r4, #16
   10368:	e3540010 	cmp	r4, #16
   1036c:	da000010 	ble	103b4 <_vfiprintf_r+0x534>
   10370:	e2802001 	add	r2, r0, #1
   10374:	e59fcb74 	ldr	ip, [pc, #2932]	; 10ef0 <_vfiprintf_r+0x1070>
   10378:	e2811010 	add	r1, r1, #16
   1037c:	e3520007 	cmp	r2, #7
   10380:	e58d1054 	str	r1, [sp, #84]	; 0x54
   10384:	e586c000 	str	ip, [r6]
   10388:	e586b004 	str	fp, [r6, #4]
   1038c:	e58d2050 	str	r2, [sp, #80]	; 0x50
   10390:	dafffff0 	ble	10358 <_vfiprintf_r+0x4d8>
   10394:	e3510000 	cmp	r1, #0
   10398:	1a00013a 	bne	10888 <_vfiprintf_r+0xa08>
   1039c:	e2444010 	sub	r4, r4, #16
   103a0:	e3540010 	cmp	r4, #16
   103a4:	e1a00001 	mov	r0, r1
   103a8:	e3a03001 	mov	r3, #1
   103ac:	e1a06008 	mov	r6, r8
   103b0:	caffffee 	bgt	10370 <_vfiprintf_r+0x4f0>
   103b4:	e59dc03c 	ldr	ip, [sp, #60]	; 0x3c
   103b8:	e59d0034 	ldr	r0, [sp, #52]	; 0x34
   103bc:	e3530007 	cmp	r3, #7
   103c0:	e0841001 	add	r1, r4, r1
   103c4:	e8860011 	stm	r6, {r0, r4}
   103c8:	e58d1054 	str	r1, [sp, #84]	; 0x54
   103cc:	e58d3050 	str	r3, [sp, #80]	; 0x50
   103d0:	d2866008 	addle	r6, r6, #8
   103d4:	d2832001 	addle	r2, r3, #1
   103d8:	da000138 	ble	108c0 <_vfiprintf_r+0xa40>
   103dc:	e3510000 	cmp	r1, #0
   103e0:	1a000309 	bne	1100c <_vfiprintf_r+0x118c>
   103e4:	e1a03001 	mov	r3, r1
   103e8:	e3a02001 	mov	r2, #1
   103ec:	e1a06008 	mov	r6, r8
   103f0:	ea000132 	b	108c0 <_vfiprintf_r+0xa40>
   103f4:	e59d500c 	ldr	r5, [sp, #12]
   103f8:	e3150020 	tst	r5, #32
   103fc:	e58d0018 	str	r0, [sp, #24]
   10400:	0a000054 	beq	10558 <_vfiprintf_r+0x6d8>
   10404:	e59dc028 	ldr	ip, [sp, #40]	; 0x28
   10408:	e28c3007 	add	r3, ip, #7
   1040c:	e3c33007 	bic	r3, r3, #7
   10410:	e2834008 	add	r4, r3, #8
   10414:	e58d4028 	str	r4, [sp, #40]	; 0x28
   10418:	e8930030 	ldm	r3, {r4, r5}
   1041c:	e3a03001 	mov	r3, #1
   10420:	eaffff7c 	b	10218 <_vfiprintf_r+0x398>
   10424:	e59dc028 	ldr	ip, [sp, #40]	; 0x28
   10428:	e59d3028 	ldr	r3, [sp, #40]	; 0x28
   1042c:	e59d500c 	ldr	r5, [sp, #12]
   10430:	e28cc004 	add	ip, ip, #4
   10434:	e58dc028 	str	ip, [sp, #40]	; 0x28
   10438:	e59fcaa4 	ldr	ip, [pc, #2724]	; 10ee4 <_vfiprintf_r+0x1064>
   1043c:	e3855002 	orr	r5, r5, #2
   10440:	e5934000 	ldr	r4, [r3]
   10444:	e3a02030 	mov	r2, #48	; 0x30
   10448:	e3a03078 	mov	r3, #120	; 0x78
   1044c:	e58d500c 	str	r5, [sp, #12]
   10450:	e5cd3049 	strb	r3, [sp, #73]	; 0x49
   10454:	e58d0018 	str	r0, [sp, #24]
   10458:	e3a05000 	mov	r5, #0
   1045c:	e5cd2048 	strb	r2, [sp, #72]	; 0x48
   10460:	e58dc030 	str	ip, [sp, #48]	; 0x30
   10464:	e3a03002 	mov	r3, #2
   10468:	eaffff6a 	b	10218 <_vfiprintf_r+0x398>
   1046c:	e59d500c 	ldr	r5, [sp, #12]
   10470:	e3855080 	orr	r5, r5, #128	; 0x80
   10474:	e58d500c 	str	r5, [sp, #12]
   10478:	e5d73000 	ldrb	r3, [r7]
   1047c:	eafffed4 	b	ffd4 <_vfiprintf_r+0x154>
   10480:	e2432030 	sub	r2, r3, #48	; 0x30
   10484:	e3a00000 	mov	r0, #0
   10488:	e4d73001 	ldrb	r3, [r7], #1
   1048c:	e0800100 	add	r0, r0, r0, lsl #2
   10490:	e0820080 	add	r0, r2, r0, lsl #1
   10494:	e2432030 	sub	r2, r3, #48	; 0x30
   10498:	e3520009 	cmp	r2, #9
   1049c:	9afffff9 	bls	10488 <_vfiprintf_r+0x608>
   104a0:	eafffecc 	b	ffd8 <_vfiprintf_r+0x158>
   104a4:	e59d500c 	ldr	r5, [sp, #12]
   104a8:	e3855010 	orr	r5, r5, #16
   104ac:	e58d500c 	str	r5, [sp, #12]
   104b0:	e59dc00c 	ldr	ip, [sp, #12]
   104b4:	e31c0020 	tst	ip, #32
   104b8:	e58d0018 	str	r0, [sp, #24]
   104bc:	e5cd1047 	strb	r1, [sp, #71]	; 0x47
   104c0:	0a00005e 	beq	10640 <_vfiprintf_r+0x7c0>
   104c4:	e59d4028 	ldr	r4, [sp, #40]	; 0x28
   104c8:	e2841007 	add	r1, r4, #7
   104cc:	e3c11007 	bic	r1, r1, #7
   104d0:	e891000c 	ldm	r1, {r2, r3}
   104d4:	e2811008 	add	r1, r1, #8
   104d8:	e58d1028 	str	r1, [sp, #40]	; 0x28
   104dc:	e1a04002 	mov	r4, r2
   104e0:	e1a05003 	mov	r5, r3
   104e4:	e3520000 	cmp	r2, #0
   104e8:	e2d30000 	sbcs	r0, r3, #0
   104ec:	ba00029a 	blt	10f5c <_vfiprintf_r+0x10dc>
   104f0:	e5ddb047 	ldrb	fp, [sp, #71]	; 0x47
   104f4:	e3a03001 	mov	r3, #1
   104f8:	eaffff48 	b	10220 <_vfiprintf_r+0x3a0>
   104fc:	e59d500c 	ldr	r5, [sp, #12]
   10500:	e3855010 	orr	r5, r5, #16
   10504:	e58d500c 	str	r5, [sp, #12]
   10508:	e59dc00c 	ldr	ip, [sp, #12]
   1050c:	e21c3020 	ands	r3, ip, #32
   10510:	e58d0018 	str	r0, [sp, #24]
   10514:	1affff38 	bne	101fc <_vfiprintf_r+0x37c>
   10518:	e59dc00c 	ldr	ip, [sp, #12]
   1051c:	e21c2010 	ands	r2, ip, #16
   10520:	0a000293 	beq	10f74 <_vfiprintf_r+0x10f4>
   10524:	e59d5028 	ldr	r5, [sp, #40]	; 0x28
   10528:	e5954000 	ldr	r4, [r5]
   1052c:	e2855004 	add	r5, r5, #4
   10530:	e58d5028 	str	r5, [sp, #40]	; 0x28
   10534:	e3a05000 	mov	r5, #0
   10538:	eaffff36 	b	10218 <_vfiprintf_r+0x398>
   1053c:	e59d400c 	ldr	r4, [sp, #12]
   10540:	e3844010 	orr	r4, r4, #16
   10544:	e58d400c 	str	r4, [sp, #12]
   10548:	e59d500c 	ldr	r5, [sp, #12]
   1054c:	e3150020 	tst	r5, #32
   10550:	e58d0018 	str	r0, [sp, #24]
   10554:	1affffaa 	bne	10404 <_vfiprintf_r+0x584>
   10558:	e59d500c 	ldr	r5, [sp, #12]
   1055c:	e3150010 	tst	r5, #16
   10560:	1a000229 	bne	10e0c <_vfiprintf_r+0xf8c>
   10564:	e59d400c 	ldr	r4, [sp, #12]
   10568:	e3140040 	tst	r4, #64	; 0x40
   1056c:	0a000226 	beq	10e0c <_vfiprintf_r+0xf8c>
   10570:	e59d5028 	ldr	r5, [sp, #40]	; 0x28
   10574:	e1d540b0 	ldrh	r4, [r5]
   10578:	e2855004 	add	r5, r5, #4
   1057c:	e58d5028 	str	r5, [sp, #40]	; 0x28
   10580:	e3a03001 	mov	r3, #1
   10584:	e3a05000 	mov	r5, #0
   10588:	eaffff22 	b	10218 <_vfiprintf_r+0x398>
   1058c:	e59f5954 	ldr	r5, [pc, #2388]	; 10ee8 <_vfiprintf_r+0x1068>
   10590:	e58d5030 	str	r5, [sp, #48]	; 0x30
   10594:	e59d500c 	ldr	r5, [sp, #12]
   10598:	e3150020 	tst	r5, #32
   1059c:	e58d0018 	str	r0, [sp, #24]
   105a0:	e5cd1047 	strb	r1, [sp, #71]	; 0x47
   105a4:	0a000097 	beq	10808 <_vfiprintf_r+0x988>
   105a8:	e59dc028 	ldr	ip, [sp, #40]	; 0x28
   105ac:	e28c2007 	add	r2, ip, #7
   105b0:	e3c22007 	bic	r2, r2, #7
   105b4:	e2824008 	add	r4, r2, #8
   105b8:	e58d4028 	str	r4, [sp, #40]	; 0x28
   105bc:	e8920030 	ldm	r2, {r4, r5}
   105c0:	e59dc00c 	ldr	ip, [sp, #12]
   105c4:	e31c0001 	tst	ip, #1
   105c8:	0a0001f5 	beq	10da4 <_vfiprintf_r+0xf24>
   105cc:	e1940005 	orrs	r0, r4, r5
   105d0:	0a0001f3 	beq	10da4 <_vfiprintf_r+0xf24>
   105d4:	e3a02030 	mov	r2, #48	; 0x30
   105d8:	e38cc002 	orr	ip, ip, #2
   105dc:	e5cd3049 	strb	r3, [sp, #73]	; 0x49
   105e0:	e58dc00c 	str	ip, [sp, #12]
   105e4:	e5cd2048 	strb	r2, [sp, #72]	; 0x48
   105e8:	e3a03002 	mov	r3, #2
   105ec:	eaffff09 	b	10218 <_vfiprintf_r+0x398>
   105f0:	e59d3028 	ldr	r3, [sp, #40]	; 0x28
   105f4:	e59d4028 	ldr	r4, [sp, #40]	; 0x28
   105f8:	e5932000 	ldr	r2, [r3]
   105fc:	e3a05001 	mov	r5, #1
   10600:	e3a03000 	mov	r3, #0
   10604:	e2844004 	add	r4, r4, #4
   10608:	e58d0018 	str	r0, [sp, #24]
   1060c:	e5cd2058 	strb	r2, [sp, #88]	; 0x58
   10610:	e58d4028 	str	r4, [sp, #40]	; 0x28
   10614:	e5cd3047 	strb	r3, [sp, #71]	; 0x47
   10618:	e58d501c 	str	r5, [sp, #28]
   1061c:	e28d9058 	add	r9, sp, #88	; 0x58
   10620:	e3a0c000 	mov	ip, #0
   10624:	e58dc014 	str	ip, [sp, #20]
   10628:	eaffff36 	b	10308 <_vfiprintf_r+0x488>
   1062c:	e59dc00c 	ldr	ip, [sp, #12]
   10630:	e31c0020 	tst	ip, #32
   10634:	e58d0018 	str	r0, [sp, #24]
   10638:	e5cd1047 	strb	r1, [sp, #71]	; 0x47
   1063c:	1affffa0 	bne	104c4 <_vfiprintf_r+0x644>
   10640:	e59d500c 	ldr	r5, [sp, #12]
   10644:	e3150010 	tst	r5, #16
   10648:	0a000263 	beq	10fdc <_vfiprintf_r+0x115c>
   1064c:	e59dc028 	ldr	ip, [sp, #40]	; 0x28
   10650:	e59c4000 	ldr	r4, [ip]
   10654:	e28cc004 	add	ip, ip, #4
   10658:	e1a05fc4 	asr	r5, r4, #31
   1065c:	e58dc028 	str	ip, [sp, #40]	; 0x28
   10660:	e1a02004 	mov	r2, r4
   10664:	e1a03005 	mov	r3, r5
   10668:	eaffff9d 	b	104e4 <_vfiprintf_r+0x664>
   1066c:	e59dc00c 	ldr	ip, [sp, #12]
   10670:	e38cc040 	orr	ip, ip, #64	; 0x40
   10674:	e58dc00c 	str	ip, [sp, #12]
   10678:	e5d73000 	ldrb	r3, [r7]
   1067c:	eafffe54 	b	ffd4 <_vfiprintf_r+0x154>
   10680:	e5d73000 	ldrb	r3, [r7]
   10684:	e353006c 	cmp	r3, #108	; 0x6c
   10688:	059d400c 	ldreq	r4, [sp, #12]
   1068c:	159d500c 	ldrne	r5, [sp, #12]
   10690:	e1a02007 	mov	r2, r7
   10694:	03844020 	orreq	r4, r4, #32
   10698:	13855010 	orrne	r5, r5, #16
   1069c:	02877001 	addeq	r7, r7, #1
   106a0:	058d400c 	streq	r4, [sp, #12]
   106a4:	05d23001 	ldrbeq	r3, [r2, #1]
   106a8:	158d500c 	strne	r5, [sp, #12]
   106ac:	eafffe48 	b	ffd4 <_vfiprintf_r+0x154>
   106b0:	e59d400c 	ldr	r4, [sp, #12]
   106b4:	e3140020 	tst	r4, #32
   106b8:	e5cd1047 	strb	r1, [sp, #71]	; 0x47
   106bc:	0a000239 	beq	10fa8 <_vfiprintf_r+0x1128>
   106c0:	e59d5028 	ldr	r5, [sp, #40]	; 0x28
   106c4:	e59d402c 	ldr	r4, [sp, #44]	; 0x2c
   106c8:	e5951000 	ldr	r1, [r5]
   106cc:	e1a05fc4 	asr	r5, r4, #31
   106d0:	e1a03005 	mov	r3, r5
   106d4:	e59d5028 	ldr	r5, [sp, #40]	; 0x28
   106d8:	e1a02004 	mov	r2, r4
   106dc:	e2855004 	add	r5, r5, #4
   106e0:	e58d5028 	str	r5, [sp, #40]	; 0x28
   106e4:	e881000c 	stm	r1, {r2, r3}
   106e8:	eafffe11 	b	ff34 <_vfiprintf_r+0xb4>
   106ec:	e59d4028 	ldr	r4, [sp, #40]	; 0x28
   106f0:	e5949000 	ldr	r9, [r4]
   106f4:	e59dc028 	ldr	ip, [sp, #40]	; 0x28
   106f8:	e3a04000 	mov	r4, #0
   106fc:	e1590004 	cmp	r9, r4
   10700:	e58d0018 	str	r0, [sp, #24]
   10704:	e28c5004 	add	r5, ip, #4
   10708:	e5cd4047 	strb	r4, [sp, #71]	; 0x47
   1070c:	0a000271 	beq	110d8 <_vfiprintf_r+0x1258>
   10710:	e59dc014 	ldr	ip, [sp, #20]
   10714:	e35c0000 	cmp	ip, #0
   10718:	e1a00009 	mov	r0, r9
   1071c:	ba000256 	blt	1107c <_vfiprintf_r+0x11fc>
   10720:	e1a01004 	mov	r1, r4
   10724:	e1a0200c 	mov	r2, ip
   10728:	ebfff708 	bl	e350 <memchr>
   1072c:	e3500000 	cmp	r0, #0
   10730:	0a00027c 	beq	11128 <_vfiprintf_r+0x12a8>
   10734:	e59dc014 	ldr	ip, [sp, #20]
   10738:	e0690000 	rsb	r0, r9, r0
   1073c:	e15c0000 	cmp	ip, r0
   10740:	a1a0c000 	movge	ip, r0
   10744:	e58dc01c 	str	ip, [sp, #28]
   10748:	e58d5028 	str	r5, [sp, #40]	; 0x28
   1074c:	e58d4014 	str	r4, [sp, #20]
   10750:	e5ddb047 	ldrb	fp, [sp, #71]	; 0x47
   10754:	eafffee5 	b	102f0 <_vfiprintf_r+0x470>
   10758:	e59dc00c 	ldr	ip, [sp, #12]
   1075c:	e38cc020 	orr	ip, ip, #32
   10760:	e58dc00c 	str	ip, [sp, #12]
   10764:	e5d73000 	ldrb	r3, [r7]
   10768:	eafffe19 	b	ffd4 <_vfiprintf_r+0x154>
   1076c:	e59d4028 	ldr	r4, [sp, #40]	; 0x28
   10770:	e5940000 	ldr	r0, [r4]
   10774:	e3500000 	cmp	r0, #0
   10778:	e2843004 	add	r3, r4, #4
   1077c:	bafffe93 	blt	101d0 <_vfiprintf_r+0x350>
   10780:	e58d3028 	str	r3, [sp, #40]	; 0x28
   10784:	e5d73000 	ldrb	r3, [r7]
   10788:	eafffe11 	b	ffd4 <_vfiprintf_r+0x154>
   1078c:	e5d73000 	ldrb	r3, [r7]
   10790:	e3a0102b 	mov	r1, #43	; 0x2b
   10794:	eafffe0e 	b	ffd4 <_vfiprintf_r+0x154>
   10798:	e5d73000 	ldrb	r3, [r7]
   1079c:	e353002a 	cmp	r3, #42	; 0x2a
   107a0:	e2874001 	add	r4, r7, #1
   107a4:	0a000269 	beq	11150 <_vfiprintf_r+0x12d0>
   107a8:	e2432030 	sub	r2, r3, #48	; 0x30
   107ac:	e3520009 	cmp	r2, #9
   107b0:	83a0c000 	movhi	ip, #0
   107b4:	81a07004 	movhi	r7, r4
   107b8:	858dc014 	strhi	ip, [sp, #20]
   107bc:	8afffe05 	bhi	ffd8 <_vfiprintf_r+0x158>
   107c0:	e3a0c000 	mov	ip, #0
   107c4:	e4d43001 	ldrb	r3, [r4], #1
   107c8:	e08cc10c 	add	ip, ip, ip, lsl #2
   107cc:	e082c08c 	add	ip, r2, ip, lsl #1
   107d0:	e2432030 	sub	r2, r3, #48	; 0x30
   107d4:	e3520009 	cmp	r2, #9
   107d8:	9afffff9 	bls	107c4 <_vfiprintf_r+0x944>
   107dc:	e18ccfcc 	orr	ip, ip, ip, asr #31
   107e0:	e58dc014 	str	ip, [sp, #20]
   107e4:	e1a07004 	mov	r7, r4
   107e8:	eafffdfa 	b	ffd8 <_vfiprintf_r+0x158>
   107ec:	e59d500c 	ldr	r5, [sp, #12]
   107f0:	e59f46ec 	ldr	r4, [pc, #1772]	; 10ee4 <_vfiprintf_r+0x1064>
   107f4:	e3150020 	tst	r5, #32
   107f8:	e58d0018 	str	r0, [sp, #24]
   107fc:	e5cd1047 	strb	r1, [sp, #71]	; 0x47
   10800:	e58d4030 	str	r4, [sp, #48]	; 0x30
   10804:	1affff67 	bne	105a8 <_vfiprintf_r+0x728>
   10808:	e59d500c 	ldr	r5, [sp, #12]
   1080c:	e3150010 	tst	r5, #16
   10810:	1a000177 	bne	10df4 <_vfiprintf_r+0xf74>
   10814:	e59d400c 	ldr	r4, [sp, #12]
   10818:	e3140040 	tst	r4, #64	; 0x40
   1081c:	0a000174 	beq	10df4 <_vfiprintf_r+0xf74>
   10820:	e59d5028 	ldr	r5, [sp, #40]	; 0x28
   10824:	e1d540b0 	ldrh	r4, [r5]
   10828:	e2855004 	add	r5, r5, #4
   1082c:	e58d5028 	str	r5, [sp, #40]	; 0x28
   10830:	e3a05000 	mov	r5, #0
   10834:	eaffff61 	b	105c0 <_vfiprintf_r+0x740>
   10838:	e3510000 	cmp	r1, #0
   1083c:	e5d73000 	ldrb	r3, [r7]
   10840:	03a01020 	moveq	r1, #32
   10844:	eafffde2 	b	ffd4 <_vfiprintf_r+0x154>
   10848:	e59dc00c 	ldr	ip, [sp, #12]
   1084c:	e38cc001 	orr	ip, ip, #1
   10850:	e58dc00c 	str	ip, [sp, #12]
   10854:	e5d73000 	ldrb	r3, [r7]
   10858:	eafffddd 	b	ffd4 <_vfiprintf_r+0x154>
   1085c:	e3530000 	cmp	r3, #0
   10860:	e58d0018 	str	r0, [sp, #24]
   10864:	e5cd1047 	strb	r1, [sp, #71]	; 0x47
   10868:	0a000095 	beq	10ac4 <_vfiprintf_r+0xc44>
   1086c:	e3a02000 	mov	r2, #0
   10870:	e3a05001 	mov	r5, #1
   10874:	e5cd3058 	strb	r3, [sp, #88]	; 0x58
   10878:	e5cd2047 	strb	r2, [sp, #71]	; 0x47
   1087c:	e58d501c 	str	r5, [sp, #28]
   10880:	e28d9058 	add	r9, sp, #88	; 0x58
   10884:	eaffff65 	b	10620 <_vfiprintf_r+0x7a0>
   10888:	e59d0020 	ldr	r0, [sp, #32]
   1088c:	e59d1010 	ldr	r1, [sp, #16]
   10890:	e28d204c 	add	r2, sp, #76	; 0x4c
   10894:	ebfffd48 	bl	fdbc <__sprint_r.part.0>
   10898:	e3500000 	cmp	r0, #0
   1089c:	1a00008e 	bne	10adc <_vfiprintf_r+0xc5c>
   108a0:	e28d0050 	add	r0, sp, #80	; 0x50
   108a4:	e8900003 	ldm	r0, {r0, r1}
   108a8:	e1a06008 	mov	r6, r8
   108ac:	e2803001 	add	r3, r0, #1
   108b0:	eafffeab 	b	10364 <_vfiprintf_r+0x4e4>
   108b4:	e59d3050 	ldr	r3, [sp, #80]	; 0x50
   108b8:	e59d1054 	ldr	r1, [sp, #84]	; 0x54
   108bc:	e2832001 	add	r2, r3, #1
   108c0:	e5dd0047 	ldrb	r0, [sp, #71]	; 0x47
   108c4:	e3500000 	cmp	r0, #0
   108c8:	0a00000b 	beq	108fc <_vfiprintf_r+0xa7c>
   108cc:	e2811001 	add	r1, r1, #1
   108d0:	e28d3047 	add	r3, sp, #71	; 0x47
   108d4:	e3a00001 	mov	r0, #1
   108d8:	e3520007 	cmp	r2, #7
   108dc:	e58d1054 	str	r1, [sp, #84]	; 0x54
   108e0:	e58d2050 	str	r2, [sp, #80]	; 0x50
   108e4:	e5863000 	str	r3, [r6]
   108e8:	e5860004 	str	r0, [r6, #4]
   108ec:	ca000120 	bgt	10d74 <_vfiprintf_r+0xef4>
   108f0:	e1a03002 	mov	r3, r2
   108f4:	e2866008 	add	r6, r6, #8
   108f8:	e0822000 	add	r2, r2, r0
   108fc:	e35c0000 	cmp	ip, #0
   10900:	0a00000a 	beq	10930 <_vfiprintf_r+0xab0>
   10904:	e2811002 	add	r1, r1, #2
   10908:	e28d0048 	add	r0, sp, #72	; 0x48
   1090c:	e3a03002 	mov	r3, #2
   10910:	e3520007 	cmp	r2, #7
   10914:	e58d1054 	str	r1, [sp, #84]	; 0x54
   10918:	e58d2050 	str	r2, [sp, #80]	; 0x50
   1091c:	e8860009 	stm	r6, {r0, r3}
   10920:	ca000119 	bgt	10d8c <_vfiprintf_r+0xf0c>
   10924:	e1a03002 	mov	r3, r2
   10928:	e2866008 	add	r6, r6, #8
   1092c:	e2822001 	add	r2, r2, #1
   10930:	e59d4024 	ldr	r4, [sp, #36]	; 0x24
   10934:	e3540080 	cmp	r4, #128	; 0x80
   10938:	0a0000d2 	beq	10c88 <_vfiprintf_r+0xe08>
   1093c:	e59d4014 	ldr	r4, [sp, #20]
   10940:	e59dc01c 	ldr	ip, [sp, #28]
   10944:	e06cb004 	rsb	fp, ip, r4
   10948:	e35b0000 	cmp	fp, #0
   1094c:	da000074 	ble	10b24 <_vfiprintf_r+0xca4>
   10950:	e35b0010 	cmp	fp, #16
   10954:	d59f3598 	ldrle	r3, [pc, #1432]	; 10ef4 <_vfiprintf_r+0x1074>
   10958:	d58d3024 	strle	r3, [sp, #36]	; 0x24
   1095c:	da00001e 	ble	109dc <_vfiprintf_r+0xb5c>
   10960:	e59f458c 	ldr	r4, [pc, #1420]	; 10ef4 <_vfiprintf_r+0x1074>
   10964:	e1a00006 	mov	r0, r6
   10968:	e58d4024 	str	r4, [sp, #36]	; 0x24
   1096c:	e1a06005 	mov	r6, r5
   10970:	e3a04010 	mov	r4, #16
   10974:	e59d5020 	ldr	r5, [sp, #32]
   10978:	ea000005 	b	10994 <_vfiprintf_r+0xb14>
   1097c:	e2832002 	add	r2, r3, #2
   10980:	e2800008 	add	r0, r0, #8
   10984:	e1a0300c 	mov	r3, ip
   10988:	e24bb010 	sub	fp, fp, #16
   1098c:	e35b0010 	cmp	fp, #16
   10990:	da00000f 	ble	109d4 <_vfiprintf_r+0xb54>
   10994:	e283c001 	add	ip, r3, #1
   10998:	e2811010 	add	r1, r1, #16
   1099c:	e35c0007 	cmp	ip, #7
   109a0:	e58d1054 	str	r1, [sp, #84]	; 0x54
   109a4:	e580a000 	str	sl, [r0]
   109a8:	e5804004 	str	r4, [r0, #4]
   109ac:	e58dc050 	str	ip, [sp, #80]	; 0x50
   109b0:	dafffff1 	ble	1097c <_vfiprintf_r+0xafc>
   109b4:	e3510000 	cmp	r1, #0
   109b8:	1a000036 	bne	10a98 <_vfiprintf_r+0xc18>
   109bc:	e24bb010 	sub	fp, fp, #16
   109c0:	e35b0010 	cmp	fp, #16
   109c4:	e1a03001 	mov	r3, r1
   109c8:	e3a02001 	mov	r2, #1
   109cc:	e1a00008 	mov	r0, r8
   109d0:	caffffef 	bgt	10994 <_vfiprintf_r+0xb14>
   109d4:	e1a05006 	mov	r5, r6
   109d8:	e1a06000 	mov	r6, r0
   109dc:	e59dc024 	ldr	ip, [sp, #36]	; 0x24
   109e0:	e3520007 	cmp	r2, #7
   109e4:	e08b1001 	add	r1, fp, r1
   109e8:	e586c000 	str	ip, [r6]
   109ec:	e586b004 	str	fp, [r6, #4]
   109f0:	e58d2050 	str	r2, [sp, #80]	; 0x50
   109f4:	e58d1054 	str	r1, [sp, #84]	; 0x54
   109f8:	d2866008 	addle	r6, r6, #8
   109fc:	d2822001 	addle	r2, r2, #1
   10a00:	da000047 	ble	10b24 <_vfiprintf_r+0xca4>
   10a04:	e3510000 	cmp	r1, #0
   10a08:	1a00003b 	bne	10afc <_vfiprintf_r+0xc7c>
   10a0c:	e59d401c 	ldr	r4, [sp, #28]
   10a10:	e3a03001 	mov	r3, #1
   10a14:	e58d9080 	str	r9, [sp, #128]	; 0x80
   10a18:	e58d4084 	str	r4, [sp, #132]	; 0x84
   10a1c:	e58d4054 	str	r4, [sp, #84]	; 0x54
   10a20:	e58d3050 	str	r3, [sp, #80]	; 0x50
   10a24:	e1a01004 	mov	r1, r4
   10a28:	e1a06008 	mov	r6, r8
   10a2c:	e59d400c 	ldr	r4, [sp, #12]
   10a30:	e3140004 	tst	r4, #4
   10a34:	e2866008 	add	r6, r6, #8
   10a38:	1a000047 	bne	10b5c <_vfiprintf_r+0xcdc>
   10a3c:	e59d402c 	ldr	r4, [sp, #44]	; 0x2c
   10a40:	e59dc018 	ldr	ip, [sp, #24]
   10a44:	e155000c 	cmp	r5, ip
   10a48:	a0844005 	addge	r4, r4, r5
   10a4c:	b084400c 	addlt	r4, r4, ip
   10a50:	e3510000 	cmp	r1, #0
   10a54:	e58d402c 	str	r4, [sp, #44]	; 0x2c
   10a58:	0a000005 	beq	10a74 <_vfiprintf_r+0xbf4>
   10a5c:	e59d0020 	ldr	r0, [sp, #32]
   10a60:	e59d1010 	ldr	r1, [sp, #16]
   10a64:	e28d204c 	add	r2, sp, #76	; 0x4c
   10a68:	ebfffcd3 	bl	fdbc <__sprint_r.part.0>
   10a6c:	e3500000 	cmp	r0, #0
   10a70:	1a000019 	bne	10adc <_vfiprintf_r+0xc5c>
   10a74:	e3a03000 	mov	r3, #0
   10a78:	e58d3050 	str	r3, [sp, #80]	; 0x50
   10a7c:	e5d73000 	ldrb	r3, [r7]
   10a80:	e3530000 	cmp	r3, #0
   10a84:	13530025 	cmpne	r3, #37	; 0x25
   10a88:	e1a06008 	mov	r6, r8
   10a8c:	1afffd2c 	bne	ff44 <_vfiprintf_r+0xc4>
   10a90:	e1a04007 	mov	r4, r7
   10a94:	eafffd41 	b	ffa0 <_vfiprintf_r+0x120>
   10a98:	e1a00005 	mov	r0, r5
   10a9c:	e59d1010 	ldr	r1, [sp, #16]
   10aa0:	e28d204c 	add	r2, sp, #76	; 0x4c
   10aa4:	ebfffcc4 	bl	fdbc <__sprint_r.part.0>
   10aa8:	e3500000 	cmp	r0, #0
   10aac:	1a00000a 	bne	10adc <_vfiprintf_r+0xc5c>
   10ab0:	e59d3050 	ldr	r3, [sp, #80]	; 0x50
   10ab4:	e59d1054 	ldr	r1, [sp, #84]	; 0x54
   10ab8:	e2832001 	add	r2, r3, #1
   10abc:	e1a00008 	mov	r0, r8
   10ac0:	eaffffb0 	b	10988 <_vfiprintf_r+0xb08>
   10ac4:	e59d3054 	ldr	r3, [sp, #84]	; 0x54
   10ac8:	e3530000 	cmp	r3, #0
   10acc:	159d0020 	ldrne	r0, [sp, #32]
   10ad0:	159d1010 	ldrne	r1, [sp, #16]
   10ad4:	128d204c 	addne	r2, sp, #76	; 0x4c
   10ad8:	1bfffcb7 	blne	fdbc <__sprint_r.part.0>
   10adc:	e59d4010 	ldr	r4, [sp, #16]
   10ae0:	e1d430bc 	ldrh	r3, [r4, #12]
   10ae4:	e3130040 	tst	r3, #64	; 0x40
   10ae8:	1afffdb2 	bne	101b8 <_vfiprintf_r+0x338>
   10aec:	e59d002c 	ldr	r0, [sp, #44]	; 0x2c
   10af0:	e28dd0c4 	add	sp, sp, #196	; 0xc4
   10af4:	e8bd4ff0 	pop	{r4, r5, r6, r7, r8, r9, sl, fp, lr}
   10af8:	e12fff1e 	bx	lr
   10afc:	e59d0020 	ldr	r0, [sp, #32]
   10b00:	e59d1010 	ldr	r1, [sp, #16]
   10b04:	e28d204c 	add	r2, sp, #76	; 0x4c
   10b08:	ebfffcab 	bl	fdbc <__sprint_r.part.0>
   10b0c:	e3500000 	cmp	r0, #0
   10b10:	1afffff1 	bne	10adc <_vfiprintf_r+0xc5c>
   10b14:	e59d2050 	ldr	r2, [sp, #80]	; 0x50
   10b18:	e59d1054 	ldr	r1, [sp, #84]	; 0x54
   10b1c:	e2822001 	add	r2, r2, #1
   10b20:	e1a06008 	mov	r6, r8
   10b24:	e59dc01c 	ldr	ip, [sp, #28]
   10b28:	e3520007 	cmp	r2, #7
   10b2c:	e081100c 	add	r1, r1, ip
   10b30:	e58d1054 	str	r1, [sp, #84]	; 0x54
   10b34:	e8861200 	stm	r6, {r9, ip}
   10b38:	e58d2050 	str	r2, [sp, #80]	; 0x50
   10b3c:	daffffba 	ble	10a2c <_vfiprintf_r+0xbac>
   10b40:	e3510000 	cmp	r1, #0
   10b44:	1a0000a1 	bne	10dd0 <_vfiprintf_r+0xf50>
   10b48:	e58d1050 	str	r1, [sp, #80]	; 0x50
   10b4c:	e1a06008 	mov	r6, r8
   10b50:	e59d400c 	ldr	r4, [sp, #12]
   10b54:	e3140004 	tst	r4, #4
   10b58:	0affffb7 	beq	10a3c <_vfiprintf_r+0xbbc>
   10b5c:	e59dc018 	ldr	ip, [sp, #24]
   10b60:	e065400c 	rsb	r4, r5, ip
   10b64:	e3540000 	cmp	r4, #0
   10b68:	daffffb3 	ble	10a3c <_vfiprintf_r+0xbbc>
   10b6c:	e3540010 	cmp	r4, #16
   10b70:	da000167 	ble	11114 <_vfiprintf_r+0x1294>
   10b74:	e59fc374 	ldr	ip, [pc, #884]	; 10ef0 <_vfiprintf_r+0x1070>
   10b78:	e59d2050 	ldr	r2, [sp, #80]	; 0x50
   10b7c:	e58dc034 	str	ip, [sp, #52]	; 0x34
   10b80:	e3a09010 	mov	r9, #16
   10b84:	e59db020 	ldr	fp, [sp, #32]
   10b88:	ea000005 	b	10ba4 <_vfiprintf_r+0xd24>
   10b8c:	e2820002 	add	r0, r2, #2
   10b90:	e2866008 	add	r6, r6, #8
   10b94:	e1a02003 	mov	r2, r3
   10b98:	e2444010 	sub	r4, r4, #16
   10b9c:	e3540010 	cmp	r4, #16
   10ba0:	da00000f 	ble	10be4 <_vfiprintf_r+0xd64>
   10ba4:	e2823001 	add	r3, r2, #1
   10ba8:	e59f0340 	ldr	r0, [pc, #832]	; 10ef0 <_vfiprintf_r+0x1070>
   10bac:	e2811010 	add	r1, r1, #16
   10bb0:	e3530007 	cmp	r3, #7
   10bb4:	e58d1054 	str	r1, [sp, #84]	; 0x54
   10bb8:	e8860201 	stm	r6, {r0, r9}
   10bbc:	e58d3050 	str	r3, [sp, #80]	; 0x50
   10bc0:	dafffff1 	ble	10b8c <_vfiprintf_r+0xd0c>
   10bc4:	e3510000 	cmp	r1, #0
   10bc8:	1a000015 	bne	10c24 <_vfiprintf_r+0xda4>
   10bcc:	e2444010 	sub	r4, r4, #16
   10bd0:	e3540010 	cmp	r4, #16
   10bd4:	e1a02001 	mov	r2, r1
   10bd8:	e3a00001 	mov	r0, #1
   10bdc:	e1a06008 	mov	r6, r8
   10be0:	caffffef 	bgt	10ba4 <_vfiprintf_r+0xd24>
   10be4:	e59d3034 	ldr	r3, [sp, #52]	; 0x34
   10be8:	e0841001 	add	r1, r4, r1
   10bec:	e3500007 	cmp	r0, #7
   10bf0:	e58d1054 	str	r1, [sp, #84]	; 0x54
   10bf4:	e8860018 	stm	r6, {r3, r4}
   10bf8:	e58d0050 	str	r0, [sp, #80]	; 0x50
   10bfc:	daffff8e 	ble	10a3c <_vfiprintf_r+0xbbc>
   10c00:	e3510000 	cmp	r1, #0
   10c04:	1a000114 	bne	1105c <_vfiprintf_r+0x11dc>
   10c08:	e59d402c 	ldr	r4, [sp, #44]	; 0x2c
   10c0c:	e59dc018 	ldr	ip, [sp, #24]
   10c10:	e155000c 	cmp	r5, ip
   10c14:	a0844005 	addge	r4, r4, r5
   10c18:	b084400c 	addlt	r4, r4, ip
   10c1c:	e58d402c 	str	r4, [sp, #44]	; 0x2c
   10c20:	eaffff93 	b	10a74 <_vfiprintf_r+0xbf4>
   10c24:	e1a0000b 	mov	r0, fp
   10c28:	e59d1010 	ldr	r1, [sp, #16]
   10c2c:	e28d204c 	add	r2, sp, #76	; 0x4c
   10c30:	ebfffc61 	bl	fdbc <__sprint_r.part.0>
   10c34:	e3500000 	cmp	r0, #0
   10c38:	1affffa7 	bne	10adc <_vfiprintf_r+0xc5c>
   10c3c:	e59d2050 	ldr	r2, [sp, #80]	; 0x50
   10c40:	e59d1054 	ldr	r1, [sp, #84]	; 0x54
   10c44:	e2820001 	add	r0, r2, #1
   10c48:	e1a06008 	mov	r6, r8
   10c4c:	eaffffd1 	b	10b98 <_vfiprintf_r+0xd18>
   10c50:	e3530000 	cmp	r3, #0
   10c54:	158d201c 	strne	r2, [sp, #28]
   10c58:	11a09008 	movne	r9, r8
   10c5c:	1afffda3 	bne	102f0 <_vfiprintf_r+0x470>
   10c60:	e59d400c 	ldr	r4, [sp, #12]
   10c64:	e3140001 	tst	r4, #1
   10c68:	159d5038 	ldrne	r5, [sp, #56]	; 0x38
   10c6c:	13a03030 	movne	r3, #48	; 0x30
   10c70:	15cd307f 	strbne	r3, [sp, #127]	; 0x7f
   10c74:	158d501c 	strne	r5, [sp, #28]
   10c78:	128d907f 	addne	r9, sp, #127	; 0x7f
   10c7c:	058d301c 	streq	r3, [sp, #28]
   10c80:	01a09008 	moveq	r9, r8
   10c84:	eafffd99 	b	102f0 <_vfiprintf_r+0x470>
   10c88:	e59dc018 	ldr	ip, [sp, #24]
   10c8c:	e065b00c 	rsb	fp, r5, ip
   10c90:	e35b0000 	cmp	fp, #0
   10c94:	daffff28 	ble	1093c <_vfiprintf_r+0xabc>
   10c98:	e35b0010 	cmp	fp, #16
   10c9c:	da000127 	ble	11140 <_vfiprintf_r+0x12c0>
   10ca0:	e59f424c 	ldr	r4, [pc, #588]	; 10ef4 <_vfiprintf_r+0x1074>
   10ca4:	e1a0c006 	mov	ip, r6
   10ca8:	e58d4024 	str	r4, [sp, #36]	; 0x24
   10cac:	e1a06005 	mov	r6, r5
   10cb0:	e3a04010 	mov	r4, #16
   10cb4:	e59d5020 	ldr	r5, [sp, #32]
   10cb8:	ea000005 	b	10cd4 <_vfiprintf_r+0xe54>
   10cbc:	e2830002 	add	r0, r3, #2
   10cc0:	e28cc008 	add	ip, ip, #8
   10cc4:	e1a03002 	mov	r3, r2
   10cc8:	e24bb010 	sub	fp, fp, #16
   10ccc:	e35b0010 	cmp	fp, #16
   10cd0:	da00000f 	ble	10d14 <_vfiprintf_r+0xe94>
   10cd4:	e2832001 	add	r2, r3, #1
   10cd8:	e2811010 	add	r1, r1, #16
   10cdc:	e3520007 	cmp	r2, #7
   10ce0:	e58d1054 	str	r1, [sp, #84]	; 0x54
   10ce4:	e58ca000 	str	sl, [ip]
   10ce8:	e58c4004 	str	r4, [ip, #4]
   10cec:	e58d2050 	str	r2, [sp, #80]	; 0x50
   10cf0:	dafffff1 	ble	10cbc <_vfiprintf_r+0xe3c>
   10cf4:	e3510000 	cmp	r1, #0
   10cf8:	1a000012 	bne	10d48 <_vfiprintf_r+0xec8>
   10cfc:	e24bb010 	sub	fp, fp, #16
   10d00:	e35b0010 	cmp	fp, #16
   10d04:	e1a03001 	mov	r3, r1
   10d08:	e3a00001 	mov	r0, #1
   10d0c:	e1a0c008 	mov	ip, r8
   10d10:	caffffef 	bgt	10cd4 <_vfiprintf_r+0xe54>
   10d14:	e1a05006 	mov	r5, r6
   10d18:	e1a0600c 	mov	r6, ip
   10d1c:	e59d3024 	ldr	r3, [sp, #36]	; 0x24
   10d20:	e08b1001 	add	r1, fp, r1
   10d24:	e3500007 	cmp	r0, #7
   10d28:	e58d1054 	str	r1, [sp, #84]	; 0x54
   10d2c:	e8860808 	stm	r6, {r3, fp}
   10d30:	e58d0050 	str	r0, [sp, #80]	; 0x50
   10d34:	ca00005b 	bgt	10ea8 <_vfiprintf_r+0x1028>
   10d38:	e2866008 	add	r6, r6, #8
   10d3c:	e2802001 	add	r2, r0, #1
   10d40:	e1a03000 	mov	r3, r0
   10d44:	eafffefc 	b	1093c <_vfiprintf_r+0xabc>
   10d48:	e1a00005 	mov	r0, r5
   10d4c:	e59d1010 	ldr	r1, [sp, #16]
   10d50:	e28d204c 	add	r2, sp, #76	; 0x4c
   10d54:	ebfffc18 	bl	fdbc <__sprint_r.part.0>
   10d58:	e3500000 	cmp	r0, #0
   10d5c:	1affff5e 	bne	10adc <_vfiprintf_r+0xc5c>
   10d60:	e59d3050 	ldr	r3, [sp, #80]	; 0x50
   10d64:	e59d1054 	ldr	r1, [sp, #84]	; 0x54
   10d68:	e2830001 	add	r0, r3, #1
   10d6c:	e1a0c008 	mov	ip, r8
   10d70:	eaffffd4 	b	10cc8 <_vfiprintf_r+0xe48>
   10d74:	e3510000 	cmp	r1, #0
   10d78:	1a000032 	bne	10e48 <_vfiprintf_r+0xfc8>
   10d7c:	e1a03001 	mov	r3, r1
   10d80:	e1a02000 	mov	r2, r0
   10d84:	e1a06008 	mov	r6, r8
   10d88:	eafffedb 	b	108fc <_vfiprintf_r+0xa7c>
   10d8c:	e3510000 	cmp	r1, #0
   10d90:	1a000039 	bne	10e7c <_vfiprintf_r+0xffc>
   10d94:	e1a03001 	mov	r3, r1
   10d98:	e3a02001 	mov	r2, #1
   10d9c:	e1a06008 	mov	r6, r8
   10da0:	eafffee2 	b	10930 <_vfiprintf_r+0xab0>
   10da4:	e3a03002 	mov	r3, #2
   10da8:	eafffd1a 	b	10218 <_vfiprintf_r+0x398>
   10dac:	e3550000 	cmp	r5, #0
   10db0:	03540009 	cmpeq	r4, #9
   10db4:	8a00004f 	bhi	10ef8 <_vfiprintf_r+0x1078>
   10db8:	e59d5038 	ldr	r5, [sp, #56]	; 0x38
   10dbc:	e2844030 	add	r4, r4, #48	; 0x30
   10dc0:	e5cd407f 	strb	r4, [sp, #127]	; 0x7f
   10dc4:	e58d501c 	str	r5, [sp, #28]
   10dc8:	e28d907f 	add	r9, sp, #127	; 0x7f
   10dcc:	eafffd47 	b	102f0 <_vfiprintf_r+0x470>
   10dd0:	e59d0020 	ldr	r0, [sp, #32]
   10dd4:	e59d1010 	ldr	r1, [sp, #16]
   10dd8:	e28d204c 	add	r2, sp, #76	; 0x4c
   10ddc:	ebfffbf6 	bl	fdbc <__sprint_r.part.0>
   10de0:	e3500000 	cmp	r0, #0
   10de4:	1affff3c 	bne	10adc <_vfiprintf_r+0xc5c>
   10de8:	e59d1054 	ldr	r1, [sp, #84]	; 0x54
   10dec:	e1a06008 	mov	r6, r8
   10df0:	eaffff56 	b	10b50 <_vfiprintf_r+0xcd0>
   10df4:	e59dc028 	ldr	ip, [sp, #40]	; 0x28
   10df8:	e59c4000 	ldr	r4, [ip]
   10dfc:	e28cc004 	add	ip, ip, #4
   10e00:	e58dc028 	str	ip, [sp, #40]	; 0x28
   10e04:	e3a05000 	mov	r5, #0
   10e08:	eafffdec 	b	105c0 <_vfiprintf_r+0x740>
   10e0c:	e59dc028 	ldr	ip, [sp, #40]	; 0x28
   10e10:	e59c4000 	ldr	r4, [ip]
   10e14:	e28cc004 	add	ip, ip, #4
   10e18:	e3a03001 	mov	r3, #1
   10e1c:	e58dc028 	str	ip, [sp, #40]	; 0x28
   10e20:	e3a05000 	mov	r5, #0
   10e24:	eafffcfb 	b	10218 <_vfiprintf_r+0x398>
   10e28:	e59d0020 	ldr	r0, [sp, #32]
   10e2c:	e59d1010 	ldr	r1, [sp, #16]
   10e30:	e28d204c 	add	r2, sp, #76	; 0x4c
   10e34:	ebfffbe0 	bl	fdbc <__sprint_r.part.0>
   10e38:	e3500000 	cmp	r0, #0
   10e3c:	1affff26 	bne	10adc <_vfiprintf_r+0xc5c>
   10e40:	e1a06008 	mov	r6, r8
   10e44:	eafffc52 	b	ff94 <_vfiprintf_r+0x114>
   10e48:	e59d0020 	ldr	r0, [sp, #32]
   10e4c:	e59d1010 	ldr	r1, [sp, #16]
   10e50:	e28d204c 	add	r2, sp, #76	; 0x4c
   10e54:	e58dc004 	str	ip, [sp, #4]
   10e58:	ebfffbd7 	bl	fdbc <__sprint_r.part.0>
   10e5c:	e3500000 	cmp	r0, #0
   10e60:	e59dc004 	ldr	ip, [sp, #4]
   10e64:	1affff1c 	bne	10adc <_vfiprintf_r+0xc5c>
   10e68:	e59d3050 	ldr	r3, [sp, #80]	; 0x50
   10e6c:	e59d1054 	ldr	r1, [sp, #84]	; 0x54
   10e70:	e2832001 	add	r2, r3, #1
   10e74:	e1a06008 	mov	r6, r8
   10e78:	eafffe9f 	b	108fc <_vfiprintf_r+0xa7c>
   10e7c:	e59d0020 	ldr	r0, [sp, #32]
   10e80:	e59d1010 	ldr	r1, [sp, #16]
   10e84:	e28d204c 	add	r2, sp, #76	; 0x4c
   10e88:	ebfffbcb 	bl	fdbc <__sprint_r.part.0>
   10e8c:	e3500000 	cmp	r0, #0
   10e90:	1affff11 	bne	10adc <_vfiprintf_r+0xc5c>
   10e94:	e59d3050 	ldr	r3, [sp, #80]	; 0x50
   10e98:	e59d1054 	ldr	r1, [sp, #84]	; 0x54
   10e9c:	e2832001 	add	r2, r3, #1
   10ea0:	e1a06008 	mov	r6, r8
   10ea4:	eafffea1 	b	10930 <_vfiprintf_r+0xab0>
   10ea8:	e3510000 	cmp	r1, #0
   10eac:	1a000078 	bne	11094 <_vfiprintf_r+0x1214>
   10eb0:	e1a03001 	mov	r3, r1
   10eb4:	e3a02001 	mov	r2, #1
   10eb8:	e1a06008 	mov	r6, r8
   10ebc:	eafffe9e 	b	1093c <_vfiprintf_r+0xabc>
   10ec0:	e3530030 	cmp	r3, #48	; 0x30
   10ec4:	11a09002 	movne	r9, r2
   10ec8:	0069c008 	rsbeq	ip, r9, r8
   10ecc:	13a03030 	movne	r3, #48	; 0x30
   10ed0:	10694008 	rsbne	r4, r9, r8
   10ed4:	058dc01c 	streq	ip, [sp, #28]
   10ed8:	158d401c 	strne	r4, [sp, #28]
   10edc:	15413001 	strbne	r3, [r1, #-1]
   10ee0:	eafffd02 	b	102f0 <_vfiprintf_r+0x470>
   10ee4:	0001274c 	.word	0x0001274c
   10ee8:	00012738 	.word	0x00012738
   10eec:	00012760 	.word	0x00012760
   10ef0:	000129d0 	.word	0x000129d0
   10ef4:	000129e0 	.word	0x000129e0
   10ef8:	e28dc07f 	add	ip, sp, #127	; 0x7f
   10efc:	e58d601c 	str	r6, [sp, #28]
   10f00:	e1a0600c 	mov	r6, ip
   10f04:	e1a00004 	mov	r0, r4
   10f08:	e1a01005 	mov	r1, r5
   10f0c:	e3a0200a 	mov	r2, #10
   10f10:	e3a03000 	mov	r3, #0
   10f14:	eb0002ff 	bl	11b18 <__aeabi_uldivmod>
   10f18:	e2822030 	add	r2, r2, #48	; 0x30
   10f1c:	e5c62000 	strb	r2, [r6]
   10f20:	e1a00004 	mov	r0, r4
   10f24:	e1a01005 	mov	r1, r5
   10f28:	e3a0200a 	mov	r2, #10
   10f2c:	e3a03000 	mov	r3, #0
   10f30:	eb0002f8 	bl	11b18 <__aeabi_uldivmod>
   10f34:	e1a04000 	mov	r4, r0
   10f38:	e1a05001 	mov	r5, r1
   10f3c:	e194c005 	orrs	ip, r4, r5
   10f40:	e1a09006 	mov	r9, r6
   10f44:	e2466001 	sub	r6, r6, #1
   10f48:	1affffed 	bne	10f04 <_vfiprintf_r+0x1084>
   10f4c:	e0693008 	rsb	r3, r9, r8
   10f50:	e59d601c 	ldr	r6, [sp, #28]
   10f54:	e58d301c 	str	r3, [sp, #28]
   10f58:	eafffce4 	b	102f0 <_vfiprintf_r+0x470>
   10f5c:	e3a0b02d 	mov	fp, #45	; 0x2d
   10f60:	e2744000 	rsbs	r4, r4, #0
   10f64:	e2e55000 	rsc	r5, r5, #0
   10f68:	e5cdb047 	strb	fp, [sp, #71]	; 0x47
   10f6c:	e3a03001 	mov	r3, #1
   10f70:	eafffcaa 	b	10220 <_vfiprintf_r+0x3a0>
   10f74:	e59dc00c 	ldr	ip, [sp, #12]
   10f78:	e21c3040 	ands	r3, ip, #64	; 0x40
   10f7c:	159d5028 	ldrne	r5, [sp, #40]	; 0x28
   10f80:	059dc028 	ldreq	ip, [sp, #40]	; 0x28
   10f84:	11d540b0 	ldrhne	r4, [r5]
   10f88:	059c4000 	ldreq	r4, [ip]
   10f8c:	12855004 	addne	r5, r5, #4
   10f90:	028cc004 	addeq	ip, ip, #4
   10f94:	158d5028 	strne	r5, [sp, #40]	; 0x28
   10f98:	11a03002 	movne	r3, r2
   10f9c:	058dc028 	streq	ip, [sp, #40]	; 0x28
   10fa0:	e3a05000 	mov	r5, #0
   10fa4:	eafffc9b 	b	10218 <_vfiprintf_r+0x398>
   10fa8:	e59dc00c 	ldr	ip, [sp, #12]
   10fac:	e31c0010 	tst	ip, #16
   10fb0:	1a000022 	bne	11040 <_vfiprintf_r+0x11c0>
   10fb4:	e59dc00c 	ldr	ip, [sp, #12]
   10fb8:	e31c0040 	tst	ip, #64	; 0x40
   10fbc:	0a00004d 	beq	110f8 <_vfiprintf_r+0x1278>
   10fc0:	e59d4028 	ldr	r4, [sp, #40]	; 0x28
   10fc4:	e59d502c 	ldr	r5, [sp, #44]	; 0x2c
   10fc8:	e5943000 	ldr	r3, [r4]
   10fcc:	e2844004 	add	r4, r4, #4
   10fd0:	e58d4028 	str	r4, [sp, #40]	; 0x28
   10fd4:	e1c350b0 	strh	r5, [r3]
   10fd8:	eafffbd5 	b	ff34 <_vfiprintf_r+0xb4>
   10fdc:	e59d400c 	ldr	r4, [sp, #12]
   10fe0:	e59d5028 	ldr	r5, [sp, #40]	; 0x28
   10fe4:	e3140040 	tst	r4, #64	; 0x40
   10fe8:	11d540f0 	ldrshne	r4, [r5]
   10fec:	05954000 	ldreq	r4, [r5]
   10ff0:	e59dc028 	ldr	ip, [sp, #40]	; 0x28
   10ff4:	e1a05fc4 	asr	r5, r4, #31
   10ff8:	e28cc004 	add	ip, ip, #4
   10ffc:	e58dc028 	str	ip, [sp, #40]	; 0x28
   11000:	e1a02004 	mov	r2, r4
   11004:	e1a03005 	mov	r3, r5
   11008:	eafffd35 	b	104e4 <_vfiprintf_r+0x664>
   1100c:	e59d0020 	ldr	r0, [sp, #32]
   11010:	e59d1010 	ldr	r1, [sp, #16]
   11014:	e28d204c 	add	r2, sp, #76	; 0x4c
   11018:	e58dc004 	str	ip, [sp, #4]
   1101c:	ebfffb66 	bl	fdbc <__sprint_r.part.0>
   11020:	e3500000 	cmp	r0, #0
   11024:	e59dc004 	ldr	ip, [sp, #4]
   11028:	1afffeab 	bne	10adc <_vfiprintf_r+0xc5c>
   1102c:	e59d3050 	ldr	r3, [sp, #80]	; 0x50
   11030:	e59d1054 	ldr	r1, [sp, #84]	; 0x54
   11034:	e2832001 	add	r2, r3, #1
   11038:	e1a06008 	mov	r6, r8
   1103c:	eafffe1f 	b	108c0 <_vfiprintf_r+0xa40>
   11040:	e59d4028 	ldr	r4, [sp, #40]	; 0x28
   11044:	e59d502c 	ldr	r5, [sp, #44]	; 0x2c
   11048:	e5943000 	ldr	r3, [r4]
   1104c:	e2844004 	add	r4, r4, #4
   11050:	e58d4028 	str	r4, [sp, #40]	; 0x28
   11054:	e5835000 	str	r5, [r3]
   11058:	eafffbb5 	b	ff34 <_vfiprintf_r+0xb4>
   1105c:	e59d0020 	ldr	r0, [sp, #32]
   11060:	e59d1010 	ldr	r1, [sp, #16]
   11064:	e28d204c 	add	r2, sp, #76	; 0x4c
   11068:	ebfffb53 	bl	fdbc <__sprint_r.part.0>
   1106c:	e3500000 	cmp	r0, #0
   11070:	1afffe99 	bne	10adc <_vfiprintf_r+0xc5c>
   11074:	e59d1054 	ldr	r1, [sp, #84]	; 0x54
   11078:	eafffe6f 	b	10a3c <_vfiprintf_r+0xbbc>
   1107c:	e58d5028 	str	r5, [sp, #40]	; 0x28
   11080:	e58d4014 	str	r4, [sp, #20]
   11084:	ebffe0bc 	bl	937c <strlen>
   11088:	e5ddb047 	ldrb	fp, [sp, #71]	; 0x47
   1108c:	e58d001c 	str	r0, [sp, #28]
   11090:	eafffc96 	b	102f0 <_vfiprintf_r+0x470>
   11094:	e59d0020 	ldr	r0, [sp, #32]
   11098:	e59d1010 	ldr	r1, [sp, #16]
   1109c:	e28d204c 	add	r2, sp, #76	; 0x4c
   110a0:	ebfffb45 	bl	fdbc <__sprint_r.part.0>
   110a4:	e3500000 	cmp	r0, #0
   110a8:	1afffe8b 	bne	10adc <_vfiprintf_r+0xc5c>
   110ac:	e59d3050 	ldr	r3, [sp, #80]	; 0x50
   110b0:	e59d1054 	ldr	r1, [sp, #84]	; 0x54
   110b4:	e2832001 	add	r2, r3, #1
   110b8:	e1a06008 	mov	r6, r8
   110bc:	eafffe1e 	b	1093c <_vfiprintf_r+0xabc>
   110c0:	e59d3050 	ldr	r3, [sp, #80]	; 0x50
   110c4:	e51f21dc 	ldr	r2, [pc, #-476]	; 10ef0 <_vfiprintf_r+0x1070>
   110c8:	e59d1054 	ldr	r1, [sp, #84]	; 0x54
   110cc:	e2833001 	add	r3, r3, #1
   110d0:	e58d2034 	str	r2, [sp, #52]	; 0x34
   110d4:	eafffcb7 	b	103b8 <_vfiprintf_r+0x538>
   110d8:	e59d4014 	ldr	r4, [sp, #20]
   110dc:	e3540006 	cmp	r4, #6
   110e0:	23a04006 	movcs	r4, #6
   110e4:	e58d5028 	str	r5, [sp, #40]	; 0x28
   110e8:	e58d401c 	str	r4, [sp, #28]
   110ec:	e1c45fc4 	bic	r5, r4, r4, asr #31
   110f0:	e51f920c 	ldr	r9, [pc, #-524]	; 10eec <_vfiprintf_r+0x106c>
   110f4:	eafffd49 	b	10620 <_vfiprintf_r+0x7a0>
   110f8:	e59dc028 	ldr	ip, [sp, #40]	; 0x28
   110fc:	e59d402c 	ldr	r4, [sp, #44]	; 0x2c
   11100:	e59c3000 	ldr	r3, [ip]
   11104:	e28cc004 	add	ip, ip, #4
   11108:	e58dc028 	str	ip, [sp, #40]	; 0x28
   1110c:	e5834000 	str	r4, [r3]
   11110:	eafffb87 	b	ff34 <_vfiprintf_r+0xb4>
   11114:	e59d0050 	ldr	r0, [sp, #80]	; 0x50
   11118:	e51f3230 	ldr	r3, [pc, #-560]	; 10ef0 <_vfiprintf_r+0x1070>
   1111c:	e2800001 	add	r0, r0, #1
   11120:	e58d3034 	str	r3, [sp, #52]	; 0x34
   11124:	eafffeae 	b	10be4 <_vfiprintf_r+0xd64>
   11128:	e59dc014 	ldr	ip, [sp, #20]
   1112c:	e5ddb047 	ldrb	fp, [sp, #71]	; 0x47
   11130:	e58dc01c 	str	ip, [sp, #28]
   11134:	e58d5028 	str	r5, [sp, #40]	; 0x28
   11138:	e58d0014 	str	r0, [sp, #20]
   1113c:	eafffc6b 	b	102f0 <_vfiprintf_r+0x470>
   11140:	e51fc254 	ldr	ip, [pc, #-596]	; 10ef4 <_vfiprintf_r+0x1074>
   11144:	e1a00002 	mov	r0, r2
   11148:	e58dc024 	str	ip, [sp, #36]	; 0x24
   1114c:	eafffef2 	b	10d1c <_vfiprintf_r+0xe9c>
   11150:	e59d5028 	ldr	r5, [sp, #40]	; 0x28
   11154:	e5955000 	ldr	r5, [r5]
   11158:	e59dc028 	ldr	ip, [sp, #40]	; 0x28
   1115c:	e3550000 	cmp	r5, #0
   11160:	e5d73001 	ldrb	r3, [r7, #1]
   11164:	e28c2004 	add	r2, ip, #4
   11168:	e1a07004 	mov	r7, r4
   1116c:	b3e04000 	mvnlt	r4, #0
   11170:	e58d5014 	str	r5, [sp, #20]
   11174:	e58d2028 	str	r2, [sp, #40]	; 0x28
   11178:	b58d4014 	strlt	r4, [sp, #20]
   1117c:	eafffb94 	b	ffd4 <_vfiprintf_r+0x154>

00011180 <vfiprintf>:
   11180:	e59fc01c 	ldr	ip, [pc, #28]	; 111a4 <vfiprintf+0x24>
   11184:	e52d4004 	push	{r4}		; (str r4, [sp, #-4]!)
   11188:	e1a04001 	mov	r4, r1
   1118c:	e1a03002 	mov	r3, r2
   11190:	e1a01000 	mov	r1, r0
   11194:	e1a02004 	mov	r2, r4
   11198:	e59c0000 	ldr	r0, [ip]
   1119c:	e49d4004 	pop	{r4}		; (ldr r4, [sp], #4)
   111a0:	eafffb36 	b	fe80 <_vfiprintf_r>
   111a4:	00012e30 	.word	0x00012e30

000111a8 <__sbprintf>:
   111a8:	e92d4ff0 	push	{r4, r5, r6, r7, r8, r9, sl, fp, lr}
   111ac:	e24dde46 	sub	sp, sp, #1120	; 0x460
   111b0:	e24dd00c 	sub	sp, sp, #12
   111b4:	e1d150bc 	ldrh	r5, [r1, #12]
   111b8:	e59fc0b0 	ldr	ip, [pc, #176]	; 11270 <__sbprintf+0xc8>
   111bc:	e28dbe46 	add	fp, sp, #1120	; 0x460
   111c0:	e5916024 	ldr	r6, [r1, #36]	; 0x24
   111c4:	e591a064 	ldr	sl, [r1, #100]	; 0x64
   111c8:	e1d190be 	ldrh	r9, [r1, #14]
   111cc:	e591701c 	ldr	r7, [r1, #28]
   111d0:	e3c55002 	bic	r5, r5, #2
   111d4:	e28bb008 	add	fp, fp, #8
   111d8:	e59f8094 	ldr	r8, [pc, #148]	; 11274 <__sbprintf+0xcc>
   111dc:	e28de068 	add	lr, sp, #104	; 0x68
   111e0:	e18b50bc 	strh	r5, [fp, ip]
   111e4:	e1a04001 	mov	r4, r1
   111e8:	e3a0cb01 	mov	ip, #1024	; 0x400
   111ec:	e3a05000 	mov	r5, #0
   111f0:	e1a0100d 	mov	r1, sp
   111f4:	e58d6024 	str	r6, [sp, #36]	; 0x24
   111f8:	e58d5018 	str	r5, [sp, #24]
   111fc:	e58da064 	str	sl, [sp, #100]	; 0x64
   11200:	e18b90b8 	strh	r9, [fp, r8]
   11204:	e58d701c 	str	r7, [sp, #28]
   11208:	e58de000 	str	lr, [sp]
   1120c:	e58de010 	str	lr, [sp, #16]
   11210:	e58dc008 	str	ip, [sp, #8]
   11214:	e58dc014 	str	ip, [sp, #20]
   11218:	e1a06000 	mov	r6, r0
   1121c:	ebfffb17 	bl	fe80 <_vfiprintf_r>
   11220:	e2505000 	subs	r5, r0, #0
   11224:	ba000004 	blt	1123c <__sbprintf+0x94>
   11228:	e1a00006 	mov	r0, r6
   1122c:	e1a0100d 	mov	r1, sp
   11230:	ebffee93 	bl	cc84 <_fflush_r>
   11234:	e3500000 	cmp	r0, #0
   11238:	13e05000 	mvnne	r5, #0
   1123c:	e28d2e46 	add	r2, sp, #1120	; 0x460
   11240:	e59f3028 	ldr	r3, [pc, #40]	; 11270 <__sbprintf+0xc8>
   11244:	e2822008 	add	r2, r2, #8
   11248:	e19230b3 	ldrh	r3, [r2, r3]
   1124c:	e3130040 	tst	r3, #64	; 0x40
   11250:	11d430bc 	ldrhne	r3, [r4, #12]
   11254:	e1a00005 	mov	r0, r5
   11258:	13833040 	orrne	r3, r3, #64	; 0x40
   1125c:	11c430bc 	strhne	r3, [r4, #12]
   11260:	e28dde46 	add	sp, sp, #1120	; 0x460
   11264:	e28dd00c 	add	sp, sp, #12
   11268:	e8bd4ff0 	pop	{r4, r5, r6, r7, r8, r9, sl, fp, lr}
   1126c:	e12fff1e 	bx	lr
   11270:	fffffba4 	.word	0xfffffba4
   11274:	fffffba6 	.word	0xfffffba6

00011278 <_write_r>:
   11278:	e92d4038 	push	{r3, r4, r5, lr}
   1127c:	e59f4034 	ldr	r4, [pc, #52]	; 112b8 <_write_r+0x40>
   11280:	e3a0c000 	mov	ip, #0
   11284:	e1a05000 	mov	r5, r0
   11288:	e1a00001 	mov	r0, r1
   1128c:	e1a01002 	mov	r1, r2
   11290:	e1a02003 	mov	r2, r3
   11294:	e584c000 	str	ip, [r4]
   11298:	ebffdc78 	bl	8480 <_write>
   1129c:	e3700001 	cmn	r0, #1
   112a0:	1a000002 	bne	112b0 <_write_r+0x38>
   112a4:	e5943000 	ldr	r3, [r4]
   112a8:	e3530000 	cmp	r3, #0
   112ac:	15853000 	strne	r3, [r5]
   112b0:	e8bd4038 	pop	{r3, r4, r5, lr}
   112b4:	e12fff1e 	bx	lr
   112b8:	00013478 	.word	0x00013478

000112bc <_calloc_r>:
   112bc:	e92d4010 	push	{r4, lr}
   112c0:	e0010192 	mul	r1, r2, r1
   112c4:	ebfff24e 	bl	dc04 <_malloc_r>
   112c8:	e2504000 	subs	r4, r0, #0
   112cc:	0a00000b 	beq	11300 <_calloc_r+0x44>
   112d0:	e5142004 	ldr	r2, [r4, #-4]
   112d4:	e3c22003 	bic	r2, r2, #3
   112d8:	e2422004 	sub	r2, r2, #4
   112dc:	e3520024 	cmp	r2, #36	; 0x24
   112e0:	8a000017 	bhi	11344 <_calloc_r+0x88>
   112e4:	e3520013 	cmp	r2, #19
   112e8:	91a03004 	movls	r3, r4
   112ec:	8a000006 	bhi	1130c <_calloc_r+0x50>
   112f0:	e3a02000 	mov	r2, #0
   112f4:	e5832000 	str	r2, [r3]
   112f8:	e5832004 	str	r2, [r3, #4]
   112fc:	e5832008 	str	r2, [r3, #8]
   11300:	e1a00004 	mov	r0, r4
   11304:	e8bd4010 	pop	{r4, lr}
   11308:	e12fff1e 	bx	lr
   1130c:	e3a03000 	mov	r3, #0
   11310:	e352001b 	cmp	r2, #27
   11314:	e5843000 	str	r3, [r4]
   11318:	e5843004 	str	r3, [r4, #4]
   1131c:	92843008 	addls	r3, r4, #8
   11320:	9afffff2 	bls	112f0 <_calloc_r+0x34>
   11324:	e3520024 	cmp	r2, #36	; 0x24
   11328:	e5843008 	str	r3, [r4, #8]
   1132c:	e584300c 	str	r3, [r4, #12]
   11330:	05843010 	streq	r3, [r4, #16]
   11334:	05843014 	streq	r3, [r4, #20]
   11338:	12843010 	addne	r3, r4, #16
   1133c:	02843018 	addeq	r3, r4, #24
   11340:	eaffffea 	b	112f0 <_calloc_r+0x34>
   11344:	e3a01000 	mov	r1, #0
   11348:	ebfff4ce 	bl	e688 <memset>
   1134c:	e1a00004 	mov	r0, r4
   11350:	e8bd4010 	pop	{r4, lr}
   11354:	e12fff1e 	bx	lr

00011358 <_close_r>:
   11358:	e92d4038 	push	{r3, r4, r5, lr}
   1135c:	e59f402c 	ldr	r4, [pc, #44]	; 11390 <_close_r+0x38>
   11360:	e3a03000 	mov	r3, #0
   11364:	e1a05000 	mov	r5, r0
   11368:	e1a00001 	mov	r0, r1
   1136c:	e5843000 	str	r3, [r4]
   11370:	ebffdbf7 	bl	8354 <_close>
   11374:	e3700001 	cmn	r0, #1
   11378:	1a000002 	bne	11388 <_close_r+0x30>
   1137c:	e5943000 	ldr	r3, [r4]
   11380:	e3530000 	cmp	r3, #0
   11384:	15853000 	strne	r3, [r5]
   11388:	e8bd4038 	pop	{r3, r4, r5, lr}
   1138c:	e12fff1e 	bx	lr
   11390:	00013478 	.word	0x00013478

00011394 <_fclose_r>:
   11394:	e92d4070 	push	{r4, r5, r6, lr}
   11398:	e2514000 	subs	r4, r1, #0
   1139c:	e1a05000 	mov	r5, r0
   113a0:	0a000007 	beq	113c4 <_fclose_r+0x30>
   113a4:	e3500000 	cmp	r0, #0
   113a8:	0a000002 	beq	113b8 <_fclose_r+0x24>
   113ac:	e5903038 	ldr	r3, [r0, #56]	; 0x38
   113b0:	e3530000 	cmp	r3, #0
   113b4:	0a00002c 	beq	1146c <_fclose_r+0xd8>
   113b8:	e1d430fc 	ldrsh	r3, [r4, #12]
   113bc:	e3530000 	cmp	r3, #0
   113c0:	1a000002 	bne	113d0 <_fclose_r+0x3c>
   113c4:	e3a00000 	mov	r0, #0
   113c8:	e8bd4070 	pop	{r4, r5, r6, lr}
   113cc:	e12fff1e 	bx	lr
   113d0:	e1a00005 	mov	r0, r5
   113d4:	e1a01004 	mov	r1, r4
   113d8:	ebffee29 	bl	cc84 <_fflush_r>
   113dc:	e594302c 	ldr	r3, [r4, #44]	; 0x2c
   113e0:	e3530000 	cmp	r3, #0
   113e4:	e1a06000 	mov	r6, r0
   113e8:	0a000005 	beq	11404 <_fclose_r+0x70>
   113ec:	e1a00005 	mov	r0, r5
   113f0:	e594101c 	ldr	r1, [r4, #28]
   113f4:	e1a0e00f 	mov	lr, pc
   113f8:	e12fff13 	bx	r3
   113fc:	e3500000 	cmp	r0, #0
   11400:	b3e06000 	mvnlt	r6, #0
   11404:	e1d430bc 	ldrh	r3, [r4, #12]
   11408:	e3130080 	tst	r3, #128	; 0x80
   1140c:	1a000018 	bne	11474 <_fclose_r+0xe0>
   11410:	e5941030 	ldr	r1, [r4, #48]	; 0x30
   11414:	e3510000 	cmp	r1, #0
   11418:	0a000005 	beq	11434 <_fclose_r+0xa0>
   1141c:	e2843040 	add	r3, r4, #64	; 0x40
   11420:	e1510003 	cmp	r1, r3
   11424:	11a00005 	movne	r0, r5
   11428:	1bffef4e 	blne	d168 <_free_r>
   1142c:	e3a03000 	mov	r3, #0
   11430:	e5843030 	str	r3, [r4, #48]	; 0x30
   11434:	e5941044 	ldr	r1, [r4, #68]	; 0x44
   11438:	e3510000 	cmp	r1, #0
   1143c:	0a000003 	beq	11450 <_fclose_r+0xbc>
   11440:	e1a00005 	mov	r0, r5
   11444:	ebffef47 	bl	d168 <_free_r>
   11448:	e3a03000 	mov	r3, #0
   1144c:	e5843044 	str	r3, [r4, #68]	; 0x44
   11450:	ebffeeee 	bl	d010 <__sfp_lock_acquire>
   11454:	e3a03000 	mov	r3, #0
   11458:	e1c430bc 	strh	r3, [r4, #12]
   1145c:	ebffeeec 	bl	d014 <__sfp_lock_release>
   11460:	e1a00006 	mov	r0, r6
   11464:	e8bd4070 	pop	{r4, r5, r6, lr}
   11468:	e12fff1e 	bx	lr
   1146c:	ebffee4f 	bl	cdb0 <__sinit>
   11470:	eaffffd0 	b	113b8 <_fclose_r+0x24>
   11474:	e1a00005 	mov	r0, r5
   11478:	e5941010 	ldr	r1, [r4, #16]
   1147c:	ebffef39 	bl	d168 <_free_r>
   11480:	eaffffe2 	b	11410 <_fclose_r+0x7c>

00011484 <fclose>:
   11484:	e59f3008 	ldr	r3, [pc, #8]	; 11494 <fclose+0x10>
   11488:	e1a01000 	mov	r1, r0
   1148c:	e5930000 	ldr	r0, [r3]
   11490:	eaffffbf 	b	11394 <_fclose_r>
   11494:	00012e30 	.word	0x00012e30

00011498 <_fputwc_r>:
   11498:	e1d230bc 	ldrh	r3, [r2, #12]
   1149c:	e92d41f0 	push	{r4, r5, r6, r7, r8, lr}
   114a0:	e3130a02 	tst	r3, #8192	; 0x2000
   114a4:	e1a04002 	mov	r4, r2
   114a8:	05922064 	ldreq	r2, [r2, #100]	; 0x64
   114ac:	03833a02 	orreq	r3, r3, #8192	; 0x2000
   114b0:	03822a02 	orreq	r2, r2, #8192	; 0x2000
   114b4:	01c430bc 	strheq	r3, [r4, #12]
   114b8:	05842064 	streq	r2, [r4, #100]	; 0x64
   114bc:	e24dd008 	sub	sp, sp, #8
   114c0:	e1a07000 	mov	r7, r0
   114c4:	e1a06001 	mov	r6, r1
   114c8:	ebfff15b 	bl	da3c <__locale_mb_cur_max>
   114cc:	e3500001 	cmp	r0, #1
   114d0:	0a000036 	beq	115b0 <_fputwc_r+0x118>
   114d4:	e1a00007 	mov	r0, r7
   114d8:	e28d1004 	add	r1, sp, #4
   114dc:	e1a02006 	mov	r2, r6
   114e0:	e284305c 	add	r3, r4, #92	; 0x5c
   114e4:	eb0000dd 	bl	11860 <_wcrtomb_r>
   114e8:	e3700001 	cmn	r0, #1
   114ec:	e1a08000 	mov	r8, r0
   114f0:	0a000028 	beq	11598 <_fputwc_r+0x100>
   114f4:	e3500000 	cmp	r0, #0
   114f8:	15dd1004 	ldrbne	r1, [sp, #4]
   114fc:	0a000032 	beq	115cc <_fputwc_r+0x134>
   11500:	e3a05000 	mov	r5, #0
   11504:	ea000009 	b	11530 <_fputwc_r+0x98>
   11508:	e5943000 	ldr	r3, [r4]
   1150c:	e5c31000 	strb	r1, [r3]
   11510:	e5943000 	ldr	r3, [r4]
   11514:	e2833001 	add	r3, r3, #1
   11518:	e5843000 	str	r3, [r4]
   1151c:	e2855001 	add	r5, r5, #1
   11520:	e1550008 	cmp	r5, r8
   11524:	2a000028 	bcs	115cc <_fputwc_r+0x134>
   11528:	e28d3004 	add	r3, sp, #4
   1152c:	e7d51003 	ldrb	r1, [r5, r3]
   11530:	e5943008 	ldr	r3, [r4, #8]
   11534:	e2433001 	sub	r3, r3, #1
   11538:	e3530000 	cmp	r3, #0
   1153c:	e5843008 	str	r3, [r4, #8]
   11540:	aafffff0 	bge	11508 <_fputwc_r+0x70>
   11544:	e5942018 	ldr	r2, [r4, #24]
   11548:	e1530002 	cmp	r3, r2
   1154c:	ba000005 	blt	11568 <_fputwc_r+0xd0>
   11550:	e5943000 	ldr	r3, [r4]
   11554:	e5c31000 	strb	r1, [r3]
   11558:	e5943000 	ldr	r3, [r4]
   1155c:	e5d31000 	ldrb	r1, [r3]
   11560:	e351000a 	cmp	r1, #10
   11564:	1affffea 	bne	11514 <_fputwc_r+0x7c>
   11568:	e1a00007 	mov	r0, r7
   1156c:	e1a02004 	mov	r2, r4
   11570:	eb00006b 	bl	11724 <__swbuf_r>
   11574:	e3700001 	cmn	r0, #1
   11578:	13a00000 	movne	r0, #0
   1157c:	03a00001 	moveq	r0, #1
   11580:	e3500000 	cmp	r0, #0
   11584:	0affffe4 	beq	1151c <_fputwc_r+0x84>
   11588:	e3e00000 	mvn	r0, #0
   1158c:	e28dd008 	add	sp, sp, #8
   11590:	e8bd41f0 	pop	{r4, r5, r6, r7, r8, lr}
   11594:	e12fff1e 	bx	lr
   11598:	e1d430bc 	ldrh	r3, [r4, #12]
   1159c:	e3833040 	orr	r3, r3, #64	; 0x40
   115a0:	e1c430bc 	strh	r3, [r4, #12]
   115a4:	e28dd008 	add	sp, sp, #8
   115a8:	e8bd41f0 	pop	{r4, r5, r6, r7, r8, lr}
   115ac:	e12fff1e 	bx	lr
   115b0:	e2463001 	sub	r3, r6, #1
   115b4:	e35300fe 	cmp	r3, #254	; 0xfe
   115b8:	8affffc5 	bhi	114d4 <_fputwc_r+0x3c>
   115bc:	e20610ff 	and	r1, r6, #255	; 0xff
   115c0:	e5cd1004 	strb	r1, [sp, #4]
   115c4:	e1a08000 	mov	r8, r0
   115c8:	eaffffcc 	b	11500 <_fputwc_r+0x68>
   115cc:	e1a00006 	mov	r0, r6
   115d0:	e28dd008 	add	sp, sp, #8
   115d4:	e8bd41f0 	pop	{r4, r5, r6, r7, r8, lr}
   115d8:	e12fff1e 	bx	lr

000115dc <fputwc>:
   115dc:	e59f3038 	ldr	r3, [pc, #56]	; 1161c <fputwc+0x40>
   115e0:	e92d4070 	push	{r4, r5, r6, lr}
   115e4:	e5934000 	ldr	r4, [r3]
   115e8:	e3540000 	cmp	r4, #0
   115ec:	e1a06000 	mov	r6, r0
   115f0:	e1a05001 	mov	r5, r1
   115f4:	0a000003 	beq	11608 <fputwc+0x2c>
   115f8:	e5943038 	ldr	r3, [r4, #56]	; 0x38
   115fc:	e3530000 	cmp	r3, #0
   11600:	01a00004 	moveq	r0, r4
   11604:	0bffede9 	bleq	cdb0 <__sinit>
   11608:	e1a00004 	mov	r0, r4
   1160c:	e1a01006 	mov	r1, r6
   11610:	e1a02005 	mov	r2, r5
   11614:	e8bd4070 	pop	{r4, r5, r6, lr}
   11618:	eaffff9e 	b	11498 <_fputwc_r>
   1161c:	00012e30 	.word	0x00012e30

00011620 <_fstat_r>:
   11620:	e92d4038 	push	{r3, r4, r5, lr}
   11624:	e59f4030 	ldr	r4, [pc, #48]	; 1165c <_fstat_r+0x3c>
   11628:	e3a03000 	mov	r3, #0
   1162c:	e1a05000 	mov	r5, r0
   11630:	e1a00001 	mov	r0, r1
   11634:	e1a01002 	mov	r1, r2
   11638:	e5843000 	str	r3, [r4]
   1163c:	ebffdb52 	bl	838c <_fstat>
   11640:	e3700001 	cmn	r0, #1
   11644:	1a000002 	bne	11654 <_fstat_r+0x34>
   11648:	e5943000 	ldr	r3, [r4]
   1164c:	e3530000 	cmp	r3, #0
   11650:	15853000 	strne	r3, [r5]
   11654:	e8bd4038 	pop	{r3, r4, r5, lr}
   11658:	e12fff1e 	bx	lr
   1165c:	00013478 	.word	0x00013478

00011660 <_isatty_r>:
   11660:	e92d4038 	push	{r3, r4, r5, lr}
   11664:	e59f402c 	ldr	r4, [pc, #44]	; 11698 <_isatty_r+0x38>
   11668:	e3a03000 	mov	r3, #0
   1166c:	e1a05000 	mov	r5, r0
   11670:	e1a00001 	mov	r0, r1
   11674:	e5843000 	str	r3, [r4]
   11678:	ebffdb49 	bl	83a4 <_isatty>
   1167c:	e3700001 	cmn	r0, #1
   11680:	1a000002 	bne	11690 <_isatty_r+0x30>
   11684:	e5943000 	ldr	r3, [r4]
   11688:	e3530000 	cmp	r3, #0
   1168c:	15853000 	strne	r3, [r5]
   11690:	e8bd4038 	pop	{r3, r4, r5, lr}
   11694:	e12fff1e 	bx	lr
   11698:	00013478 	.word	0x00013478

0001169c <_lseek_r>:
   1169c:	e92d4038 	push	{r3, r4, r5, lr}
   116a0:	e59f4034 	ldr	r4, [pc, #52]	; 116dc <_lseek_r+0x40>
   116a4:	e3a0c000 	mov	ip, #0
   116a8:	e1a05000 	mov	r5, r0
   116ac:	e1a00001 	mov	r0, r1
   116b0:	e1a01002 	mov	r1, r2
   116b4:	e1a02003 	mov	r2, r3
   116b8:	e584c000 	str	ip, [r4]
   116bc:	ebffdb46 	bl	83dc <_lseek>
   116c0:	e3700001 	cmn	r0, #1
   116c4:	1a000002 	bne	116d4 <_lseek_r+0x38>
   116c8:	e5943000 	ldr	r3, [r4]
   116cc:	e3530000 	cmp	r3, #0
   116d0:	15853000 	strne	r3, [r5]
   116d4:	e8bd4038 	pop	{r3, r4, r5, lr}
   116d8:	e12fff1e 	bx	lr
   116dc:	00013478 	.word	0x00013478

000116e0 <_read_r>:
   116e0:	e92d4038 	push	{r3, r4, r5, lr}
   116e4:	e59f4034 	ldr	r4, [pc, #52]	; 11720 <_read_r+0x40>
   116e8:	e3a0c000 	mov	ip, #0
   116ec:	e1a05000 	mov	r5, r0
   116f0:	e1a00001 	mov	r0, r1
   116f4:	e1a01002 	mov	r1, r2
   116f8:	e1a02003 	mov	r2, r3
   116fc:	e584c000 	str	ip, [r4]
   11700:	ebffdb39 	bl	83ec <_read>
   11704:	e3700001 	cmn	r0, #1
   11708:	1a000002 	bne	11718 <_read_r+0x38>
   1170c:	e5943000 	ldr	r3, [r4]
   11710:	e3530000 	cmp	r3, #0
   11714:	15853000 	strne	r3, [r5]
   11718:	e8bd4038 	pop	{r3, r4, r5, lr}
   1171c:	e12fff1e 	bx	lr
   11720:	00013478 	.word	0x00013478

00011724 <__swbuf_r>:
   11724:	e92d4070 	push	{r4, r5, r6, lr}
   11728:	e2506000 	subs	r6, r0, #0
   1172c:	e1a05001 	mov	r5, r1
   11730:	e1a04002 	mov	r4, r2
   11734:	0a000002 	beq	11744 <__swbuf_r+0x20>
   11738:	e5963038 	ldr	r3, [r6, #56]	; 0x38
   1173c:	e3530000 	cmp	r3, #0
   11740:	0a00003e 	beq	11840 <__swbuf_r+0x11c>
   11744:	e1d420bc 	ldrh	r2, [r4, #12]
   11748:	e5940018 	ldr	r0, [r4, #24]
   1174c:	e3120008 	tst	r2, #8
   11750:	e1a03002 	mov	r3, r2
   11754:	e5840008 	str	r0, [r4, #8]
   11758:	0a000027 	beq	117fc <__swbuf_r+0xd8>
   1175c:	e594c010 	ldr	ip, [r4, #16]
   11760:	e35c0000 	cmp	ip, #0
   11764:	0a000024 	beq	117fc <__swbuf_r+0xd8>
   11768:	e3130a02 	tst	r3, #8192	; 0x2000
   1176c:	05943064 	ldreq	r3, [r4, #100]	; 0x64
   11770:	03c33a02 	biceq	r3, r3, #8192	; 0x2000
   11774:	03822a02 	orreq	r2, r2, #8192	; 0x2000
   11778:	05843064 	streq	r3, [r4, #100]	; 0x64
   1177c:	e5943000 	ldr	r3, [r4]
   11780:	01c420bc 	strheq	r2, [r4, #12]
   11784:	e5942014 	ldr	r2, [r4, #20]
   11788:	e06cc003 	rsb	ip, ip, r3
   1178c:	e15c0002 	cmp	ip, r2
   11790:	e20550ff 	and	r5, r5, #255	; 0xff
   11794:	b28cc001 	addlt	ip, ip, #1
   11798:	aa000020 	bge	11820 <__swbuf_r+0xfc>
   1179c:	e5941008 	ldr	r1, [r4, #8]
   117a0:	e2832001 	add	r2, r3, #1
   117a4:	e2411001 	sub	r1, r1, #1
   117a8:	e5841008 	str	r1, [r4, #8]
   117ac:	e5842000 	str	r2, [r4]
   117b0:	e5c35000 	strb	r5, [r3]
   117b4:	e5943014 	ldr	r3, [r4, #20]
   117b8:	e153000c 	cmp	r3, ip
   117bc:	0a000007 	beq	117e0 <__swbuf_r+0xbc>
   117c0:	e1d430bc 	ldrh	r3, [r4, #12]
   117c4:	e3130001 	tst	r3, #1
   117c8:	1a000002 	bne	117d8 <__swbuf_r+0xb4>
   117cc:	e1a00005 	mov	r0, r5
   117d0:	e8bd4070 	pop	{r4, r5, r6, lr}
   117d4:	e12fff1e 	bx	lr
   117d8:	e355000a 	cmp	r5, #10
   117dc:	1afffffa 	bne	117cc <__swbuf_r+0xa8>
   117e0:	e1a00006 	mov	r0, r6
   117e4:	e1a01004 	mov	r1, r4
   117e8:	ebffed25 	bl	cc84 <_fflush_r>
   117ec:	e3500000 	cmp	r0, #0
   117f0:	0afffff5 	beq	117cc <__swbuf_r+0xa8>
   117f4:	e3e00000 	mvn	r0, #0
   117f8:	eafffff4 	b	117d0 <__swbuf_r+0xac>
   117fc:	e1a00006 	mov	r0, r6
   11800:	e1a01004 	mov	r1, r4
   11804:	ebffe6e9 	bl	b3b0 <__swsetup_r>
   11808:	e3500000 	cmp	r0, #0
   1180c:	1afffff8 	bne	117f4 <__swbuf_r+0xd0>
   11810:	e1d420bc 	ldrh	r2, [r4, #12]
   11814:	e594c010 	ldr	ip, [r4, #16]
   11818:	e1a03002 	mov	r3, r2
   1181c:	eaffffd1 	b	11768 <__swbuf_r+0x44>
   11820:	e1a00006 	mov	r0, r6
   11824:	e1a01004 	mov	r1, r4
   11828:	ebffed15 	bl	cc84 <_fflush_r>
   1182c:	e3500000 	cmp	r0, #0
   11830:	1affffef 	bne	117f4 <__swbuf_r+0xd0>
   11834:	e5943000 	ldr	r3, [r4]
   11838:	e3a0c001 	mov	ip, #1
   1183c:	eaffffd6 	b	1179c <__swbuf_r+0x78>
   11840:	ebffed5a 	bl	cdb0 <__sinit>
   11844:	eaffffbe 	b	11744 <__swbuf_r+0x20>

00011848 <__swbuf>:
   11848:	e59f300c 	ldr	r3, [pc, #12]	; 1185c <__swbuf+0x14>
   1184c:	e1a02001 	mov	r2, r1
   11850:	e1a01000 	mov	r1, r0
   11854:	e5930000 	ldr	r0, [r3]
   11858:	eaffffb1 	b	11724 <__swbuf_r>
   1185c:	00012e30 	.word	0x00012e30

00011860 <_wcrtomb_r>:
   11860:	e92d41f0 	push	{r4, r5, r6, r7, r8, lr}
   11864:	e2516000 	subs	r6, r1, #0
   11868:	e1a05003 	mov	r5, r3
   1186c:	e24dd018 	sub	sp, sp, #24
   11870:	e1a04000 	mov	r4, r0
   11874:	e1a07002 	mov	r7, r2
   11878:	e59f306c 	ldr	r3, [pc, #108]	; 118ec <_wcrtomb_r+0x8c>
   1187c:	0a000010 	beq	118c4 <_wcrtomb_r+0x64>
   11880:	e5938000 	ldr	r8, [r3]
   11884:	ebfff069 	bl	da30 <__locale_charset>
   11888:	e58d5000 	str	r5, [sp]
   1188c:	e1a03000 	mov	r3, r0
   11890:	e1a01006 	mov	r1, r6
   11894:	e1a02007 	mov	r2, r7
   11898:	e1a00004 	mov	r0, r4
   1189c:	e1a0e00f 	mov	lr, pc
   118a0:	e12fff18 	bx	r8
   118a4:	e3700001 	cmn	r0, #1
   118a8:	03a02000 	moveq	r2, #0
   118ac:	03a0308a 	moveq	r3, #138	; 0x8a
   118b0:	05852000 	streq	r2, [r5]
   118b4:	05843000 	streq	r3, [r4]
   118b8:	e28dd018 	add	sp, sp, #24
   118bc:	e8bd41f0 	pop	{r4, r5, r6, r7, r8, lr}
   118c0:	e12fff1e 	bx	lr
   118c4:	e5937000 	ldr	r7, [r3]
   118c8:	ebfff058 	bl	da30 <__locale_charset>
   118cc:	e58d5000 	str	r5, [sp]
   118d0:	e1a03000 	mov	r3, r0
   118d4:	e1a02006 	mov	r2, r6
   118d8:	e1a00004 	mov	r0, r4
   118dc:	e28d100c 	add	r1, sp, #12
   118e0:	e1a0e00f 	mov	lr, pc
   118e4:	e12fff17 	bx	r7
   118e8:	eaffffed 	b	118a4 <_wcrtomb_r+0x44>
   118ec:	000132c0 	.word	0x000132c0

000118f0 <wcrtomb>:
   118f0:	e92d41f0 	push	{r4, r5, r6, r7, r8, lr}
   118f4:	e59f3084 	ldr	r3, [pc, #132]	; 11980 <wcrtomb+0x90>
   118f8:	e2506000 	subs	r6, r0, #0
   118fc:	e5934000 	ldr	r4, [r3]
   11900:	e24dd018 	sub	sp, sp, #24
   11904:	e1a07001 	mov	r7, r1
   11908:	e1a05002 	mov	r5, r2
   1190c:	e59f3070 	ldr	r3, [pc, #112]	; 11984 <wcrtomb+0x94>
   11910:	0a000010 	beq	11958 <wcrtomb+0x68>
   11914:	e5938000 	ldr	r8, [r3]
   11918:	ebfff044 	bl	da30 <__locale_charset>
   1191c:	e58d5000 	str	r5, [sp]
   11920:	e1a03000 	mov	r3, r0
   11924:	e1a01006 	mov	r1, r6
   11928:	e1a02007 	mov	r2, r7
   1192c:	e1a00004 	mov	r0, r4
   11930:	e1a0e00f 	mov	lr, pc
   11934:	e12fff18 	bx	r8
   11938:	e3700001 	cmn	r0, #1
   1193c:	03a02000 	moveq	r2, #0
   11940:	03a0308a 	moveq	r3, #138	; 0x8a
   11944:	05852000 	streq	r2, [r5]
   11948:	05843000 	streq	r3, [r4]
   1194c:	e28dd018 	add	sp, sp, #24
   11950:	e8bd41f0 	pop	{r4, r5, r6, r7, r8, lr}
   11954:	e12fff1e 	bx	lr
   11958:	e5937000 	ldr	r7, [r3]
   1195c:	ebfff033 	bl	da30 <__locale_charset>
   11960:	e58d5000 	str	r5, [sp]
   11964:	e1a03000 	mov	r3, r0
   11968:	e1a02006 	mov	r2, r6
   1196c:	e1a00004 	mov	r0, r4
   11970:	e28d100c 	add	r1, sp, #12
   11974:	e1a0e00f 	mov	lr, pc
   11978:	e12fff17 	bx	r7
   1197c:	eaffffed 	b	11938 <wcrtomb+0x48>
   11980:	00012e30 	.word	0x00012e30
   11984:	000132c0 	.word	0x000132c0

00011988 <__ascii_wctomb>:
   11988:	e3510000 	cmp	r1, #0
   1198c:	0a000006 	beq	119ac <__ascii_wctomb+0x24>
   11990:	e35200ff 	cmp	r2, #255	; 0xff
   11994:	83a0308a 	movhi	r3, #138	; 0x8a
   11998:	85803000 	strhi	r3, [r0]
   1199c:	95c12000 	strbls	r2, [r1]
   119a0:	83e00000 	mvnhi	r0, #0
   119a4:	93a00001 	movls	r0, #1
   119a8:	e12fff1e 	bx	lr
   119ac:	e1a00001 	mov	r0, r1
   119b0:	e12fff1e 	bx	lr

000119b4 <_wctomb_r>:
   119b4:	e92d41f0 	push	{r4, r5, r6, r7, r8, lr}
   119b8:	e59fc040 	ldr	ip, [pc, #64]	; 11a00 <_wctomb_r+0x4c>
   119bc:	e24dd008 	sub	sp, sp, #8
   119c0:	e1a08003 	mov	r8, r3
   119c4:	e1a05000 	mov	r5, r0
   119c8:	e1a07001 	mov	r7, r1
   119cc:	e1a06002 	mov	r6, r2
   119d0:	e59c4000 	ldr	r4, [ip]
   119d4:	ebfff015 	bl	da30 <__locale_charset>
   119d8:	e58d8000 	str	r8, [sp]
   119dc:	e1a03000 	mov	r3, r0
   119e0:	e1a01007 	mov	r1, r7
   119e4:	e1a02006 	mov	r2, r6
   119e8:	e1a00005 	mov	r0, r5
   119ec:	e1a0e00f 	mov	lr, pc
   119f0:	e12fff14 	bx	r4
   119f4:	e28dd008 	add	sp, sp, #8
   119f8:	e8bd41f0 	pop	{r4, r5, r6, r7, r8, lr}
   119fc:	e12fff1e 	bx	lr
   11a00:	000132c0 	.word	0x000132c0

00011a04 <__aeabi_uidiv>:
   11a04:	e2512001 	subs	r2, r1, #1
   11a08:	012fff1e 	bxeq	lr
   11a0c:	3a000036 	bcc	11aec <__aeabi_uidiv+0xe8>
   11a10:	e1500001 	cmp	r0, r1
   11a14:	9a000022 	bls	11aa4 <__aeabi_uidiv+0xa0>
   11a18:	e1110002 	tst	r1, r2
   11a1c:	0a000023 	beq	11ab0 <__aeabi_uidiv+0xac>
   11a20:	e311020e 	tst	r1, #-536870912	; 0xe0000000
   11a24:	01a01181 	lsleq	r1, r1, #3
   11a28:	03a03008 	moveq	r3, #8
   11a2c:	13a03001 	movne	r3, #1
   11a30:	e3510201 	cmp	r1, #268435456	; 0x10000000
   11a34:	31510000 	cmpcc	r1, r0
   11a38:	31a01201 	lslcc	r1, r1, #4
   11a3c:	31a03203 	lslcc	r3, r3, #4
   11a40:	3afffffa 	bcc	11a30 <__aeabi_uidiv+0x2c>
   11a44:	e3510102 	cmp	r1, #-2147483648	; 0x80000000
   11a48:	31510000 	cmpcc	r1, r0
   11a4c:	31a01081 	lslcc	r1, r1, #1
   11a50:	31a03083 	lslcc	r3, r3, #1
   11a54:	3afffffa 	bcc	11a44 <__aeabi_uidiv+0x40>
   11a58:	e3a02000 	mov	r2, #0
   11a5c:	e1500001 	cmp	r0, r1
   11a60:	20400001 	subcs	r0, r0, r1
   11a64:	21822003 	orrcs	r2, r2, r3
   11a68:	e15000a1 	cmp	r0, r1, lsr #1
   11a6c:	204000a1 	subcs	r0, r0, r1, lsr #1
   11a70:	218220a3 	orrcs	r2, r2, r3, lsr #1
   11a74:	e1500121 	cmp	r0, r1, lsr #2
   11a78:	20400121 	subcs	r0, r0, r1, lsr #2
   11a7c:	21822123 	orrcs	r2, r2, r3, lsr #2
   11a80:	e15001a1 	cmp	r0, r1, lsr #3
   11a84:	204001a1 	subcs	r0, r0, r1, lsr #3
   11a88:	218221a3 	orrcs	r2, r2, r3, lsr #3
   11a8c:	e3500000 	cmp	r0, #0
   11a90:	11b03223 	lsrsne	r3, r3, #4
   11a94:	11a01221 	lsrne	r1, r1, #4
   11a98:	1affffef 	bne	11a5c <__aeabi_uidiv+0x58>
   11a9c:	e1a00002 	mov	r0, r2
   11aa0:	e12fff1e 	bx	lr
   11aa4:	03a00001 	moveq	r0, #1
   11aa8:	13a00000 	movne	r0, #0
   11aac:	e12fff1e 	bx	lr
   11ab0:	e3510801 	cmp	r1, #65536	; 0x10000
   11ab4:	21a01821 	lsrcs	r1, r1, #16
   11ab8:	23a02010 	movcs	r2, #16
   11abc:	33a02000 	movcc	r2, #0
   11ac0:	e3510c01 	cmp	r1, #256	; 0x100
   11ac4:	21a01421 	lsrcs	r1, r1, #8
   11ac8:	22822008 	addcs	r2, r2, #8
   11acc:	e3510010 	cmp	r1, #16
   11ad0:	21a01221 	lsrcs	r1, r1, #4
   11ad4:	22822004 	addcs	r2, r2, #4
   11ad8:	e3510004 	cmp	r1, #4
   11adc:	82822003 	addhi	r2, r2, #3
   11ae0:	908220a1 	addls	r2, r2, r1, lsr #1
   11ae4:	e1a00230 	lsr	r0, r0, r2
   11ae8:	e12fff1e 	bx	lr
   11aec:	e3500000 	cmp	r0, #0
   11af0:	13e00000 	mvnne	r0, #0
   11af4:	eaffdd65 	b	9090 <__aeabi_idiv0>

00011af8 <__aeabi_uidivmod>:
   11af8:	e3510000 	cmp	r1, #0
   11afc:	0afffffa 	beq	11aec <__aeabi_uidiv+0xe8>
   11b00:	e92d4003 	push	{r0, r1, lr}
   11b04:	ebffffbe 	bl	11a04 <__aeabi_uidiv>
   11b08:	e8bd4006 	pop	{r1, r2, lr}
   11b0c:	e0030092 	mul	r3, r2, r0
   11b10:	e0411003 	sub	r1, r1, r3
   11b14:	e12fff1e 	bx	lr

00011b18 <__aeabi_uldivmod>:
   11b18:	e3530000 	cmp	r3, #0
   11b1c:	03520000 	cmpeq	r2, #0
   11b20:	1a000004 	bne	11b38 <__aeabi_uldivmod+0x20>
   11b24:	e3510000 	cmp	r1, #0
   11b28:	03500000 	cmpeq	r0, #0
   11b2c:	13e01000 	mvnne	r1, #0
   11b30:	13e00000 	mvnne	r0, #0
   11b34:	eaffdd55 	b	9090 <__aeabi_idiv0>
   11b38:	e24dd008 	sub	sp, sp, #8
   11b3c:	e92d6000 	push	{sp, lr}
   11b40:	eb000014 	bl	11b98 <__gnu_uldivmod_helper>
   11b44:	e59de004 	ldr	lr, [sp, #4]
   11b48:	e28dd008 	add	sp, sp, #8
   11b4c:	e8bd000c 	pop	{r2, r3}
   11b50:	e12fff1e 	bx	lr

00011b54 <__gnu_ldivmod_helper>:
   11b54:	e92d47f0 	push	{r4, r5, r6, r7, r8, r9, sl, lr}
   11b58:	e59d9020 	ldr	r9, [sp, #32]
   11b5c:	e1a08002 	mov	r8, r2
   11b60:	e1a0a003 	mov	sl, r3
   11b64:	e1a06000 	mov	r6, r0
   11b68:	e1a07001 	mov	r7, r1
   11b6c:	eb000019 	bl	11bd8 <__divdi3>
   11b70:	e0030198 	mul	r3, r8, r1
   11b74:	e1a02000 	mov	r2, r0
   11b78:	e0854098 	umull	r4, r5, r8, r0
   11b7c:	e022329a 	mla	r2, sl, r2, r3
   11b80:	e0825005 	add	r5, r2, r5
   11b84:	e0564004 	subs	r4, r6, r4
   11b88:	e0c75005 	sbc	r5, r7, r5
   11b8c:	e8890030 	stm	r9, {r4, r5}
   11b90:	e8bd47f0 	pop	{r4, r5, r6, r7, r8, r9, sl, lr}
   11b94:	e12fff1e 	bx	lr

00011b98 <__gnu_uldivmod_helper>:
   11b98:	e92d43f8 	push	{r3, r4, r5, r6, r7, r8, r9, lr}
   11b9c:	e59d9020 	ldr	r9, [sp, #32]
   11ba0:	e1a06000 	mov	r6, r0
   11ba4:	e1a07001 	mov	r7, r1
   11ba8:	e1a08002 	mov	r8, r2
   11bac:	e1a04003 	mov	r4, r3
   11bb0:	eb00013c 	bl	120a8 <__udivdi3>
   11bb4:	e0030490 	mul	r3, r0, r4
   11bb8:	e0854890 	umull	r4, r5, r0, r8
   11bbc:	e0283891 	mla	r8, r1, r8, r3
   11bc0:	e0885005 	add	r5, r8, r5
   11bc4:	e0564004 	subs	r4, r6, r4
   11bc8:	e0c75005 	sbc	r5, r7, r5
   11bcc:	e8890030 	stm	r9, {r4, r5}
   11bd0:	e8bd43f8 	pop	{r3, r4, r5, r6, r7, r8, r9, lr}
   11bd4:	e12fff1e 	bx	lr

00011bd8 <__divdi3>:
   11bd8:	e92d4ff0 	push	{r4, r5, r6, r7, r8, r9, sl, fp, lr}
   11bdc:	e2704000 	rsbs	r4, r0, #0
   11be0:	e2e15000 	rsc	r5, r1, #0
   11be4:	e3510000 	cmp	r1, #0
   11be8:	e3e06000 	mvn	r6, #0
   11bec:	a1a04000 	movge	r4, r0
   11bf0:	a1a05001 	movge	r5, r1
   11bf4:	a3a06000 	movge	r6, #0
   11bf8:	e3530000 	cmp	r3, #0
   11bfc:	e24dd014 	sub	sp, sp, #20
   11c00:	ba000098 	blt	11e68 <__divdi3+0x290>
   11c04:	e3530000 	cmp	r3, #0
   11c08:	e1a0c004 	mov	ip, r4
   11c0c:	e1a0b005 	mov	fp, r5
   11c10:	e1a0a002 	mov	sl, r2
   11c14:	e1a01003 	mov	r1, r3
   11c18:	e1a08002 	mov	r8, r2
   11c1c:	e1a07004 	mov	r7, r4
   11c20:	e1a09005 	mov	r9, r5
   11c24:	1a000040 	bne	11d2c <__divdi3+0x154>
   11c28:	e1520005 	cmp	r2, r5
   11c2c:	9a000052 	bls	11d7c <__divdi3+0x1a4>
   11c30:	e1a00002 	mov	r0, r2
   11c34:	eb000237 	bl	12518 <__clzsi2>
   11c38:	e3500000 	cmp	r0, #0
   11c3c:	12603020 	rsbne	r3, r0, #32
   11c40:	11a03334 	lsrne	r3, r4, r3
   11c44:	11a0801a 	lslne	r8, sl, r0
   11c48:	11839015 	orrne	r9, r3, r5, lsl r0
   11c4c:	11a07014 	lslne	r7, r4, r0
   11c50:	e1a04828 	lsr	r4, r8, #16
   11c54:	e1a01004 	mov	r1, r4
   11c58:	e1a00009 	mov	r0, r9
   11c5c:	ebffff68 	bl	11a04 <__aeabi_uidiv>
   11c60:	e1a01004 	mov	r1, r4
   11c64:	e1a0b000 	mov	fp, r0
   11c68:	e1a00009 	mov	r0, r9
   11c6c:	ebffffa1 	bl	11af8 <__aeabi_uidivmod>
   11c70:	e1a0a808 	lsl	sl, r8, #16
   11c74:	e1a0a82a 	lsr	sl, sl, #16
   11c78:	e0000b9a 	mul	r0, sl, fp
   11c7c:	e1a02827 	lsr	r2, r7, #16
   11c80:	e1821801 	orr	r1, r2, r1, lsl #16
   11c84:	e1500001 	cmp	r0, r1
   11c88:	9a000007 	bls	11cac <__divdi3+0xd4>
   11c8c:	e0911008 	adds	r1, r1, r8
   11c90:	e24b3001 	sub	r3, fp, #1
   11c94:	2a000003 	bcs	11ca8 <__divdi3+0xd0>
   11c98:	e1500001 	cmp	r0, r1
   11c9c:	824bb002 	subhi	fp, fp, #2
   11ca0:	80811008 	addhi	r1, r1, r8
   11ca4:	8a000000 	bhi	11cac <__divdi3+0xd4>
   11ca8:	e1a0b003 	mov	fp, r3
   11cac:	e0609001 	rsb	r9, r0, r1
   11cb0:	e1a00009 	mov	r0, r9
   11cb4:	e1a01004 	mov	r1, r4
   11cb8:	ebffff51 	bl	11a04 <__aeabi_uidiv>
   11cbc:	e1a01004 	mov	r1, r4
   11cc0:	e1a05000 	mov	r5, r0
   11cc4:	e1a00009 	mov	r0, r9
   11cc8:	ebffff8a 	bl	11af8 <__aeabi_uidivmod>
   11ccc:	e00a0a95 	mul	sl, r5, sl
   11cd0:	e1a07807 	lsl	r7, r7, #16
   11cd4:	e1a07827 	lsr	r7, r7, #16
   11cd8:	e1871801 	orr	r1, r7, r1, lsl #16
   11cdc:	e15a0001 	cmp	sl, r1
   11ce0:	9a000006 	bls	11d00 <__divdi3+0x128>
   11ce4:	e0918008 	adds	r8, r1, r8
   11ce8:	e2453001 	sub	r3, r5, #1
   11cec:	2a000002 	bcs	11cfc <__divdi3+0x124>
   11cf0:	e15a0008 	cmp	sl, r8
   11cf4:	82455002 	subhi	r5, r5, #2
   11cf8:	8a000000 	bhi	11d00 <__divdi3+0x128>
   11cfc:	e1a05003 	mov	r5, r3
   11d00:	e185380b 	orr	r3, r5, fp, lsl #16
   11d04:	e3a04000 	mov	r4, #0
   11d08:	e3560000 	cmp	r6, #0
   11d0c:	e1a00003 	mov	r0, r3
   11d10:	e1a01004 	mov	r1, r4
   11d14:	0a000001 	beq	11d20 <__divdi3+0x148>
   11d18:	e2700000 	rsbs	r0, r0, #0
   11d1c:	e2e11000 	rsc	r1, r1, #0
   11d20:	e28dd014 	add	sp, sp, #20
   11d24:	e8bd4ff0 	pop	{r4, r5, r6, r7, r8, r9, sl, fp, lr}
   11d28:	e12fff1e 	bx	lr
   11d2c:	e1530005 	cmp	r3, r5
   11d30:	83a04000 	movhi	r4, #0
   11d34:	81a03004 	movhi	r3, r4
   11d38:	8afffff2 	bhi	11d08 <__divdi3+0x130>
   11d3c:	e1a00003 	mov	r0, r3
   11d40:	e58d100c 	str	r1, [sp, #12]
   11d44:	e58dc008 	str	ip, [sp, #8]
   11d48:	eb0001f2 	bl	12518 <__clzsi2>
   11d4c:	e2505000 	subs	r5, r0, #0
   11d50:	e59d100c 	ldr	r1, [sp, #12]
   11d54:	e59dc008 	ldr	ip, [sp, #8]
   11d58:	1a00007f 	bne	11f5c <__divdi3+0x384>
   11d5c:	e151000b 	cmp	r1, fp
   11d60:	215a000c 	cmpcs	sl, ip
   11d64:	83a04000 	movhi	r4, #0
   11d68:	93a04001 	movls	r4, #1
   11d6c:	93a03001 	movls	r3, #1
   11d70:	91a04005 	movls	r4, r5
   11d74:	81a03004 	movhi	r3, r4
   11d78:	eaffffe2 	b	11d08 <__divdi3+0x130>
   11d7c:	e3520000 	cmp	r2, #0
   11d80:	1a000003 	bne	11d94 <__divdi3+0x1bc>
   11d84:	e1a01002 	mov	r1, r2
   11d88:	e3a00001 	mov	r0, #1
   11d8c:	ebffff1c 	bl	11a04 <__aeabi_uidiv>
   11d90:	e1a08000 	mov	r8, r0
   11d94:	e1a00008 	mov	r0, r8
   11d98:	eb0001de 	bl	12518 <__clzsi2>
   11d9c:	e2503000 	subs	r3, r0, #0
   11da0:	1a000034 	bne	11e78 <__divdi3+0x2a0>
   11da4:	e1a0a808 	lsl	sl, r8, #16
   11da8:	e0689009 	rsb	r9, r8, r9
   11dac:	e1a0a82a 	lsr	sl, sl, #16
   11db0:	e1a05828 	lsr	r5, r8, #16
   11db4:	e3a04001 	mov	r4, #1
   11db8:	e1a01005 	mov	r1, r5
   11dbc:	e1a00009 	mov	r0, r9
   11dc0:	ebffff0f 	bl	11a04 <__aeabi_uidiv>
   11dc4:	e1a01005 	mov	r1, r5
   11dc8:	e1a0b000 	mov	fp, r0
   11dcc:	e1a00009 	mov	r0, r9
   11dd0:	ebffff48 	bl	11af8 <__aeabi_uidivmod>
   11dd4:	e0000b9a 	mul	r0, sl, fp
   11dd8:	e1a02827 	lsr	r2, r7, #16
   11ddc:	e1821801 	orr	r1, r2, r1, lsl #16
   11de0:	e1500001 	cmp	r0, r1
   11de4:	9a000006 	bls	11e04 <__divdi3+0x22c>
   11de8:	e0911008 	adds	r1, r1, r8
   11dec:	e24b3001 	sub	r3, fp, #1
   11df0:	2a0000a4 	bcs	12088 <__divdi3+0x4b0>
   11df4:	e1500001 	cmp	r0, r1
   11df8:	824bb002 	subhi	fp, fp, #2
   11dfc:	80811008 	addhi	r1, r1, r8
   11e00:	9a0000a0 	bls	12088 <__divdi3+0x4b0>
   11e04:	e0602001 	rsb	r2, r0, r1
   11e08:	e1a00002 	mov	r0, r2
   11e0c:	e1a01005 	mov	r1, r5
   11e10:	e58d200c 	str	r2, [sp, #12]
   11e14:	ebfffefa 	bl	11a04 <__aeabi_uidiv>
   11e18:	e59d200c 	ldr	r2, [sp, #12]
   11e1c:	e1a09000 	mov	r9, r0
   11e20:	e1a01005 	mov	r1, r5
   11e24:	e1a00002 	mov	r0, r2
   11e28:	ebffff32 	bl	11af8 <__aeabi_uidivmod>
   11e2c:	e00a0a99 	mul	sl, r9, sl
   11e30:	e1a07807 	lsl	r7, r7, #16
   11e34:	e1a07827 	lsr	r7, r7, #16
   11e38:	e1871801 	orr	r1, r7, r1, lsl #16
   11e3c:	e15a0001 	cmp	sl, r1
   11e40:	9a000006 	bls	11e60 <__divdi3+0x288>
   11e44:	e0918008 	adds	r8, r1, r8
   11e48:	e2493001 	sub	r3, r9, #1
   11e4c:	2a000002 	bcs	11e5c <__divdi3+0x284>
   11e50:	e15a0008 	cmp	sl, r8
   11e54:	82499002 	subhi	r9, r9, #2
   11e58:	8a000000 	bhi	11e60 <__divdi3+0x288>
   11e5c:	e1a09003 	mov	r9, r3
   11e60:	e189380b 	orr	r3, r9, fp, lsl #16
   11e64:	eaffffa7 	b	11d08 <__divdi3+0x130>
   11e68:	e1e06006 	mvn	r6, r6
   11e6c:	e2722000 	rsbs	r2, r2, #0
   11e70:	e2e33000 	rsc	r3, r3, #0
   11e74:	eaffff62 	b	11c04 <__divdi3+0x2c>
   11e78:	e1a08318 	lsl	r8, r8, r3
   11e7c:	e263b020 	rsb	fp, r3, #32
   11e80:	e1a04b39 	lsr	r4, r9, fp
   11e84:	e1a0bb37 	lsr	fp, r7, fp
   11e88:	e1a05828 	lsr	r5, r8, #16
   11e8c:	e1a01005 	mov	r1, r5
   11e90:	e1a00004 	mov	r0, r4
   11e94:	e18bb319 	orr	fp, fp, r9, lsl r3
   11e98:	e1a07317 	lsl	r7, r7, r3
   11e9c:	ebfffed8 	bl	11a04 <__aeabi_uidiv>
   11ea0:	e1a01005 	mov	r1, r5
   11ea4:	e1a03000 	mov	r3, r0
   11ea8:	e1a00004 	mov	r0, r4
   11eac:	e58d3004 	str	r3, [sp, #4]
   11eb0:	ebffff10 	bl	11af8 <__aeabi_uidivmod>
   11eb4:	e1a0a808 	lsl	sl, r8, #16
   11eb8:	e59d3004 	ldr	r3, [sp, #4]
   11ebc:	e1a0a82a 	lsr	sl, sl, #16
   11ec0:	e000039a 	mul	r0, sl, r3
   11ec4:	e1a0282b 	lsr	r2, fp, #16
   11ec8:	e1821801 	orr	r1, r2, r1, lsl #16
   11ecc:	e1500001 	cmp	r0, r1
   11ed0:	9a000006 	bls	11ef0 <__divdi3+0x318>
   11ed4:	e0911008 	adds	r1, r1, r8
   11ed8:	e2432001 	sub	r2, r3, #1
   11edc:	2a00006f 	bcs	120a0 <__divdi3+0x4c8>
   11ee0:	e1500001 	cmp	r0, r1
   11ee4:	82433002 	subhi	r3, r3, #2
   11ee8:	80811008 	addhi	r1, r1, r8
   11eec:	9a00006b 	bls	120a0 <__divdi3+0x4c8>
   11ef0:	e0609001 	rsb	r9, r0, r1
   11ef4:	e1a00009 	mov	r0, r9
   11ef8:	e1a01005 	mov	r1, r5
   11efc:	e58d3004 	str	r3, [sp, #4]
   11f00:	ebfffebf 	bl	11a04 <__aeabi_uidiv>
   11f04:	e1a01005 	mov	r1, r5
   11f08:	e1a04000 	mov	r4, r0
   11f0c:	e1a00009 	mov	r0, r9
   11f10:	ebfffef8 	bl	11af8 <__aeabi_uidivmod>
   11f14:	e009049a 	mul	r9, sl, r4
   11f18:	e1a0b80b 	lsl	fp, fp, #16
   11f1c:	e1a0b82b 	lsr	fp, fp, #16
   11f20:	e18b1801 	orr	r1, fp, r1, lsl #16
   11f24:	e1590001 	cmp	r9, r1
   11f28:	e59d3004 	ldr	r3, [sp, #4]
   11f2c:	9a000007 	bls	11f50 <__divdi3+0x378>
   11f30:	e0911008 	adds	r1, r1, r8
   11f34:	e2442001 	sub	r2, r4, #1
   11f38:	2a000003 	bcs	11f4c <__divdi3+0x374>
   11f3c:	e1590001 	cmp	r9, r1
   11f40:	82444002 	subhi	r4, r4, #2
   11f44:	80811008 	addhi	r1, r1, r8
   11f48:	8a000000 	bhi	11f50 <__divdi3+0x378>
   11f4c:	e1a04002 	mov	r4, r2
   11f50:	e0699001 	rsb	r9, r9, r1
   11f54:	e1844803 	orr	r4, r4, r3, lsl #16
   11f58:	eaffff96 	b	11db8 <__divdi3+0x1e0>
   11f5c:	e2653020 	rsb	r3, r5, #32
   11f60:	e1a0833a 	lsr	r8, sl, r3
   11f64:	e1888511 	orr	r8, r8, r1, lsl r5
   11f68:	e1a0233b 	lsr	r2, fp, r3
   11f6c:	e1a03337 	lsr	r3, r7, r3
   11f70:	e1a09828 	lsr	r9, r8, #16
   11f74:	e1a01009 	mov	r1, r9
   11f78:	e1a00002 	mov	r0, r2
   11f7c:	e183b51b 	orr	fp, r3, fp, lsl r5
   11f80:	e58d200c 	str	r2, [sp, #12]
   11f84:	ebfffe9e 	bl	11a04 <__aeabi_uidiv>
   11f88:	e59d200c 	ldr	r2, [sp, #12]
   11f8c:	e1a03000 	mov	r3, r0
   11f90:	e1a01009 	mov	r1, r9
   11f94:	e1a00002 	mov	r0, r2
   11f98:	e58d3004 	str	r3, [sp, #4]
   11f9c:	ebfffed5 	bl	11af8 <__aeabi_uidivmod>
   11fa0:	e1a04808 	lsl	r4, r8, #16
   11fa4:	e59d3004 	ldr	r3, [sp, #4]
   11fa8:	e1a04824 	lsr	r4, r4, #16
   11fac:	e0000394 	mul	r0, r4, r3
   11fb0:	e1a0282b 	lsr	r2, fp, #16
   11fb4:	e1821801 	orr	r1, r2, r1, lsl #16
   11fb8:	e1500001 	cmp	r0, r1
   11fbc:	e1a0a51a 	lsl	sl, sl, r5
   11fc0:	9a000006 	bls	11fe0 <__divdi3+0x408>
   11fc4:	e0911008 	adds	r1, r1, r8
   11fc8:	e2432001 	sub	r2, r3, #1
   11fcc:	2a000031 	bcs	12098 <__divdi3+0x4c0>
   11fd0:	e1500001 	cmp	r0, r1
   11fd4:	82433002 	subhi	r3, r3, #2
   11fd8:	80811008 	addhi	r1, r1, r8
   11fdc:	9a00002d 	bls	12098 <__divdi3+0x4c0>
   11fe0:	e060c001 	rsb	ip, r0, r1
   11fe4:	e1a0000c 	mov	r0, ip
   11fe8:	e1a01009 	mov	r1, r9
   11fec:	e98d1008 	stmib	sp, {r3, ip}
   11ff0:	ebfffe83 	bl	11a04 <__aeabi_uidiv>
   11ff4:	e59dc008 	ldr	ip, [sp, #8]
   11ff8:	e1a02000 	mov	r2, r0
   11ffc:	e1a01009 	mov	r1, r9
   12000:	e1a0000c 	mov	r0, ip
   12004:	e58d200c 	str	r2, [sp, #12]
   12008:	ebfffeba 	bl	11af8 <__aeabi_uidivmod>
   1200c:	e59d200c 	ldr	r2, [sp, #12]
   12010:	e0040492 	mul	r4, r2, r4
   12014:	e1a0b80b 	lsl	fp, fp, #16
   12018:	e1a0c82b 	lsr	ip, fp, #16
   1201c:	e18cc801 	orr	ip, ip, r1, lsl #16
   12020:	e154000c 	cmp	r4, ip
   12024:	e59d3004 	ldr	r3, [sp, #4]
   12028:	9a000006 	bls	12048 <__divdi3+0x470>
   1202c:	e09cc008 	adds	ip, ip, r8
   12030:	e2421001 	sub	r1, r2, #1
   12034:	2a000015 	bcs	12090 <__divdi3+0x4b8>
   12038:	e154000c 	cmp	r4, ip
   1203c:	82422002 	subhi	r2, r2, #2
   12040:	808cc008 	addhi	ip, ip, r8
   12044:	9a000011 	bls	12090 <__divdi3+0x4b8>
   12048:	e1821803 	orr	r1, r2, r3, lsl #16
   1204c:	e0832a91 	umull	r2, r3, r1, sl
   12050:	e064400c 	rsb	r4, r4, ip
   12054:	e1540003 	cmp	r4, r3
   12058:	3a000007 	bcc	1207c <__divdi3+0x4a4>
   1205c:	13a04000 	movne	r4, #0
   12060:	03a04001 	moveq	r4, #1
   12064:	e1520517 	cmp	r2, r7, lsl r5
   12068:	93a04000 	movls	r4, #0
   1206c:	82044001 	andhi	r4, r4, #1
   12070:	e3540000 	cmp	r4, #0
   12074:	01a03001 	moveq	r3, r1
   12078:	0affff22 	beq	11d08 <__divdi3+0x130>
   1207c:	e2413001 	sub	r3, r1, #1
   12080:	e3a04000 	mov	r4, #0
   12084:	eaffff1f 	b	11d08 <__divdi3+0x130>
   12088:	e1a0b003 	mov	fp, r3
   1208c:	eaffff5c 	b	11e04 <__divdi3+0x22c>
   12090:	e1a02001 	mov	r2, r1
   12094:	eaffffeb 	b	12048 <__divdi3+0x470>
   12098:	e1a03002 	mov	r3, r2
   1209c:	eaffffcf 	b	11fe0 <__divdi3+0x408>
   120a0:	e1a03002 	mov	r3, r2
   120a4:	eaffff91 	b	11ef0 <__divdi3+0x318>

000120a8 <__udivdi3>:
   120a8:	e92d4ff0 	push	{r4, r5, r6, r7, r8, r9, sl, fp, lr}
   120ac:	e3530000 	cmp	r3, #0
   120b0:	e24dd00c 	sub	sp, sp, #12
   120b4:	e1a07003 	mov	r7, r3
   120b8:	e1a08000 	mov	r8, r0
   120bc:	e1a05001 	mov	r5, r1
   120c0:	e1a06002 	mov	r6, r2
   120c4:	e1a04002 	mov	r4, r2
   120c8:	e1a09000 	mov	r9, r0
   120cc:	e1a0a001 	mov	sl, r1
   120d0:	1a00003a 	bne	121c0 <__udivdi3+0x118>
   120d4:	e1520001 	cmp	r2, r1
   120d8:	9a000048 	bls	12200 <__udivdi3+0x158>
   120dc:	e1a00002 	mov	r0, r2
   120e0:	eb00010c 	bl	12518 <__clzsi2>
   120e4:	e3500000 	cmp	r0, #0
   120e8:	1260a020 	rsbne	sl, r0, #32
   120ec:	11a0aa38 	lsrne	sl, r8, sl
   120f0:	11a04016 	lslne	r4, r6, r0
   120f4:	118aa015 	orrne	sl, sl, r5, lsl r0
   120f8:	e1a05824 	lsr	r5, r4, #16
   120fc:	11a09018 	lslne	r9, r8, r0
   12100:	e1a01005 	mov	r1, r5
   12104:	e1a0000a 	mov	r0, sl
   12108:	ebfffe3d 	bl	11a04 <__aeabi_uidiv>
   1210c:	e1a01005 	mov	r1, r5
   12110:	e1a07000 	mov	r7, r0
   12114:	e1a0000a 	mov	r0, sl
   12118:	ebfffe76 	bl	11af8 <__aeabi_uidivmod>
   1211c:	e1a08804 	lsl	r8, r4, #16
   12120:	e1a08828 	lsr	r8, r8, #16
   12124:	e0000798 	mul	r0, r8, r7
   12128:	e1a03829 	lsr	r3, r9, #16
   1212c:	e1831801 	orr	r1, r3, r1, lsl #16
   12130:	e1500001 	cmp	r0, r1
   12134:	9a000007 	bls	12158 <__udivdi3+0xb0>
   12138:	e0911004 	adds	r1, r1, r4
   1213c:	e2472001 	sub	r2, r7, #1
   12140:	2a000003 	bcs	12154 <__udivdi3+0xac>
   12144:	e1500001 	cmp	r0, r1
   12148:	82477002 	subhi	r7, r7, #2
   1214c:	80811004 	addhi	r1, r1, r4
   12150:	8a000000 	bhi	12158 <__udivdi3+0xb0>
   12154:	e1a07002 	mov	r7, r2
   12158:	e060a001 	rsb	sl, r0, r1
   1215c:	e1a0000a 	mov	r0, sl
   12160:	e1a01005 	mov	r1, r5
   12164:	ebfffe26 	bl	11a04 <__aeabi_uidiv>
   12168:	e1a01005 	mov	r1, r5
   1216c:	e1a06000 	mov	r6, r0
   12170:	e1a0000a 	mov	r0, sl
   12174:	ebfffe5f 	bl	11af8 <__aeabi_uidivmod>
   12178:	e0080896 	mul	r8, r6, r8
   1217c:	e1a09809 	lsl	r9, r9, #16
   12180:	e1a09829 	lsr	r9, r9, #16
   12184:	e1891801 	orr	r1, r9, r1, lsl #16
   12188:	e1580001 	cmp	r8, r1
   1218c:	9a000005 	bls	121a8 <__udivdi3+0x100>
   12190:	e0914004 	adds	r4, r1, r4
   12194:	e2463001 	sub	r3, r6, #1
   12198:	2a0000cc 	bcs	124d0 <__udivdi3+0x428>
   1219c:	e1580004 	cmp	r8, r4
   121a0:	82466002 	subhi	r6, r6, #2
   121a4:	9a0000c9 	bls	124d0 <__udivdi3+0x428>
   121a8:	e1860807 	orr	r0, r6, r7, lsl #16
   121ac:	e3a06000 	mov	r6, #0
   121b0:	e1a01006 	mov	r1, r6
   121b4:	e28dd00c 	add	sp, sp, #12
   121b8:	e8bd4ff0 	pop	{r4, r5, r6, r7, r8, r9, sl, fp, lr}
   121bc:	e12fff1e 	bx	lr
   121c0:	e1530001 	cmp	r3, r1
   121c4:	83a06000 	movhi	r6, #0
   121c8:	81a00006 	movhi	r0, r6
   121cc:	8afffff7 	bhi	121b0 <__udivdi3+0x108>
   121d0:	e1a00003 	mov	r0, r3
   121d4:	eb0000cf 	bl	12518 <__clzsi2>
   121d8:	e2509000 	subs	r9, r0, #0
   121dc:	1a000042 	bne	122ec <__udivdi3+0x244>
   121e0:	e1570005 	cmp	r7, r5
   121e4:	21560008 	cmpcs	r6, r8
   121e8:	83a06000 	movhi	r6, #0
   121ec:	93a06001 	movls	r6, #1
   121f0:	93a00001 	movls	r0, #1
   121f4:	91a06009 	movls	r6, r9
   121f8:	81a00006 	movhi	r0, r6
   121fc:	eaffffeb 	b	121b0 <__udivdi3+0x108>
   12200:	e3520000 	cmp	r2, #0
   12204:	1a000003 	bne	12218 <__udivdi3+0x170>
   12208:	e1a01002 	mov	r1, r2
   1220c:	e3a00001 	mov	r0, #1
   12210:	ebfffdfb 	bl	11a04 <__aeabi_uidiv>
   12214:	e1a04000 	mov	r4, r0
   12218:	e1a00004 	mov	r0, r4
   1221c:	eb0000bd 	bl	12518 <__clzsi2>
   12220:	e2503000 	subs	r3, r0, #0
   12224:	1a000074 	bne	123fc <__udivdi3+0x354>
   12228:	e1a0a804 	lsl	sl, r4, #16
   1222c:	e0645005 	rsb	r5, r4, r5
   12230:	e1a0a82a 	lsr	sl, sl, #16
   12234:	e1a07824 	lsr	r7, r4, #16
   12238:	e3a06001 	mov	r6, #1
   1223c:	e1a01007 	mov	r1, r7
   12240:	e1a00005 	mov	r0, r5
   12244:	ebfffdee 	bl	11a04 <__aeabi_uidiv>
   12248:	e1a01007 	mov	r1, r7
   1224c:	e1a08000 	mov	r8, r0
   12250:	e1a00005 	mov	r0, r5
   12254:	ebfffe27 	bl	11af8 <__aeabi_uidivmod>
   12258:	e000089a 	mul	r0, sl, r8
   1225c:	e1a03829 	lsr	r3, r9, #16
   12260:	e1831801 	orr	r1, r3, r1, lsl #16
   12264:	e1500001 	cmp	r0, r1
   12268:	9a000006 	bls	12288 <__udivdi3+0x1e0>
   1226c:	e0911004 	adds	r1, r1, r4
   12270:	e2482001 	sub	r2, r8, #1
   12274:	2a000097 	bcs	124d8 <__udivdi3+0x430>
   12278:	e1500001 	cmp	r0, r1
   1227c:	82488002 	subhi	r8, r8, #2
   12280:	80811004 	addhi	r1, r1, r4
   12284:	9a000093 	bls	124d8 <__udivdi3+0x430>
   12288:	e060b001 	rsb	fp, r0, r1
   1228c:	e1a0000b 	mov	r0, fp
   12290:	e1a01007 	mov	r1, r7
   12294:	ebfffdda 	bl	11a04 <__aeabi_uidiv>
   12298:	e1a01007 	mov	r1, r7
   1229c:	e1a05000 	mov	r5, r0
   122a0:	e1a0000b 	mov	r0, fp
   122a4:	ebfffe13 	bl	11af8 <__aeabi_uidivmod>
   122a8:	e00a0a95 	mul	sl, r5, sl
   122ac:	e1a09809 	lsl	r9, r9, #16
   122b0:	e1a09829 	lsr	r9, r9, #16
   122b4:	e1891801 	orr	r1, r9, r1, lsl #16
   122b8:	e15a0001 	cmp	sl, r1
   122bc:	9a000005 	bls	122d8 <__udivdi3+0x230>
   122c0:	e0914004 	adds	r4, r1, r4
   122c4:	e2453001 	sub	r3, r5, #1
   122c8:	2a000084 	bcs	124e0 <__udivdi3+0x438>
   122cc:	e15a0004 	cmp	sl, r4
   122d0:	82455002 	subhi	r5, r5, #2
   122d4:	9a000081 	bls	124e0 <__udivdi3+0x438>
   122d8:	e1850808 	orr	r0, r5, r8, lsl #16
   122dc:	e1a01006 	mov	r1, r6
   122e0:	e28dd00c 	add	sp, sp, #12
   122e4:	e8bd4ff0 	pop	{r4, r5, r6, r7, r8, r9, sl, fp, lr}
   122e8:	e12fff1e 	bx	lr
   122ec:	e2693020 	rsb	r3, r9, #32
   122f0:	e1a02336 	lsr	r2, r6, r3
   122f4:	e1827917 	orr	r7, r2, r7, lsl r9
   122f8:	e1a02335 	lsr	r2, r5, r3
   122fc:	e1a03338 	lsr	r3, r8, r3
   12300:	e1a04827 	lsr	r4, r7, #16
   12304:	e1a01004 	mov	r1, r4
   12308:	e1a00002 	mov	r0, r2
   1230c:	e1835915 	orr	r5, r3, r5, lsl r9
   12310:	e58d2004 	str	r2, [sp, #4]
   12314:	ebfffdba 	bl	11a04 <__aeabi_uidiv>
   12318:	e59d2004 	ldr	r2, [sp, #4]
   1231c:	e1a0b000 	mov	fp, r0
   12320:	e1a01004 	mov	r1, r4
   12324:	e1a00002 	mov	r0, r2
   12328:	ebfffdf2 	bl	11af8 <__aeabi_uidivmod>
   1232c:	e1a0a807 	lsl	sl, r7, #16
   12330:	e1a0a82a 	lsr	sl, sl, #16
   12334:	e0000b9a 	mul	r0, sl, fp
   12338:	e1a03825 	lsr	r3, r5, #16
   1233c:	e1831801 	orr	r1, r3, r1, lsl #16
   12340:	e1500001 	cmp	r0, r1
   12344:	e1a06916 	lsl	r6, r6, r9
   12348:	9a000003 	bls	1235c <__udivdi3+0x2b4>
   1234c:	e0911007 	adds	r1, r1, r7
   12350:	e24b2001 	sub	r2, fp, #1
   12354:	3a000068 	bcc	124fc <__udivdi3+0x454>
   12358:	e1a0b002 	mov	fp, r2
   1235c:	e0603001 	rsb	r3, r0, r1
   12360:	e1a00003 	mov	r0, r3
   12364:	e1a01004 	mov	r1, r4
   12368:	e58d3004 	str	r3, [sp, #4]
   1236c:	ebfffda4 	bl	11a04 <__aeabi_uidiv>
   12370:	e59d3004 	ldr	r3, [sp, #4]
   12374:	e1a02000 	mov	r2, r0
   12378:	e1a01004 	mov	r1, r4
   1237c:	e1a00003 	mov	r0, r3
   12380:	e58d2004 	str	r2, [sp, #4]
   12384:	ebfffddb 	bl	11af8 <__aeabi_uidivmod>
   12388:	e59d2004 	ldr	r2, [sp, #4]
   1238c:	e00a0a92 	mul	sl, r2, sl
   12390:	e1a05805 	lsl	r5, r5, #16
   12394:	e1a05825 	lsr	r5, r5, #16
   12398:	e1851801 	orr	r1, r5, r1, lsl #16
   1239c:	e15a0001 	cmp	sl, r1
   123a0:	9a000003 	bls	123b4 <__udivdi3+0x30c>
   123a4:	e0911007 	adds	r1, r1, r7
   123a8:	e2423001 	sub	r3, r2, #1
   123ac:	3a00004d 	bcc	124e8 <__udivdi3+0x440>
   123b0:	e1a02003 	mov	r2, r3
   123b4:	e182080b 	orr	r0, r2, fp, lsl #16
   123b8:	e0854690 	umull	r4, r5, r0, r6
   123bc:	e06aa001 	rsb	sl, sl, r1
   123c0:	e15a0005 	cmp	sl, r5
   123c4:	3a000006 	bcc	123e4 <__udivdi3+0x33c>
   123c8:	13a06000 	movne	r6, #0
   123cc:	03a06001 	moveq	r6, #1
   123d0:	e1540918 	cmp	r4, r8, lsl r9
   123d4:	93a06000 	movls	r6, #0
   123d8:	82066001 	andhi	r6, r6, #1
   123dc:	e3560000 	cmp	r6, #0
   123e0:	0affff72 	beq	121b0 <__udivdi3+0x108>
   123e4:	e3a06000 	mov	r6, #0
   123e8:	e2400001 	sub	r0, r0, #1
   123ec:	e1a01006 	mov	r1, r6
   123f0:	e28dd00c 	add	sp, sp, #12
   123f4:	e8bd4ff0 	pop	{r4, r5, r6, r7, r8, r9, sl, fp, lr}
   123f8:	e12fff1e 	bx	lr
   123fc:	e1a04314 	lsl	r4, r4, r3
   12400:	e263b020 	rsb	fp, r3, #32
   12404:	e1a06b35 	lsr	r6, r5, fp
   12408:	e1a0bb38 	lsr	fp, r8, fp
   1240c:	e1a07824 	lsr	r7, r4, #16
   12410:	e1a01007 	mov	r1, r7
   12414:	e1a00006 	mov	r0, r6
   12418:	e1a09318 	lsl	r9, r8, r3
   1241c:	e18bb315 	orr	fp, fp, r5, lsl r3
   12420:	ebfffd77 	bl	11a04 <__aeabi_uidiv>
   12424:	e1a01007 	mov	r1, r7
   12428:	e1a08000 	mov	r8, r0
   1242c:	e1a00006 	mov	r0, r6
   12430:	ebfffdb0 	bl	11af8 <__aeabi_uidivmod>
   12434:	e1a0a804 	lsl	sl, r4, #16
   12438:	e1a0a82a 	lsr	sl, sl, #16
   1243c:	e000089a 	mul	r0, sl, r8
   12440:	e1a0382b 	lsr	r3, fp, #16
   12444:	e1831801 	orr	r1, r3, r1, lsl #16
   12448:	e1500001 	cmp	r0, r1
   1244c:	9a000006 	bls	1246c <__udivdi3+0x3c4>
   12450:	e0911004 	adds	r1, r1, r4
   12454:	e2483001 	sub	r3, r8, #1
   12458:	2a00002c 	bcs	12510 <__udivdi3+0x468>
   1245c:	e1500001 	cmp	r0, r1
   12460:	82488002 	subhi	r8, r8, #2
   12464:	80811004 	addhi	r1, r1, r4
   12468:	9a000028 	bls	12510 <__udivdi3+0x468>
   1246c:	e0605001 	rsb	r5, r0, r1
   12470:	e1a00005 	mov	r0, r5
   12474:	e1a01007 	mov	r1, r7
   12478:	ebfffd61 	bl	11a04 <__aeabi_uidiv>
   1247c:	e1a01007 	mov	r1, r7
   12480:	e1a06000 	mov	r6, r0
   12484:	e1a00005 	mov	r0, r5
   12488:	ebfffd9a 	bl	11af8 <__aeabi_uidivmod>
   1248c:	e005069a 	mul	r5, sl, r6
   12490:	e1a0b80b 	lsl	fp, fp, #16
   12494:	e1a0b82b 	lsr	fp, fp, #16
   12498:	e18b1801 	orr	r1, fp, r1, lsl #16
   1249c:	e1550001 	cmp	r5, r1
   124a0:	9a000007 	bls	124c4 <__udivdi3+0x41c>
   124a4:	e0911004 	adds	r1, r1, r4
   124a8:	e2463001 	sub	r3, r6, #1
   124ac:	2a000003 	bcs	124c0 <__udivdi3+0x418>
   124b0:	e1550001 	cmp	r5, r1
   124b4:	82466002 	subhi	r6, r6, #2
   124b8:	80811004 	addhi	r1, r1, r4
   124bc:	8a000000 	bhi	124c4 <__udivdi3+0x41c>
   124c0:	e1a06003 	mov	r6, r3
   124c4:	e0655001 	rsb	r5, r5, r1
   124c8:	e1866808 	orr	r6, r6, r8, lsl #16
   124cc:	eaffff5a 	b	1223c <__udivdi3+0x194>
   124d0:	e1a06003 	mov	r6, r3
   124d4:	eaffff33 	b	121a8 <__udivdi3+0x100>
   124d8:	e1a08002 	mov	r8, r2
   124dc:	eaffff69 	b	12288 <__udivdi3+0x1e0>
   124e0:	e1a05003 	mov	r5, r3
   124e4:	eaffff7b 	b	122d8 <__udivdi3+0x230>
   124e8:	e15a0001 	cmp	sl, r1
   124ec:	82422002 	subhi	r2, r2, #2
   124f0:	80811007 	addhi	r1, r1, r7
   124f4:	8affffae 	bhi	123b4 <__udivdi3+0x30c>
   124f8:	eaffffac 	b	123b0 <__udivdi3+0x308>
   124fc:	e1500001 	cmp	r0, r1
   12500:	824bb002 	subhi	fp, fp, #2
   12504:	80811007 	addhi	r1, r1, r7
   12508:	8affff93 	bhi	1235c <__udivdi3+0x2b4>
   1250c:	eaffff91 	b	12358 <__udivdi3+0x2b0>
   12510:	e1a08003 	mov	r8, r3
   12514:	eaffffd4 	b	1246c <__udivdi3+0x3c4>

00012518 <__clzsi2>:
   12518:	e3a0101c 	mov	r1, #28
   1251c:	e3500801 	cmp	r0, #65536	; 0x10000
   12520:	21a00820 	lsrcs	r0, r0, #16
   12524:	22411010 	subcs	r1, r1, #16
   12528:	e3500c01 	cmp	r0, #256	; 0x100
   1252c:	21a00420 	lsrcs	r0, r0, #8
   12530:	22411008 	subcs	r1, r1, #8
   12534:	e3500010 	cmp	r0, #16
   12538:	21a00220 	lsrcs	r0, r0, #4
   1253c:	22411004 	subcs	r1, r1, #4
   12540:	e28f2008 	add	r2, pc, #8
   12544:	e7d20000 	ldrb	r0, [r2, r0]
   12548:	e0800001 	add	r0, r0, r1
   1254c:	e12fff1e 	bx	lr
   12550:	02020304 	.word	0x02020304
   12554:	01010101 	.word	0x01010101
	...
